
communication_with_nano_test.elf:     file format elf32-littlearm

Sections:
Idx Name          Size      VMA       LMA       File off  Algn
  0 .isr_vector   000002cc  08000000  08000000  00001000  2**0
                  CONTENTS, ALLOC, LOAD, READONLY, DATA
  1 .text         000099fc  080002cc  080002cc  000012cc  2**2
                  CONTENTS, ALLOC, LOAD, READONLY, CODE
  2 .rodata       00000088  08009cc8  08009cc8  0000acc8  2**2
                  CONTENTS, ALLOC, LOAD, READONLY, DATA
  3 .init_array   00000004  08009d50  08009d50  0000ad50  2**2
                  CONTENTS, ALLOC, LOAD, READONLY, DATA
  4 .fini_array   00000004  08009d54  08009d54  0000ad54  2**2
                  CONTENTS, ALLOC, LOAD, READONLY, DATA
  5 .data         00000104  24000000  08009d58  0000b000  2**2
                  CONTENTS, ALLOC, LOAD, DATA
  6 .bss          00001f80  24000104  08009e5c  0000b104  2**2
                  ALLOC
  7 ._user_heap_stack 00000604  24002084  08009e5c  0000c084  2**0
                  ALLOC
  8 .ARM.attributes 0000002e  00000000  00000000  0000b104  2**0
                  CONTENTS, READONLY
  9 .debug_info   0001a191  00000000  00000000  0000b132  2**0
                  CONTENTS, READONLY, DEBUGGING, OCTETS
 10 .debug_abbrev 00004185  00000000  00000000  000252c3  2**0
                  CONTENTS, READONLY, DEBUGGING, OCTETS
 11 .debug_aranges 00001588  00000000  00000000  00029448  2**3
                  CONTENTS, READONLY, DEBUGGING, OCTETS
 12 .debug_rnglists 0000104f  00000000  00000000  0002a9d0  2**0
                  CONTENTS, READONLY, DEBUGGING, OCTETS
 13 .debug_macro  00036592  00000000  00000000  0002ba1f  2**0
                  CONTENTS, READONLY, DEBUGGING, OCTETS
 14 .debug_line   0001df89  00000000  00000000  00061fb1  2**0
                  CONTENTS, READONLY, DEBUGGING, OCTETS
 15 .debug_str    0014a27b  00000000  00000000  0007ff3a  2**0
                  CONTENTS, READONLY, DEBUGGING, OCTETS
 16 .comment      00000043  00000000  00000000  001ca1b5  2**0
                  CONTENTS, READONLY
 17 .debug_frame  00005378  00000000  00000000  001ca1f8  2**2
                  CONTENTS, READONLY, DEBUGGING, OCTETS
 18 .debug_line_str 00000064  00000000  00000000  001cf570  2**0
                  CONTENTS, READONLY, DEBUGGING, OCTETS

Disassembly of section .text:

080002cc <__do_global_dtors_aux>:
 80002cc:	b510      	push	{r4, lr}
 80002ce:	4c05      	ldr	r4, [pc, #20]	@ (80002e4 <__do_global_dtors_aux+0x18>)
 80002d0:	7823      	ldrb	r3, [r4, #0]
 80002d2:	b933      	cbnz	r3, 80002e2 <__do_global_dtors_aux+0x16>
 80002d4:	4b04      	ldr	r3, [pc, #16]	@ (80002e8 <__do_global_dtors_aux+0x1c>)
 80002d6:	b113      	cbz	r3, 80002de <__do_global_dtors_aux+0x12>
 80002d8:	4804      	ldr	r0, [pc, #16]	@ (80002ec <__do_global_dtors_aux+0x20>)
 80002da:	f3af 8000 	nop.w
 80002de:	2301      	movs	r3, #1
 80002e0:	7023      	strb	r3, [r4, #0]
 80002e2:	bd10      	pop	{r4, pc}
 80002e4:	24000104 	.word	0x24000104
 80002e8:	00000000 	.word	0x00000000
 80002ec:	08009cb0 	.word	0x08009cb0

080002f0 <frame_dummy>:
 80002f0:	b508      	push	{r3, lr}
 80002f2:	4b03      	ldr	r3, [pc, #12]	@ (8000300 <frame_dummy+0x10>)
 80002f4:	b11b      	cbz	r3, 80002fe <frame_dummy+0xe>
 80002f6:	4903      	ldr	r1, [pc, #12]	@ (8000304 <frame_dummy+0x14>)
 80002f8:	4803      	ldr	r0, [pc, #12]	@ (8000308 <frame_dummy+0x18>)
 80002fa:	f3af 8000 	nop.w
 80002fe:	bd08      	pop	{r3, pc}
 8000300:	00000000 	.word	0x00000000
 8000304:	24000108 	.word	0x24000108
 8000308:	08009cb0 	.word	0x08009cb0

0800030c <Hardware_GetJointPositionRad>:
     0.15f, 0.0f, 0.0f,  0.30f, -0.15f, 0.0f,
    -0.15f, 0.0f, 0.0f, -0.30f,  0.15f, 0.0f
};

void Hardware_GetJointPositionRad(float output[PROTOCOL_NUM_JOINTS])
{
 800030c:	b580      	push	{r7, lr}
 800030e:	b082      	sub	sp, #8
 8000310:	af00      	add	r7, sp, #0
 8000312:	6078      	str	r0, [r7, #4]
    memcpy(output, demo_pose, sizeof(demo_pose));
 8000314:	2230      	movs	r2, #48	@ 0x30
 8000316:	4904      	ldr	r1, [pc, #16]	@ (8000328 <Hardware_GetJointPositionRad+0x1c>)
 8000318:	6878      	ldr	r0, [r7, #4]
 800031a:	f009 fcbb 	bl	8009c94 <memcpy>
}
 800031e:	bf00      	nop
 8000320:	3708      	adds	r7, #8
 8000322:	46bd      	mov	sp, r7
 8000324:	bd80      	pop	{r7, pc}
 8000326:	bf00      	nop
 8000328:	08009cc8 	.word	0x08009cc8

0800032c <Hardware_GetJointVelocityRadS>:

void Hardware_GetJointVelocityRadS(float output[PROTOCOL_NUM_JOINTS])
{
 800032c:	b580      	push	{r7, lr}
 800032e:	b082      	sub	sp, #8
 8000330:	af00      	add	r7, sp, #0
 8000332:	6078      	str	r0, [r7, #4]
    memset(output, 0, sizeof(float) * PROTOCOL_NUM_JOINTS);
 8000334:	2230      	movs	r2, #48	@ 0x30
 8000336:	2100      	movs	r1, #0
 8000338:	6878      	ldr	r0, [r7, #4]
 800033a:	f009 fc7f 	bl	8009c3c <memset>
}
 800033e:	bf00      	nop
 8000340:	3708      	adds	r7, #8
 8000342:	46bd      	mov	sp, r7
 8000344:	bd80      	pop	{r7, pc}
	...

08000348 <Hardware_GetAccelerationMS2>:

void Hardware_GetAccelerationMS2(float output[3])
{
 8000348:	b480      	push	{r7}
 800034a:	b083      	sub	sp, #12
 800034c:	af00      	add	r7, sp, #0
 800034e:	6078      	str	r0, [r7, #4]
    output[0] = 0.0f;
 8000350:	687b      	ldr	r3, [r7, #4]
 8000352:	f04f 0200 	mov.w	r2, #0
 8000356:	601a      	str	r2, [r3, #0]
    output[1] = 0.0f;
 8000358:	687b      	ldr	r3, [r7, #4]
 800035a:	3304      	adds	r3, #4
 800035c:	f04f 0200 	mov.w	r2, #0
 8000360:	601a      	str	r2, [r3, #0]
    output[2] = 9.81f;
 8000362:	687b      	ldr	r3, [r7, #4]
 8000364:	3308      	adds	r3, #8
 8000366:	4a04      	ldr	r2, [pc, #16]	@ (8000378 <Hardware_GetAccelerationMS2+0x30>)
 8000368:	601a      	str	r2, [r3, #0]
}
 800036a:	bf00      	nop
 800036c:	370c      	adds	r7, #12
 800036e:	46bd      	mov	sp, r7
 8000370:	f85d 7b04 	ldr.w	r7, [sp], #4
 8000374:	4770      	bx	lr
 8000376:	bf00      	nop
 8000378:	411cf5c3 	.word	0x411cf5c3

0800037c <Hardware_GetGyroRadS>:

void Hardware_GetGyroRadS(float output[3])
{
 800037c:	b480      	push	{r7}
 800037e:	b083      	sub	sp, #12
 8000380:	af00      	add	r7, sp, #0
 8000382:	6078      	str	r0, [r7, #4]
    output[0] = 0.0f;
 8000384:	687b      	ldr	r3, [r7, #4]
 8000386:	f04f 0200 	mov.w	r2, #0
 800038a:	601a      	str	r2, [r3, #0]
    output[1] = 0.0f;
 800038c:	687b      	ldr	r3, [r7, #4]
 800038e:	3304      	adds	r3, #4
 8000390:	f04f 0200 	mov.w	r2, #0
 8000394:	601a      	str	r2, [r3, #0]
    output[2] = 0.0f;
 8000396:	687b      	ldr	r3, [r7, #4]
 8000398:	3308      	adds	r3, #8
 800039a:	f04f 0200 	mov.w	r2, #0
 800039e:	601a      	str	r2, [r3, #0]
}
 80003a0:	bf00      	nop
 80003a2:	370c      	adds	r7, #12
 80003a4:	46bd      	mov	sp, r7
 80003a6:	f85d 7b04 	ldr.w	r7, [sp], #4
 80003aa:	4770      	bx	lr

080003ac <Hardware_ImuDataValid>:

bool Hardware_ImuDataValid(void) { return true; }
 80003ac:	b480      	push	{r7}
 80003ae:	af00      	add	r7, sp, #0
 80003b0:	2301      	movs	r3, #1
 80003b2:	4618      	mov	r0, r3
 80003b4:	46bd      	mov	sp, r7
 80003b6:	f85d 7b04 	ldr.w	r7, [sp], #4
 80003ba:	4770      	bx	lr

080003bc <Hardware_EncodersDataValid>:
bool Hardware_EncodersDataValid(void) { return true; }
 80003bc:	b480      	push	{r7}
 80003be:	af00      	add	r7, sp, #0
 80003c0:	2301      	movs	r3, #1
 80003c2:	4618      	mov	r0, r3
 80003c4:	46bd      	mov	sp, r7
 80003c6:	f85d 7b04 	ldr.w	r7, [sp], #4
 80003ca:	4770      	bx	lr

080003cc <Hardware_MotorsHaveFault>:
bool Hardware_MotorsHaveFault(void) { return false; }
 80003cc:	b480      	push	{r7}
 80003ce:	af00      	add	r7, sp, #0
 80003d0:	2300      	movs	r3, #0
 80003d2:	4618      	mov	r0, r3
 80003d4:	46bd      	mov	sp, r7
 80003d6:	f85d 7b04 	ldr.w	r7, [sp], #4
 80003da:	4770      	bx	lr

080003dc <Hardware_MotorsAreEnabled>:
bool Hardware_MotorsAreEnabled(void) { return false; }
 80003dc:	b480      	push	{r7}
 80003de:	af00      	add	r7, sp, #0
 80003e0:	2300      	movs	r3, #0
 80003e2:	4618      	mov	r0, r3
 80003e4:	46bd      	mov	sp, r7
 80003e6:	f85d 7b04 	ldr.w	r7, [sp], #4
 80003ea:	4770      	bx	lr

080003ec <Hardware_MotorsSetPositionTargets>:
void Hardware_MotorsSetPositionTargets(
    const float q_des[PROTOCOL_NUM_JOINTS],
    float kp_scale,
    float kd_scale
)
{
 80003ec:	b480      	push	{r7}
 80003ee:	b085      	sub	sp, #20
 80003f0:	af00      	add	r7, sp, #0
 80003f2:	60f8      	str	r0, [r7, #12]
 80003f4:	ed87 0a02 	vstr	s0, [r7, #8]
 80003f8:	edc7 0a01 	vstr	s1, [r7, #4]
    (void)q_des;
    (void)kp_scale;
    (void)kd_scale;
    /* Intentionally no motor output. */
}
 80003fc:	bf00      	nop
 80003fe:	3714      	adds	r7, #20
 8000400:	46bd      	mov	sp, r7
 8000402:	f85d 7b04 	ldr.w	r7, [sp], #4
 8000406:	4770      	bx	lr

08000408 <Hardware_MotorsDisable>:

void Hardware_MotorsDisable(void)
{
 8000408:	b480      	push	{r7}
 800040a:	af00      	add	r7, sp, #0
    /* Intentionally no motor output. */
}
 800040c:	bf00      	nop
 800040e:	46bd      	mov	sp, r7
 8000410:	f85d 7b04 	ldr.w	r7, [sp], #4
 8000414:	4770      	bx	lr

08000416 <Hardware_Micros32>:

uint32_t Hardware_Micros32(void)
{
 8000416:	b580      	push	{r7, lr}
 8000418:	af00      	add	r7, sp, #0
    return HAL_GetTick() * 1000U;
 800041a:	f000 feeb 	bl	80011f4 <HAL_GetTick>
 800041e:	4603      	mov	r3, r0
 8000420:	f44f 727a 	mov.w	r2, #1000	@ 0x3e8
 8000424:	fb02 f303 	mul.w	r3, r2, r3
}
 8000428:	4618      	mov	r0, r3
 800042a:	bd80      	pop	{r7, pc}

0800042c <RobotApp_Control1kHz>:
static volatile bool state_transmit_due;
static volatile bool command_fresh;
static uint8_t state_divider;

static void RobotApp_Control1kHz(void)
{
 800042c:	b580      	push	{r7, lr}
 800042e:	b082      	sub	sp, #8
 8000430:	af00      	add	r7, sp, #0
    bool fresh = Protocol_GetFreshCommand(HAL_GetTick(), JETSON_WATCHDOG_MS, &active_command);
 8000432:	f000 fedf 	bl	80011f4 <HAL_GetTick>
 8000436:	4603      	mov	r3, r0
 8000438:	4a2c      	ldr	r2, [pc, #176]	@ (80004ec <RobotApp_Control1kHz+0xc0>)
 800043a:	2164      	movs	r1, #100	@ 0x64
 800043c:	4618      	mov	r0, r3
 800043e:	f000 fadd 	bl	80009fc <Protocol_GetFreshCommand>
 8000442:	4603      	mov	r3, r0
 8000444:	71fb      	strb	r3, [r7, #7]
    bool enabled = fresh && ((active_command.command_flags & COMMAND_ENABLE) != 0U);
 8000446:	79fb      	ldrb	r3, [r7, #7]
 8000448:	2b00      	cmp	r3, #0
 800044a:	d007      	beq.n	800045c <RobotApp_Control1kHz+0x30>
 800044c:	4b27      	ldr	r3, [pc, #156]	@ (80004ec <RobotApp_Control1kHz+0xc0>)
 800044e:	6bdb      	ldr	r3, [r3, #60]	@ 0x3c
 8000450:	f003 0301 	and.w	r3, r3, #1
 8000454:	2b00      	cmp	r3, #0
 8000456:	d001      	beq.n	800045c <RobotApp_Control1kHz+0x30>
 8000458:	2301      	movs	r3, #1
 800045a:	e000      	b.n	800045e <RobotApp_Control1kHz+0x32>
 800045c:	2300      	movs	r3, #0
 800045e:	71bb      	strb	r3, [r7, #6]
 8000460:	79bb      	ldrb	r3, [r7, #6]
 8000462:	f003 0301 	and.w	r3, r3, #1
 8000466:	71bb      	strb	r3, [r7, #6]
    bool estop = !fresh || ((active_command.command_flags & COMMAND_ESTOP) != 0U);
 8000468:	79fb      	ldrb	r3, [r7, #7]
 800046a:	f083 0301 	eor.w	r3, r3, #1
 800046e:	b2db      	uxtb	r3, r3
 8000470:	2b00      	cmp	r3, #0
 8000472:	d105      	bne.n	8000480 <RobotApp_Control1kHz+0x54>
 8000474:	4b1d      	ldr	r3, [pc, #116]	@ (80004ec <RobotApp_Control1kHz+0xc0>)
 8000476:	6bdb      	ldr	r3, [r3, #60]	@ 0x3c
 8000478:	f003 0302 	and.w	r3, r3, #2
 800047c:	2b00      	cmp	r3, #0
 800047e:	d001      	beq.n	8000484 <RobotApp_Control1kHz+0x58>
 8000480:	2301      	movs	r3, #1
 8000482:	e000      	b.n	8000486 <RobotApp_Control1kHz+0x5a>
 8000484:	2300      	movs	r3, #0
 8000486:	717b      	strb	r3, [r7, #5]
 8000488:	797b      	ldrb	r3, [r7, #5]
 800048a:	f003 0301 	and.w	r3, r3, #1
 800048e:	717b      	strb	r3, [r7, #5]

    command_fresh = fresh;
 8000490:	4a17      	ldr	r2, [pc, #92]	@ (80004f0 <RobotApp_Control1kHz+0xc4>)
 8000492:	79fb      	ldrb	r3, [r7, #7]
 8000494:	7013      	strb	r3, [r2, #0]
    if (estop || !enabled || Hardware_MotorsHaveFault()) {
 8000496:	797b      	ldrb	r3, [r7, #5]
 8000498:	2b00      	cmp	r3, #0
 800049a:	d10a      	bne.n	80004b2 <RobotApp_Control1kHz+0x86>
 800049c:	79bb      	ldrb	r3, [r7, #6]
 800049e:	f083 0301 	eor.w	r3, r3, #1
 80004a2:	b2db      	uxtb	r3, r3
 80004a4:	2b00      	cmp	r3, #0
 80004a6:	d104      	bne.n	80004b2 <RobotApp_Control1kHz+0x86>
 80004a8:	f7ff ff90 	bl	80003cc <Hardware_MotorsHaveFault>
 80004ac:	4603      	mov	r3, r0
 80004ae:	2b00      	cmp	r3, #0
 80004b0:	d007      	beq.n	80004c2 <RobotApp_Control1kHz+0x96>
        Hardware_MotorsDisable();
 80004b2:	f7ff ffa9 	bl	8000408 <Hardware_MotorsDisable>
        HAL_GPIO_WritePin(GPIOG, GPIO_PIN_7, GPIO_PIN_SET);  /* Active-low LED off. */
 80004b6:	2201      	movs	r2, #1
 80004b8:	2180      	movs	r1, #128	@ 0x80
 80004ba:	480e      	ldr	r0, [pc, #56]	@ (80004f4 <RobotApp_Control1kHz+0xc8>)
 80004bc:	f001 fa04 	bl	80018c8 <HAL_GPIO_WritePin>
        return;
 80004c0:	e011      	b.n	80004e6 <RobotApp_Control1kHz+0xba>
    }

    Hardware_MotorsSetPositionTargets(
 80004c2:	4b0a      	ldr	r3, [pc, #40]	@ (80004ec <RobotApp_Control1kHz+0xc0>)
 80004c4:	edd3 7a0d 	vldr	s15, [r3, #52]	@ 0x34
 80004c8:	4b08      	ldr	r3, [pc, #32]	@ (80004ec <RobotApp_Control1kHz+0xc0>)
 80004ca:	ed93 7a0e 	vldr	s14, [r3, #56]	@ 0x38
 80004ce:	eef0 0a47 	vmov.f32	s1, s14
 80004d2:	eeb0 0a67 	vmov.f32	s0, s15
 80004d6:	4808      	ldr	r0, [pc, #32]	@ (80004f8 <RobotApp_Control1kHz+0xcc>)
 80004d8:	f7ff ff88 	bl	80003ec <Hardware_MotorsSetPositionTargets>
        active_command.joint_target,
        active_command.kp_scale,
        active_command.kd_scale
    );
    HAL_GPIO_WritePin(GPIOG, GPIO_PIN_7, GPIO_PIN_RESET);    /* Active-low LED on. */
 80004dc:	2200      	movs	r2, #0
 80004de:	2180      	movs	r1, #128	@ 0x80
 80004e0:	4804      	ldr	r0, [pc, #16]	@ (80004f4 <RobotApp_Control1kHz+0xc8>)
 80004e2:	f001 f9f1 	bl	80018c8 <HAL_GPIO_WritePin>
}
 80004e6:	3708      	adds	r7, #8
 80004e8:	46bd      	mov	sp, r7
 80004ea:	bd80      	pop	{r7, pc}
 80004ec:	24000120 	.word	0x24000120
 80004f0:	24000161 	.word	0x24000161
 80004f4:	58021800 	.word	0x58021800
 80004f8:	24000124 	.word	0x24000124

080004fc <RobotApp_SendState>:

static void RobotApp_SendState(void)
{
 80004fc:	b580      	push	{r7, lr}
 80004fe:	b0a0      	sub	sp, #128	@ 0x80
 8000500:	af00      	add	r7, sp, #0
    RobotStatePayload state;
    memset(&state, 0, sizeof(state));
 8000502:	463b      	mov	r3, r7
 8000504:	2280      	movs	r2, #128	@ 0x80
 8000506:	2100      	movs	r1, #0
 8000508:	4618      	mov	r0, r3
 800050a:	f009 fb97 	bl	8009c3c <memset>
    state.timestamp_us = Hardware_Micros32();
 800050e:	f7ff ff82 	bl	8000416 <Hardware_Micros32>
 8000512:	4603      	mov	r3, r0
 8000514:	603b      	str	r3, [r7, #0]
    Hardware_GetJointPositionRad(state.joint_position);
 8000516:	463b      	mov	r3, r7
 8000518:	3304      	adds	r3, #4
 800051a:	4618      	mov	r0, r3
 800051c:	f7ff fef6 	bl	800030c <Hardware_GetJointPositionRad>
    Hardware_GetJointVelocityRadS(state.joint_velocity);
 8000520:	463b      	mov	r3, r7
 8000522:	3334      	adds	r3, #52	@ 0x34
 8000524:	4618      	mov	r0, r3
 8000526:	f7ff ff01 	bl	800032c <Hardware_GetJointVelocityRadS>
    Hardware_GetAccelerationMS2(state.accel_m_s2);
 800052a:	463b      	mov	r3, r7
 800052c:	3364      	adds	r3, #100	@ 0x64
 800052e:	4618      	mov	r0, r3
 8000530:	f7ff ff0a 	bl	8000348 <Hardware_GetAccelerationMS2>
    Hardware_GetGyroRadS(state.gyro_rad_s);
 8000534:	463b      	mov	r3, r7
 8000536:	3370      	adds	r3, #112	@ 0x70
 8000538:	4618      	mov	r0, r3
 800053a:	f7ff ff1f 	bl	800037c <Hardware_GetGyroRadS>

    if (Hardware_MotorsAreEnabled()) state.status_flags |= STATE_MOTORS_ENABLED;
 800053e:	f7ff ff4d 	bl	80003dc <Hardware_MotorsAreEnabled>
 8000542:	4603      	mov	r3, r0
 8000544:	2b00      	cmp	r3, #0
 8000546:	d003      	beq.n	8000550 <RobotApp_SendState+0x54>
 8000548:	6ffb      	ldr	r3, [r7, #124]	@ 0x7c
 800054a:	f043 0301 	orr.w	r3, r3, #1
 800054e:	67fb      	str	r3, [r7, #124]	@ 0x7c
    if (Hardware_MotorsHaveFault()) state.status_flags |= STATE_FAULT;
 8000550:	f7ff ff3c 	bl	80003cc <Hardware_MotorsHaveFault>
 8000554:	4603      	mov	r3, r0
 8000556:	2b00      	cmp	r3, #0
 8000558:	d003      	beq.n	8000562 <RobotApp_SendState+0x66>
 800055a:	6ffb      	ldr	r3, [r7, #124]	@ 0x7c
 800055c:	f043 0302 	orr.w	r3, r3, #2
 8000560:	67fb      	str	r3, [r7, #124]	@ 0x7c
    if (Hardware_ImuDataValid()) state.status_flags |= STATE_IMU_VALID;
 8000562:	f7ff ff23 	bl	80003ac <Hardware_ImuDataValid>
 8000566:	4603      	mov	r3, r0
 8000568:	2b00      	cmp	r3, #0
 800056a:	d003      	beq.n	8000574 <RobotApp_SendState+0x78>
 800056c:	6ffb      	ldr	r3, [r7, #124]	@ 0x7c
 800056e:	f043 0304 	orr.w	r3, r3, #4
 8000572:	67fb      	str	r3, [r7, #124]	@ 0x7c
    if (Hardware_EncodersDataValid()) state.status_flags |= STATE_ENCODERS_VALID;
 8000574:	f7ff ff22 	bl	80003bc <Hardware_EncodersDataValid>
 8000578:	4603      	mov	r3, r0
 800057a:	2b00      	cmp	r3, #0
 800057c:	d003      	beq.n	8000586 <RobotApp_SendState+0x8a>
 800057e:	6ffb      	ldr	r3, [r7, #124]	@ 0x7c
 8000580:	f043 0308 	orr.w	r3, r3, #8
 8000584:	67fb      	str	r3, [r7, #124]	@ 0x7c
    if (command_fresh) state.status_flags |= STATE_COMMAND_FRESH;
 8000586:	4b08      	ldr	r3, [pc, #32]	@ (80005a8 <RobotApp_SendState+0xac>)
 8000588:	781b      	ldrb	r3, [r3, #0]
 800058a:	b2db      	uxtb	r3, r3
 800058c:	2b00      	cmp	r3, #0
 800058e:	d003      	beq.n	8000598 <RobotApp_SendState+0x9c>
 8000590:	6ffb      	ldr	r3, [r7, #124]	@ 0x7c
 8000592:	f043 0310 	orr.w	r3, r3, #16
 8000596:	67fb      	str	r3, [r7, #124]	@ 0x7c

    (void)JetsonUsbCdc_SendState(&state);
 8000598:	463b      	mov	r3, r7
 800059a:	4618      	mov	r0, r3
 800059c:	f000 fada 	bl	8000b54 <JetsonUsbCdc_SendState>
}
 80005a0:	bf00      	nop
 80005a2:	3780      	adds	r7, #128	@ 0x80
 80005a4:	46bd      	mov	sp, r7
 80005a6:	bd80      	pop	{r7, pc}
 80005a8:	24000161 	.word	0x24000161

080005ac <RobotApp_Init>:

void RobotApp_Init(void)
{
 80005ac:	b580      	push	{r7, lr}
 80005ae:	af00      	add	r7, sp, #0
    Protocol_Init();
 80005b0:	f000 f986 	bl	80008c0 <Protocol_Init>
    memset(&active_command, 0, sizeof(active_command));
 80005b4:	2240      	movs	r2, #64	@ 0x40
 80005b6:	2100      	movs	r1, #0
 80005b8:	480a      	ldr	r0, [pc, #40]	@ (80005e4 <RobotApp_Init+0x38>)
 80005ba:	f009 fb3f 	bl	8009c3c <memset>
    state_transmit_due = false;
 80005be:	4b0a      	ldr	r3, [pc, #40]	@ (80005e8 <RobotApp_Init+0x3c>)
 80005c0:	2200      	movs	r2, #0
 80005c2:	701a      	strb	r2, [r3, #0]
    command_fresh = false;
 80005c4:	4b09      	ldr	r3, [pc, #36]	@ (80005ec <RobotApp_Init+0x40>)
 80005c6:	2200      	movs	r2, #0
 80005c8:	701a      	strb	r2, [r3, #0]
    state_divider = 0U;
 80005ca:	4b09      	ldr	r3, [pc, #36]	@ (80005f0 <RobotApp_Init+0x44>)
 80005cc:	2200      	movs	r2, #0
 80005ce:	701a      	strb	r2, [r3, #0]
    HAL_GPIO_WritePin(GPIOG, GPIO_PIN_7, GPIO_PIN_SET);
 80005d0:	2201      	movs	r2, #1
 80005d2:	2180      	movs	r1, #128	@ 0x80
 80005d4:	4807      	ldr	r0, [pc, #28]	@ (80005f4 <RobotApp_Init+0x48>)
 80005d6:	f001 f977 	bl	80018c8 <HAL_GPIO_WritePin>
    (void)HAL_TIM_Base_Start_IT(&htim6);
 80005da:	4807      	ldr	r0, [pc, #28]	@ (80005f8 <RobotApp_Init+0x4c>)
 80005dc:	f004 ff28 	bl	8005430 <HAL_TIM_Base_Start_IT>
}
 80005e0:	bf00      	nop
 80005e2:	bd80      	pop	{r7, pc}
 80005e4:	24000120 	.word	0x24000120
 80005e8:	24000160 	.word	0x24000160
 80005ec:	24000161 	.word	0x24000161
 80005f0:	24000162 	.word	0x24000162
 80005f4:	58021800 	.word	0x58021800
 80005f8:	24000450 	.word	0x24000450

080005fc <RobotApp_MainLoop>:

void RobotApp_MainLoop(void)
{
 80005fc:	b580      	push	{r7, lr}
 80005fe:	af00      	add	r7, sp, #0
    if (state_transmit_due) {
 8000600:	4b05      	ldr	r3, [pc, #20]	@ (8000618 <RobotApp_MainLoop+0x1c>)
 8000602:	781b      	ldrb	r3, [r3, #0]
 8000604:	b2db      	uxtb	r3, r3
 8000606:	2b00      	cmp	r3, #0
 8000608:	d004      	beq.n	8000614 <RobotApp_MainLoop+0x18>
        state_transmit_due = false;
 800060a:	4b03      	ldr	r3, [pc, #12]	@ (8000618 <RobotApp_MainLoop+0x1c>)
 800060c:	2200      	movs	r2, #0
 800060e:	701a      	strb	r2, [r3, #0]
        RobotApp_SendState();
 8000610:	f7ff ff74 	bl	80004fc <RobotApp_SendState>
    }
}
 8000614:	bf00      	nop
 8000616:	bd80      	pop	{r7, pc}
 8000618:	24000160 	.word	0x24000160

0800061c <RobotApp_OnUsbReceive>:

void RobotApp_OnUsbReceive(uint8_t *data, uint32_t length)
{
 800061c:	b580      	push	{r7, lr}
 800061e:	b082      	sub	sp, #8
 8000620:	af00      	add	r7, sp, #0
 8000622:	6078      	str	r0, [r7, #4]
 8000624:	6039      	str	r1, [r7, #0]
    JetsonUsbCdc_OnReceive(data, length, HAL_GetTick());
 8000626:	f000 fde5 	bl	80011f4 <HAL_GetTick>
 800062a:	4603      	mov	r3, r0
 800062c:	461a      	mov	r2, r3
 800062e:	6839      	ldr	r1, [r7, #0]
 8000630:	6878      	ldr	r0, [r7, #4]
 8000632:	f000 fa67 	bl	8000b04 <JetsonUsbCdc_OnReceive>
}
 8000636:	bf00      	nop
 8000638:	3708      	adds	r7, #8
 800063a:	46bd      	mov	sp, r7
 800063c:	bd80      	pop	{r7, pc}
	...

08000640 <HAL_TIM_PeriodElapsedCallback>:

void HAL_TIM_PeriodElapsedCallback(TIM_HandleTypeDef *htim)
{
 8000640:	b580      	push	{r7, lr}
 8000642:	b082      	sub	sp, #8
 8000644:	af00      	add	r7, sp, #0
 8000646:	6078      	str	r0, [r7, #4]
    if (htim->Instance == TIM6) {
 8000648:	687b      	ldr	r3, [r7, #4]
 800064a:	681b      	ldr	r3, [r3, #0]
 800064c:	4a0c      	ldr	r2, [pc, #48]	@ (8000680 <HAL_TIM_PeriodElapsedCallback+0x40>)
 800064e:	4293      	cmp	r3, r2
 8000650:	d111      	bne.n	8000676 <HAL_TIM_PeriodElapsedCallback+0x36>
        RobotApp_Control1kHz();
 8000652:	f7ff feeb 	bl	800042c <RobotApp_Control1kHz>
        if (++state_divider >= STATE_DIVIDER) {
 8000656:	4b0b      	ldr	r3, [pc, #44]	@ (8000684 <HAL_TIM_PeriodElapsedCallback+0x44>)
 8000658:	781b      	ldrb	r3, [r3, #0]
 800065a:	3301      	adds	r3, #1
 800065c:	b2da      	uxtb	r2, r3
 800065e:	4b09      	ldr	r3, [pc, #36]	@ (8000684 <HAL_TIM_PeriodElapsedCallback+0x44>)
 8000660:	701a      	strb	r2, [r3, #0]
 8000662:	4b08      	ldr	r3, [pc, #32]	@ (8000684 <HAL_TIM_PeriodElapsedCallback+0x44>)
 8000664:	781b      	ldrb	r3, [r3, #0]
 8000666:	2b04      	cmp	r3, #4
 8000668:	d905      	bls.n	8000676 <HAL_TIM_PeriodElapsedCallback+0x36>
            state_divider = 0U;
 800066a:	4b06      	ldr	r3, [pc, #24]	@ (8000684 <HAL_TIM_PeriodElapsedCallback+0x44>)
 800066c:	2200      	movs	r2, #0
 800066e:	701a      	strb	r2, [r3, #0]
            state_transmit_due = true;
 8000670:	4b05      	ldr	r3, [pc, #20]	@ (8000688 <HAL_TIM_PeriodElapsedCallback+0x48>)
 8000672:	2201      	movs	r2, #1
 8000674:	701a      	strb	r2, [r3, #0]
        }
    }
}
 8000676:	bf00      	nop
 8000678:	3708      	adds	r7, #8
 800067a:	46bd      	mov	sp, r7
 800067c:	bd80      	pop	{r7, pc}
 800067e:	bf00      	nop
 8000680:	40001000 	.word	0x40001000
 8000684:	24000162 	.word	0x24000162
 8000688:	24000160 	.word	0x24000160

0800068c <MX_GPIO_Init>:
        * Output
        * EVENT_OUT
        * EXTI
*/
void MX_GPIO_Init(void)
{
 800068c:	b580      	push	{r7, lr}
 800068e:	b08a      	sub	sp, #40	@ 0x28
 8000690:	af00      	add	r7, sp, #0

  GPIO_InitTypeDef GPIO_InitStruct = {0};
 8000692:	f107 0314 	add.w	r3, r7, #20
 8000696:	2200      	movs	r2, #0
 8000698:	601a      	str	r2, [r3, #0]
 800069a:	605a      	str	r2, [r3, #4]
 800069c:	609a      	str	r2, [r3, #8]
 800069e:	60da      	str	r2, [r3, #12]
 80006a0:	611a      	str	r2, [r3, #16]

  /* GPIO Ports Clock Enable */
  __HAL_RCC_GPIOC_CLK_ENABLE();
 80006a2:	4b29      	ldr	r3, [pc, #164]	@ (8000748 <MX_GPIO_Init+0xbc>)
 80006a4:	f8d3 30e0 	ldr.w	r3, [r3, #224]	@ 0xe0
 80006a8:	4a27      	ldr	r2, [pc, #156]	@ (8000748 <MX_GPIO_Init+0xbc>)
 80006aa:	f043 0304 	orr.w	r3, r3, #4
 80006ae:	f8c2 30e0 	str.w	r3, [r2, #224]	@ 0xe0
 80006b2:	4b25      	ldr	r3, [pc, #148]	@ (8000748 <MX_GPIO_Init+0xbc>)
 80006b4:	f8d3 30e0 	ldr.w	r3, [r3, #224]	@ 0xe0
 80006b8:	f003 0304 	and.w	r3, r3, #4
 80006bc:	613b      	str	r3, [r7, #16]
 80006be:	693b      	ldr	r3, [r7, #16]
  __HAL_RCC_GPIOH_CLK_ENABLE();
 80006c0:	4b21      	ldr	r3, [pc, #132]	@ (8000748 <MX_GPIO_Init+0xbc>)
 80006c2:	f8d3 30e0 	ldr.w	r3, [r3, #224]	@ 0xe0
 80006c6:	4a20      	ldr	r2, [pc, #128]	@ (8000748 <MX_GPIO_Init+0xbc>)
 80006c8:	f043 0380 	orr.w	r3, r3, #128	@ 0x80
 80006cc:	f8c2 30e0 	str.w	r3, [r2, #224]	@ 0xe0
 80006d0:	4b1d      	ldr	r3, [pc, #116]	@ (8000748 <MX_GPIO_Init+0xbc>)
 80006d2:	f8d3 30e0 	ldr.w	r3, [r3, #224]	@ 0xe0
 80006d6:	f003 0380 	and.w	r3, r3, #128	@ 0x80
 80006da:	60fb      	str	r3, [r7, #12]
 80006dc:	68fb      	ldr	r3, [r7, #12]
  __HAL_RCC_GPIOG_CLK_ENABLE();
 80006de:	4b1a      	ldr	r3, [pc, #104]	@ (8000748 <MX_GPIO_Init+0xbc>)
 80006e0:	f8d3 30e0 	ldr.w	r3, [r3, #224]	@ 0xe0
 80006e4:	4a18      	ldr	r2, [pc, #96]	@ (8000748 <MX_GPIO_Init+0xbc>)
 80006e6:	f043 0340 	orr.w	r3, r3, #64	@ 0x40
 80006ea:	f8c2 30e0 	str.w	r3, [r2, #224]	@ 0xe0
 80006ee:	4b16      	ldr	r3, [pc, #88]	@ (8000748 <MX_GPIO_Init+0xbc>)
 80006f0:	f8d3 30e0 	ldr.w	r3, [r3, #224]	@ 0xe0
 80006f4:	f003 0340 	and.w	r3, r3, #64	@ 0x40
 80006f8:	60bb      	str	r3, [r7, #8]
 80006fa:	68bb      	ldr	r3, [r7, #8]
  __HAL_RCC_GPIOA_CLK_ENABLE();
 80006fc:	4b12      	ldr	r3, [pc, #72]	@ (8000748 <MX_GPIO_Init+0xbc>)
 80006fe:	f8d3 30e0 	ldr.w	r3, [r3, #224]	@ 0xe0
 8000702:	4a11      	ldr	r2, [pc, #68]	@ (8000748 <MX_GPIO_Init+0xbc>)
 8000704:	f043 0301 	orr.w	r3, r3, #1
 8000708:	f8c2 30e0 	str.w	r3, [r2, #224]	@ 0xe0
 800070c:	4b0e      	ldr	r3, [pc, #56]	@ (8000748 <MX_GPIO_Init+0xbc>)
 800070e:	f8d3 30e0 	ldr.w	r3, [r3, #224]	@ 0xe0
 8000712:	f003 0301 	and.w	r3, r3, #1
 8000716:	607b      	str	r3, [r7, #4]
 8000718:	687b      	ldr	r3, [r7, #4]

  /*Configure GPIO pin Output Level */
  HAL_GPIO_WritePin(LED_BLUE_GPIO_Port, LED_BLUE_Pin, GPIO_PIN_SET);
 800071a:	2201      	movs	r2, #1
 800071c:	2180      	movs	r1, #128	@ 0x80
 800071e:	480b      	ldr	r0, [pc, #44]	@ (800074c <MX_GPIO_Init+0xc0>)
 8000720:	f001 f8d2 	bl	80018c8 <HAL_GPIO_WritePin>

  /*Configure GPIO pin : LED_BLUE_Pin */
  GPIO_InitStruct.Pin = LED_BLUE_Pin;
 8000724:	2380      	movs	r3, #128	@ 0x80
 8000726:	617b      	str	r3, [r7, #20]
  GPIO_InitStruct.Mode = GPIO_MODE_OUTPUT_PP;
 8000728:	2301      	movs	r3, #1
 800072a:	61bb      	str	r3, [r7, #24]
  GPIO_InitStruct.Pull = GPIO_NOPULL;
 800072c:	2300      	movs	r3, #0
 800072e:	61fb      	str	r3, [r7, #28]
  GPIO_InitStruct.Speed = GPIO_SPEED_FREQ_LOW;
 8000730:	2300      	movs	r3, #0
 8000732:	623b      	str	r3, [r7, #32]
  HAL_GPIO_Init(LED_BLUE_GPIO_Port, &GPIO_InitStruct);
 8000734:	f107 0314 	add.w	r3, r7, #20
 8000738:	4619      	mov	r1, r3
 800073a:	4804      	ldr	r0, [pc, #16]	@ (800074c <MX_GPIO_Init+0xc0>)
 800073c:	f000 ff12 	bl	8001564 <HAL_GPIO_Init>

}
 8000740:	bf00      	nop
 8000742:	3728      	adds	r7, #40	@ 0x28
 8000744:	46bd      	mov	sp, r7
 8000746:	bd80      	pop	{r7, pc}
 8000748:	58024400 	.word	0x58024400
 800074c:	58021800 	.word	0x58021800

08000750 <crc16_ccitt>:
static volatile bool command_available;
static volatile uint32_t crc_error_count;
static uint16_t tx_sequence;

static uint16_t crc16_ccitt(const uint8_t *data, uint16_t length)
{
 8000750:	b480      	push	{r7}
 8000752:	b085      	sub	sp, #20
 8000754:	af00      	add	r7, sp, #0
 8000756:	6078      	str	r0, [r7, #4]
 8000758:	460b      	mov	r3, r1
 800075a:	807b      	strh	r3, [r7, #2]
    uint16_t crc = 0xFFFFU;
 800075c:	f64f 73ff 	movw	r3, #65535	@ 0xffff
 8000760:	81fb      	strh	r3, [r7, #14]
    uint16_t index;
    uint8_t bit;
    for (index = 0U; index < length; ++index) {
 8000762:	2300      	movs	r3, #0
 8000764:	81bb      	strh	r3, [r7, #12]
 8000766:	e027      	b.n	80007b8 <crc16_ccitt+0x68>
        crc ^= (uint16_t)data[index] << 8;
 8000768:	89bb      	ldrh	r3, [r7, #12]
 800076a:	687a      	ldr	r2, [r7, #4]
 800076c:	4413      	add	r3, r2
 800076e:	781b      	ldrb	r3, [r3, #0]
 8000770:	b21b      	sxth	r3, r3
 8000772:	021b      	lsls	r3, r3, #8
 8000774:	b21a      	sxth	r2, r3
 8000776:	f9b7 300e 	ldrsh.w	r3, [r7, #14]
 800077a:	4053      	eors	r3, r2
 800077c:	b21b      	sxth	r3, r3
 800077e:	81fb      	strh	r3, [r7, #14]
        for (bit = 0U; bit < 8U; ++bit) {
 8000780:	2300      	movs	r3, #0
 8000782:	72fb      	strb	r3, [r7, #11]
 8000784:	e012      	b.n	80007ac <crc16_ccitt+0x5c>
            crc = (crc & 0x8000U) ? (uint16_t)((crc << 1) ^ 0x1021U) : (uint16_t)(crc << 1);
 8000786:	f9b7 300e 	ldrsh.w	r3, [r7, #14]
 800078a:	2b00      	cmp	r3, #0
 800078c:	da07      	bge.n	800079e <crc16_ccitt+0x4e>
 800078e:	89fb      	ldrh	r3, [r7, #14]
 8000790:	005b      	lsls	r3, r3, #1
 8000792:	b29a      	uxth	r2, r3
 8000794:	f241 0321 	movw	r3, #4129	@ 0x1021
 8000798:	4053      	eors	r3, r2
 800079a:	b29b      	uxth	r3, r3
 800079c:	e002      	b.n	80007a4 <crc16_ccitt+0x54>
 800079e:	89fb      	ldrh	r3, [r7, #14]
 80007a0:	005b      	lsls	r3, r3, #1
 80007a2:	b29b      	uxth	r3, r3
 80007a4:	81fb      	strh	r3, [r7, #14]
        for (bit = 0U; bit < 8U; ++bit) {
 80007a6:	7afb      	ldrb	r3, [r7, #11]
 80007a8:	3301      	adds	r3, #1
 80007aa:	72fb      	strb	r3, [r7, #11]
 80007ac:	7afb      	ldrb	r3, [r7, #11]
 80007ae:	2b07      	cmp	r3, #7
 80007b0:	d9e9      	bls.n	8000786 <crc16_ccitt+0x36>
    for (index = 0U; index < length; ++index) {
 80007b2:	89bb      	ldrh	r3, [r7, #12]
 80007b4:	3301      	adds	r3, #1
 80007b6:	81bb      	strh	r3, [r7, #12]
 80007b8:	89ba      	ldrh	r2, [r7, #12]
 80007ba:	887b      	ldrh	r3, [r7, #2]
 80007bc:	429a      	cmp	r2, r3
 80007be:	d3d3      	bcc.n	8000768 <crc16_ccitt+0x18>
        }
    }
    return crc;
 80007c0:	89fb      	ldrh	r3, [r7, #14]
}
 80007c2:	4618      	mov	r0, r3
 80007c4:	3714      	adds	r7, #20
 80007c6:	46bd      	mov	sp, r7
 80007c8:	f85d 7b04 	ldr.w	r7, [sp], #4
 80007cc:	4770      	bx	lr
	...

080007d0 <reset_rx>:

static void reset_rx(void)
{
 80007d0:	b480      	push	{r7}
 80007d2:	af00      	add	r7, sp, #0
    rx_length = 0U;
 80007d4:	4b05      	ldr	r3, [pc, #20]	@ (80007ec <reset_rx+0x1c>)
 80007d6:	2200      	movs	r2, #0
 80007d8:	801a      	strh	r2, [r3, #0]
    rx_expected_length = 0U;
 80007da:	4b05      	ldr	r3, [pc, #20]	@ (80007f0 <reset_rx+0x20>)
 80007dc:	2200      	movs	r2, #0
 80007de:	801a      	strh	r2, [r3, #0]
}
 80007e0:	bf00      	nop
 80007e2:	46bd      	mov	sp, r7
 80007e4:	f85d 7b04 	ldr.w	r7, [sp], #4
 80007e8:	4770      	bx	lr
 80007ea:	bf00      	nop
 80007ec:	2400036e 	.word	0x2400036e
 80007f0:	24000370 	.word	0x24000370

080007f4 <process_complete_frame>:

static void process_complete_frame(uint32_t now_ms)
{
 80007f4:	b5b0      	push	{r4, r5, r7, lr}
 80007f6:	b096      	sub	sp, #88	@ 0x58
 80007f8:	af00      	add	r7, sp, #0
 80007fa:	6078      	str	r0, [r7, #4]
    ProtocolHeader header;
    uint16_t received_crc;
    uint16_t computed_crc;

    memcpy(&header, rx_frame, HEADER_SIZE);
 80007fc:	4a2a      	ldr	r2, [pc, #168]	@ (80008a8 <process_complete_frame+0xb4>)
 80007fe:	f107 034c 	add.w	r3, r7, #76	@ 0x4c
 8000802:	e892 0003 	ldmia.w	r2, {r0, r1}
 8000806:	e883 0003 	stmia.w	r3, {r0, r1}
    memcpy(&received_crc, &rx_frame[HEADER_SIZE + header.payload_length], CRC_SIZE);
 800080a:	f8b7 3050 	ldrh.w	r3, [r7, #80]	@ 0x50
 800080e:	3308      	adds	r3, #8
 8000810:	4a25      	ldr	r2, [pc, #148]	@ (80008a8 <process_complete_frame+0xb4>)
 8000812:	4413      	add	r3, r2
 8000814:	881b      	ldrh	r3, [r3, #0]
 8000816:	b29b      	uxth	r3, r3
 8000818:	f8a7 304a 	strh.w	r3, [r7, #74]	@ 0x4a
    computed_crc = crc16_ccitt(&rx_frame[2], (uint16_t)(HEADER_SIZE - 2U + header.payload_length));
 800081c:	f8b7 3050 	ldrh.w	r3, [r7, #80]	@ 0x50
 8000820:	3306      	adds	r3, #6
 8000822:	b29b      	uxth	r3, r3
 8000824:	4619      	mov	r1, r3
 8000826:	4821      	ldr	r0, [pc, #132]	@ (80008ac <process_complete_frame+0xb8>)
 8000828:	f7ff ff92 	bl	8000750 <crc16_ccitt>
 800082c:	4603      	mov	r3, r0
 800082e:	f8a7 3056 	strh.w	r3, [r7, #86]	@ 0x56
    if (received_crc != computed_crc) {
 8000832:	f8b7 304a 	ldrh.w	r3, [r7, #74]	@ 0x4a
 8000836:	f8b7 2056 	ldrh.w	r2, [r7, #86]	@ 0x56
 800083a:	429a      	cmp	r2, r3
 800083c:	d005      	beq.n	800084a <process_complete_frame+0x56>
        ++crc_error_count;
 800083e:	4b1c      	ldr	r3, [pc, #112]	@ (80008b0 <process_complete_frame+0xbc>)
 8000840:	681b      	ldr	r3, [r3, #0]
 8000842:	3301      	adds	r3, #1
 8000844:	4a1a      	ldr	r2, [pc, #104]	@ (80008b0 <process_complete_frame+0xbc>)
 8000846:	6013      	str	r3, [r2, #0]
 8000848:	e02a      	b.n	80008a0 <process_complete_frame+0xac>
        return;
    }

    if ((header.message_type == PROTOCOL_MSG_COMMAND) &&
 800084a:	f897 304f 	ldrb.w	r3, [r7, #79]	@ 0x4f
 800084e:	2b02      	cmp	r3, #2
 8000850:	d126      	bne.n	80008a0 <process_complete_frame+0xac>
        (header.payload_length == sizeof(RobotCommandPayload))) {
 8000852:	f8b7 3050 	ldrh.w	r3, [r7, #80]	@ 0x50
    if ((header.message_type == PROTOCOL_MSG_COMMAND) &&
 8000856:	2b40      	cmp	r3, #64	@ 0x40
 8000858:	d122      	bne.n	80008a0 <process_complete_frame+0xac>
        RobotCommandPayload temporary;
        memcpy(&temporary, &rx_frame[HEADER_SIZE], sizeof(temporary));
 800085a:	4b13      	ldr	r3, [pc, #76]	@ (80008a8 <process_complete_frame+0xb4>)
 800085c:	f107 0408 	add.w	r4, r7, #8
 8000860:	f103 0508 	add.w	r5, r3, #8
 8000864:	cd0f      	ldmia	r5!, {r0, r1, r2, r3}
 8000866:	c40f      	stmia	r4!, {r0, r1, r2, r3}
 8000868:	cd0f      	ldmia	r5!, {r0, r1, r2, r3}
 800086a:	c40f      	stmia	r4!, {r0, r1, r2, r3}
 800086c:	cd0f      	ldmia	r5!, {r0, r1, r2, r3}
 800086e:	c40f      	stmia	r4!, {r0, r1, r2, r3}
 8000870:	e895 000f 	ldmia.w	r5, {r0, r1, r2, r3}
 8000874:	e884 000f 	stmia.w	r4, {r0, r1, r2, r3}
        latest_command = temporary;
 8000878:	4b0e      	ldr	r3, [pc, #56]	@ (80008b4 <process_complete_frame+0xc0>)
 800087a:	461d      	mov	r5, r3
 800087c:	f107 0408 	add.w	r4, r7, #8
 8000880:	cc0f      	ldmia	r4!, {r0, r1, r2, r3}
 8000882:	c50f      	stmia	r5!, {r0, r1, r2, r3}
 8000884:	cc0f      	ldmia	r4!, {r0, r1, r2, r3}
 8000886:	c50f      	stmia	r5!, {r0, r1, r2, r3}
 8000888:	cc0f      	ldmia	r4!, {r0, r1, r2, r3}
 800088a:	c50f      	stmia	r5!, {r0, r1, r2, r3}
 800088c:	e894 000f 	ldmia.w	r4, {r0, r1, r2, r3}
 8000890:	e885 000f 	stmia.w	r5, {r0, r1, r2, r3}
        latest_command_ms = now_ms;
 8000894:	4a08      	ldr	r2, [pc, #32]	@ (80008b8 <process_complete_frame+0xc4>)
 8000896:	687b      	ldr	r3, [r7, #4]
 8000898:	6013      	str	r3, [r2, #0]
        command_available = true;
 800089a:	4b08      	ldr	r3, [pc, #32]	@ (80008bc <process_complete_frame+0xc8>)
 800089c:	2201      	movs	r2, #1
 800089e:	701a      	strb	r2, [r3, #0]
    }
}
 80008a0:	3758      	adds	r7, #88	@ 0x58
 80008a2:	46bd      	mov	sp, r7
 80008a4:	bdb0      	pop	{r4, r5, r7, pc}
 80008a6:	bf00      	nop
 80008a8:	24000164 	.word	0x24000164
 80008ac:	24000166 	.word	0x24000166
 80008b0:	240003bc 	.word	0x240003bc
 80008b4:	24000374 	.word	0x24000374
 80008b8:	240003b4 	.word	0x240003b4
 80008bc:	240003b8 	.word	0x240003b8

080008c0 <Protocol_Init>:

void Protocol_Init(void)
{
 80008c0:	b580      	push	{r7, lr}
 80008c2:	af00      	add	r7, sp, #0
    reset_rx();
 80008c4:	f7ff ff84 	bl	80007d0 <reset_rx>
    memset(&latest_command, 0, sizeof(latest_command));
 80008c8:	2240      	movs	r2, #64	@ 0x40
 80008ca:	2100      	movs	r1, #0
 80008cc:	4808      	ldr	r0, [pc, #32]	@ (80008f0 <Protocol_Init+0x30>)
 80008ce:	f009 f9b5 	bl	8009c3c <memset>
    command_available = false;
 80008d2:	4b08      	ldr	r3, [pc, #32]	@ (80008f4 <Protocol_Init+0x34>)
 80008d4:	2200      	movs	r2, #0
 80008d6:	701a      	strb	r2, [r3, #0]
    latest_command_ms = 0U;
 80008d8:	4b07      	ldr	r3, [pc, #28]	@ (80008f8 <Protocol_Init+0x38>)
 80008da:	2200      	movs	r2, #0
 80008dc:	601a      	str	r2, [r3, #0]
    crc_error_count = 0U;
 80008de:	4b07      	ldr	r3, [pc, #28]	@ (80008fc <Protocol_Init+0x3c>)
 80008e0:	2200      	movs	r2, #0
 80008e2:	601a      	str	r2, [r3, #0]
    tx_sequence = 0U;
 80008e4:	4b06      	ldr	r3, [pc, #24]	@ (8000900 <Protocol_Init+0x40>)
 80008e6:	2200      	movs	r2, #0
 80008e8:	801a      	strh	r2, [r3, #0]
}
 80008ea:	bf00      	nop
 80008ec:	bd80      	pop	{r7, pc}
 80008ee:	bf00      	nop
 80008f0:	24000374 	.word	0x24000374
 80008f4:	240003b8 	.word	0x240003b8
 80008f8:	240003b4 	.word	0x240003b4
 80008fc:	240003bc 	.word	0x240003bc
 8000900:	240003c0 	.word	0x240003c0

08000904 <Protocol_RxBytes>:

void Protocol_RxBytes(const uint8_t *data, uint16_t length, uint32_t now_ms)
{
 8000904:	b580      	push	{r7, lr}
 8000906:	b088      	sub	sp, #32
 8000908:	af00      	add	r7, sp, #0
 800090a:	60f8      	str	r0, [r7, #12]
 800090c:	460b      	mov	r3, r1
 800090e:	607a      	str	r2, [r7, #4]
 8000910:	817b      	strh	r3, [r7, #10]
    uint16_t input_index;
    for (input_index = 0U; input_index < length; ++input_index) {
 8000912:	2300      	movs	r3, #0
 8000914:	83fb      	strh	r3, [r7, #30]
 8000916:	e061      	b.n	80009dc <Protocol_RxBytes+0xd8>
        uint8_t byte = data[input_index];
 8000918:	8bfb      	ldrh	r3, [r7, #30]
 800091a:	68fa      	ldr	r2, [r7, #12]
 800091c:	4413      	add	r3, r2
 800091e:	781b      	ldrb	r3, [r3, #0]
 8000920:	777b      	strb	r3, [r7, #29]

        if ((rx_length == 0U) && (byte != MAGIC_BYTE_0)) {
 8000922:	4b33      	ldr	r3, [pc, #204]	@ (80009f0 <Protocol_RxBytes+0xec>)
 8000924:	881b      	ldrh	r3, [r3, #0]
 8000926:	2b00      	cmp	r3, #0
 8000928:	d102      	bne.n	8000930 <Protocol_RxBytes+0x2c>
 800092a:	7f7b      	ldrb	r3, [r7, #29]
 800092c:	2b5a      	cmp	r3, #90	@ 0x5a
 800092e:	d151      	bne.n	80009d4 <Protocol_RxBytes+0xd0>
            continue;
        }
        if ((rx_length == 1U) && (byte != MAGIC_BYTE_1)) {
 8000930:	4b2f      	ldr	r3, [pc, #188]	@ (80009f0 <Protocol_RxBytes+0xec>)
 8000932:	881b      	ldrh	r3, [r3, #0]
 8000934:	2b01      	cmp	r3, #1
 8000936:	d10b      	bne.n	8000950 <Protocol_RxBytes+0x4c>
 8000938:	7f7b      	ldrb	r3, [r7, #29]
 800093a:	2ba5      	cmp	r3, #165	@ 0xa5
 800093c:	d008      	beq.n	8000950 <Protocol_RxBytes+0x4c>
            rx_length = (byte == MAGIC_BYTE_0) ? 1U : 0U;
 800093e:	7f7b      	ldrb	r3, [r7, #29]
 8000940:	2b5a      	cmp	r3, #90	@ 0x5a
 8000942:	d101      	bne.n	8000948 <Protocol_RxBytes+0x44>
 8000944:	2201      	movs	r2, #1
 8000946:	e000      	b.n	800094a <Protocol_RxBytes+0x46>
 8000948:	2200      	movs	r2, #0
 800094a:	4b29      	ldr	r3, [pc, #164]	@ (80009f0 <Protocol_RxBytes+0xec>)
 800094c:	801a      	strh	r2, [r3, #0]
            continue;
 800094e:	e042      	b.n	80009d6 <Protocol_RxBytes+0xd2>
        }

        rx_frame[rx_length++] = byte;
 8000950:	4b27      	ldr	r3, [pc, #156]	@ (80009f0 <Protocol_RxBytes+0xec>)
 8000952:	881b      	ldrh	r3, [r3, #0]
 8000954:	1c5a      	adds	r2, r3, #1
 8000956:	b291      	uxth	r1, r2
 8000958:	4a25      	ldr	r2, [pc, #148]	@ (80009f0 <Protocol_RxBytes+0xec>)
 800095a:	8011      	strh	r1, [r2, #0]
 800095c:	4619      	mov	r1, r3
 800095e:	4a25      	ldr	r2, [pc, #148]	@ (80009f4 <Protocol_RxBytes+0xf0>)
 8000960:	7f7b      	ldrb	r3, [r7, #29]
 8000962:	5453      	strb	r3, [r2, r1]

        if (rx_length == HEADER_SIZE) {
 8000964:	4b22      	ldr	r3, [pc, #136]	@ (80009f0 <Protocol_RxBytes+0xec>)
 8000966:	881b      	ldrh	r3, [r3, #0]
 8000968:	2b08      	cmp	r3, #8
 800096a:	d11a      	bne.n	80009a2 <Protocol_RxBytes+0x9e>
            ProtocolHeader header;
            memcpy(&header, rx_frame, HEADER_SIZE);
 800096c:	4a21      	ldr	r2, [pc, #132]	@ (80009f4 <Protocol_RxBytes+0xf0>)
 800096e:	f107 0314 	add.w	r3, r7, #20
 8000972:	e892 0003 	ldmia.w	r2, {r0, r1}
 8000976:	e883 0003 	stmia.w	r3, {r0, r1}
            if ((header.magic != PROTOCOL_MAGIC) ||
 800097a:	8abb      	ldrh	r3, [r7, #20]
 800097c:	f24a 525a 	movw	r2, #42330	@ 0xa55a
 8000980:	4293      	cmp	r3, r2
 8000982:	d106      	bne.n	8000992 <Protocol_RxBytes+0x8e>
                (header.version != PROTOCOL_VERSION) ||
 8000984:	7dbb      	ldrb	r3, [r7, #22]
            if ((header.magic != PROTOCOL_MAGIC) ||
 8000986:	2b01      	cmp	r3, #1
 8000988:	d103      	bne.n	8000992 <Protocol_RxBytes+0x8e>
                (header.payload_length > MAX_PAYLOAD_SIZE)) {
 800098a:	8b3b      	ldrh	r3, [r7, #24]
                (header.version != PROTOCOL_VERSION) ||
 800098c:	f5b3 7f00 	cmp.w	r3, #512	@ 0x200
 8000990:	d902      	bls.n	8000998 <Protocol_RxBytes+0x94>
                reset_rx();
 8000992:	f7ff ff1d 	bl	80007d0 <reset_rx>
 8000996:	e01e      	b.n	80009d6 <Protocol_RxBytes+0xd2>
                continue;
            }
            rx_expected_length = (uint16_t)(HEADER_SIZE + header.payload_length + CRC_SIZE);
 8000998:	8b3b      	ldrh	r3, [r7, #24]
 800099a:	330a      	adds	r3, #10
 800099c:	b29a      	uxth	r2, r3
 800099e:	4b16      	ldr	r3, [pc, #88]	@ (80009f8 <Protocol_RxBytes+0xf4>)
 80009a0:	801a      	strh	r2, [r3, #0]
        }

        if ((rx_expected_length != 0U) && (rx_length == rx_expected_length)) {
 80009a2:	4b15      	ldr	r3, [pc, #84]	@ (80009f8 <Protocol_RxBytes+0xf4>)
 80009a4:	881b      	ldrh	r3, [r3, #0]
 80009a6:	2b00      	cmp	r3, #0
 80009a8:	d00b      	beq.n	80009c2 <Protocol_RxBytes+0xbe>
 80009aa:	4b11      	ldr	r3, [pc, #68]	@ (80009f0 <Protocol_RxBytes+0xec>)
 80009ac:	881a      	ldrh	r2, [r3, #0]
 80009ae:	4b12      	ldr	r3, [pc, #72]	@ (80009f8 <Protocol_RxBytes+0xf4>)
 80009b0:	881b      	ldrh	r3, [r3, #0]
 80009b2:	429a      	cmp	r2, r3
 80009b4:	d105      	bne.n	80009c2 <Protocol_RxBytes+0xbe>
            process_complete_frame(now_ms);
 80009b6:	6878      	ldr	r0, [r7, #4]
 80009b8:	f7ff ff1c 	bl	80007f4 <process_complete_frame>
            reset_rx();
 80009bc:	f7ff ff08 	bl	80007d0 <reset_rx>
 80009c0:	e009      	b.n	80009d6 <Protocol_RxBytes+0xd2>
        } else if (rx_length >= MAX_FRAME_SIZE) {
 80009c2:	4b0b      	ldr	r3, [pc, #44]	@ (80009f0 <Protocol_RxBytes+0xec>)
 80009c4:	881b      	ldrh	r3, [r3, #0]
 80009c6:	f240 2209 	movw	r2, #521	@ 0x209
 80009ca:	4293      	cmp	r3, r2
 80009cc:	d903      	bls.n	80009d6 <Protocol_RxBytes+0xd2>
            reset_rx();
 80009ce:	f7ff feff 	bl	80007d0 <reset_rx>
 80009d2:	e000      	b.n	80009d6 <Protocol_RxBytes+0xd2>
            continue;
 80009d4:	bf00      	nop
    for (input_index = 0U; input_index < length; ++input_index) {
 80009d6:	8bfb      	ldrh	r3, [r7, #30]
 80009d8:	3301      	adds	r3, #1
 80009da:	83fb      	strh	r3, [r7, #30]
 80009dc:	8bfa      	ldrh	r2, [r7, #30]
 80009de:	897b      	ldrh	r3, [r7, #10]
 80009e0:	429a      	cmp	r2, r3
 80009e2:	d399      	bcc.n	8000918 <Protocol_RxBytes+0x14>
        }
    }
}
 80009e4:	bf00      	nop
 80009e6:	bf00      	nop
 80009e8:	3720      	adds	r7, #32
 80009ea:	46bd      	mov	sp, r7
 80009ec:	bd80      	pop	{r7, pc}
 80009ee:	bf00      	nop
 80009f0:	2400036e 	.word	0x2400036e
 80009f4:	24000164 	.word	0x24000164
 80009f8:	24000370 	.word	0x24000370

080009fc <Protocol_GetFreshCommand>:

bool Protocol_GetFreshCommand(uint32_t now_ms, uint32_t maximum_age_ms, RobotCommandPayload *output)
{
 80009fc:	b5f0      	push	{r4, r5, r6, r7, lr}
 80009fe:	b087      	sub	sp, #28
 8000a00:	af00      	add	r7, sp, #0
 8000a02:	60f8      	str	r0, [r7, #12]
 8000a04:	60b9      	str	r1, [r7, #8]
 8000a06:	607a      	str	r2, [r7, #4]
  \details Disables IRQ interrupts by setting special-purpose register PRIMASK.
           Can only be executed in Privileged modes.
 */
__STATIC_FORCEINLINE void __disable_irq(void)
{
  __ASM volatile ("cpsid i" : : : "memory");
 8000a08:	b672      	cpsid	i
}
 8000a0a:	bf00      	nop
    bool valid;
    __disable_irq();
    valid = command_available && ((uint32_t)(now_ms - latest_command_ms) <= maximum_age_ms);
 8000a0c:	4b17      	ldr	r3, [pc, #92]	@ (8000a6c <Protocol_GetFreshCommand+0x70>)
 8000a0e:	781b      	ldrb	r3, [r3, #0]
 8000a10:	b2db      	uxtb	r3, r3
 8000a12:	2b00      	cmp	r3, #0
 8000a14:	d008      	beq.n	8000a28 <Protocol_GetFreshCommand+0x2c>
 8000a16:	4b16      	ldr	r3, [pc, #88]	@ (8000a70 <Protocol_GetFreshCommand+0x74>)
 8000a18:	681b      	ldr	r3, [r3, #0]
 8000a1a:	68fa      	ldr	r2, [r7, #12]
 8000a1c:	1ad3      	subs	r3, r2, r3
 8000a1e:	68ba      	ldr	r2, [r7, #8]
 8000a20:	429a      	cmp	r2, r3
 8000a22:	d301      	bcc.n	8000a28 <Protocol_GetFreshCommand+0x2c>
 8000a24:	2301      	movs	r3, #1
 8000a26:	e000      	b.n	8000a2a <Protocol_GetFreshCommand+0x2e>
 8000a28:	2300      	movs	r3, #0
 8000a2a:	75fb      	strb	r3, [r7, #23]
 8000a2c:	7dfb      	ldrb	r3, [r7, #23]
 8000a2e:	f003 0301 	and.w	r3, r3, #1
 8000a32:	75fb      	strb	r3, [r7, #23]
    if (valid) {
 8000a34:	7dfb      	ldrb	r3, [r7, #23]
 8000a36:	2b00      	cmp	r3, #0
 8000a38:	d011      	beq.n	8000a5e <Protocol_GetFreshCommand+0x62>
        *output = latest_command;
 8000a3a:	687b      	ldr	r3, [r7, #4]
 8000a3c:	4a0d      	ldr	r2, [pc, #52]	@ (8000a74 <Protocol_GetFreshCommand+0x78>)
 8000a3e:	4614      	mov	r4, r2
 8000a40:	469c      	mov	ip, r3
 8000a42:	f104 0e40 	add.w	lr, r4, #64	@ 0x40
 8000a46:	4665      	mov	r5, ip
 8000a48:	4626      	mov	r6, r4
 8000a4a:	ce0f      	ldmia	r6!, {r0, r1, r2, r3}
 8000a4c:	6028      	str	r0, [r5, #0]
 8000a4e:	6069      	str	r1, [r5, #4]
 8000a50:	60aa      	str	r2, [r5, #8]
 8000a52:	60eb      	str	r3, [r5, #12]
 8000a54:	3410      	adds	r4, #16
 8000a56:	f10c 0c10 	add.w	ip, ip, #16
 8000a5a:	4574      	cmp	r4, lr
 8000a5c:	d1f3      	bne.n	8000a46 <Protocol_GetFreshCommand+0x4a>
  __ASM volatile ("cpsie i" : : : "memory");
 8000a5e:	b662      	cpsie	i
}
 8000a60:	bf00      	nop
    }
    __enable_irq();
    return valid;
 8000a62:	7dfb      	ldrb	r3, [r7, #23]
}
 8000a64:	4618      	mov	r0, r3
 8000a66:	371c      	adds	r7, #28
 8000a68:	46bd      	mov	sp, r7
 8000a6a:	bdf0      	pop	{r4, r5, r6, r7, pc}
 8000a6c:	240003b8 	.word	0x240003b8
 8000a70:	240003b4 	.word	0x240003b4
 8000a74:	24000374 	.word	0x24000374

08000a78 <Protocol_EncodeState>:
    __enable_irq();
    return valid;
}

uint16_t Protocol_EncodeState(const RobotStatePayload *state, uint8_t *output, uint16_t capacity)
{
 8000a78:	b580      	push	{r7, lr}
 8000a7a:	b088      	sub	sp, #32
 8000a7c:	af00      	add	r7, sp, #0
 8000a7e:	60f8      	str	r0, [r7, #12]
 8000a80:	60b9      	str	r1, [r7, #8]
 8000a82:	4613      	mov	r3, r2
 8000a84:	80fb      	strh	r3, [r7, #6]
    const uint16_t frame_size = (uint16_t)(HEADER_SIZE + sizeof(RobotStatePayload) + CRC_SIZE);
 8000a86:	238a      	movs	r3, #138	@ 0x8a
 8000a88:	83fb      	strh	r3, [r7, #30]
    ProtocolHeader header;
    uint16_t crc;

    if ((state == NULL) || (output == NULL) || (capacity < frame_size)) {
 8000a8a:	68fb      	ldr	r3, [r7, #12]
 8000a8c:	2b00      	cmp	r3, #0
 8000a8e:	d006      	beq.n	8000a9e <Protocol_EncodeState+0x26>
 8000a90:	68bb      	ldr	r3, [r7, #8]
 8000a92:	2b00      	cmp	r3, #0
 8000a94:	d003      	beq.n	8000a9e <Protocol_EncodeState+0x26>
 8000a96:	88fa      	ldrh	r2, [r7, #6]
 8000a98:	8bfb      	ldrh	r3, [r7, #30]
 8000a9a:	429a      	cmp	r2, r3
 8000a9c:	d201      	bcs.n	8000aa2 <Protocol_EncodeState+0x2a>
        return 0U;
 8000a9e:	2300      	movs	r3, #0
 8000aa0:	e02a      	b.n	8000af8 <Protocol_EncodeState+0x80>
    }

    header.magic = PROTOCOL_MAGIC;
 8000aa2:	f24a 535a 	movw	r3, #42330	@ 0xa55a
 8000aa6:	82bb      	strh	r3, [r7, #20]
    header.version = PROTOCOL_VERSION;
 8000aa8:	2301      	movs	r3, #1
 8000aaa:	75bb      	strb	r3, [r7, #22]
    header.message_type = PROTOCOL_MSG_STATE;
 8000aac:	2301      	movs	r3, #1
 8000aae:	75fb      	strb	r3, [r7, #23]
    header.payload_length = (uint16_t)sizeof(RobotStatePayload);
 8000ab0:	2380      	movs	r3, #128	@ 0x80
 8000ab2:	833b      	strh	r3, [r7, #24]
    header.sequence = tx_sequence++;
 8000ab4:	4b12      	ldr	r3, [pc, #72]	@ (8000b00 <Protocol_EncodeState+0x88>)
 8000ab6:	881b      	ldrh	r3, [r3, #0]
 8000ab8:	1c5a      	adds	r2, r3, #1
 8000aba:	b291      	uxth	r1, r2
 8000abc:	4a10      	ldr	r2, [pc, #64]	@ (8000b00 <Protocol_EncodeState+0x88>)
 8000abe:	8011      	strh	r1, [r2, #0]
 8000ac0:	837b      	strh	r3, [r7, #26]

    memcpy(output, &header, HEADER_SIZE);
 8000ac2:	68bb      	ldr	r3, [r7, #8]
 8000ac4:	461a      	mov	r2, r3
 8000ac6:	f107 0314 	add.w	r3, r7, #20
 8000aca:	cb03      	ldmia	r3!, {r0, r1}
 8000acc:	6010      	str	r0, [r2, #0]
 8000ace:	6051      	str	r1, [r2, #4]
    memcpy(&output[HEADER_SIZE], state, sizeof(RobotStatePayload));
 8000ad0:	68bb      	ldr	r3, [r7, #8]
 8000ad2:	3308      	adds	r3, #8
 8000ad4:	2280      	movs	r2, #128	@ 0x80
 8000ad6:	68f9      	ldr	r1, [r7, #12]
 8000ad8:	4618      	mov	r0, r3
 8000ada:	f009 f8db 	bl	8009c94 <memcpy>
    crc = crc16_ccitt(&output[2], (uint16_t)(HEADER_SIZE - 2U + sizeof(RobotStatePayload)));
 8000ade:	68bb      	ldr	r3, [r7, #8]
 8000ae0:	3302      	adds	r3, #2
 8000ae2:	2186      	movs	r1, #134	@ 0x86
 8000ae4:	4618      	mov	r0, r3
 8000ae6:	f7ff fe33 	bl	8000750 <crc16_ccitt>
 8000aea:	4603      	mov	r3, r0
 8000aec:	827b      	strh	r3, [r7, #18]
    memcpy(&output[HEADER_SIZE + sizeof(RobotStatePayload)], &crc, CRC_SIZE);
 8000aee:	68bb      	ldr	r3, [r7, #8]
 8000af0:	3388      	adds	r3, #136	@ 0x88
 8000af2:	8a7a      	ldrh	r2, [r7, #18]
 8000af4:	801a      	strh	r2, [r3, #0]
    return frame_size;
 8000af6:	8bfb      	ldrh	r3, [r7, #30]
}
 8000af8:	4618      	mov	r0, r3
 8000afa:	3720      	adds	r7, #32
 8000afc:	46bd      	mov	sp, r7
 8000afe:	bd80      	pop	{r7, pc}
 8000b00:	240003c0 	.word	0x240003c0

08000b04 <JetsonUsbCdc_OnReceive>:

void JetsonUsbCdc_OnReceive(
    const uint8_t *data,
    uint32_t length,
    uint32_t now_ms)
{
 8000b04:	b580      	push	{r7, lr}
 8000b06:	b086      	sub	sp, #24
 8000b08:	af00      	add	r7, sp, #0
 8000b0a:	60f8      	str	r0, [r7, #12]
 8000b0c:	60b9      	str	r1, [r7, #8]
 8000b0e:	607a      	str	r2, [r7, #4]
    while (length > 0U) {
 8000b10:	e017      	b.n	8000b42 <JetsonUsbCdc_OnReceive+0x3e>
        uint16_t chunk =
 8000b12:	68bb      	ldr	r3, [r7, #8]
 8000b14:	f5b3 3f80 	cmp.w	r3, #65536	@ 0x10000
 8000b18:	d202      	bcs.n	8000b20 <JetsonUsbCdc_OnReceive+0x1c>
 8000b1a:	68bb      	ldr	r3, [r7, #8]
 8000b1c:	b29b      	uxth	r3, r3
 8000b1e:	e001      	b.n	8000b24 <JetsonUsbCdc_OnReceive+0x20>
 8000b20:	f64f 73ff 	movw	r3, #65535	@ 0xffff
 8000b24:	82fb      	strh	r3, [r7, #22]
            (length > 65535U) ? 65535U : (uint16_t)length;

        Protocol_RxBytes(data, chunk, now_ms);
 8000b26:	8afb      	ldrh	r3, [r7, #22]
 8000b28:	687a      	ldr	r2, [r7, #4]
 8000b2a:	4619      	mov	r1, r3
 8000b2c:	68f8      	ldr	r0, [r7, #12]
 8000b2e:	f7ff fee9 	bl	8000904 <Protocol_RxBytes>

        data += chunk;
 8000b32:	8afb      	ldrh	r3, [r7, #22]
 8000b34:	68fa      	ldr	r2, [r7, #12]
 8000b36:	4413      	add	r3, r2
 8000b38:	60fb      	str	r3, [r7, #12]
        length -= chunk;
 8000b3a:	8afb      	ldrh	r3, [r7, #22]
 8000b3c:	68ba      	ldr	r2, [r7, #8]
 8000b3e:	1ad3      	subs	r3, r2, r3
 8000b40:	60bb      	str	r3, [r7, #8]
    while (length > 0U) {
 8000b42:	68bb      	ldr	r3, [r7, #8]
 8000b44:	2b00      	cmp	r3, #0
 8000b46:	d1e4      	bne.n	8000b12 <JetsonUsbCdc_OnReceive+0xe>
    }
}
 8000b48:	bf00      	nop
 8000b4a:	bf00      	nop
 8000b4c:	3718      	adds	r7, #24
 8000b4e:	46bd      	mov	sp, r7
 8000b50:	bd80      	pop	{r7, pc}
	...

08000b54 <JetsonUsbCdc_SendState>:

uint8_t JetsonUsbCdc_SendState(const RobotStatePayload *state)
{
 8000b54:	b580      	push	{r7, lr}
 8000b56:	b084      	sub	sp, #16
 8000b58:	af00      	add	r7, sp, #0
 8000b5a:	6078      	str	r0, [r7, #4]
    USBD_CDC_HandleTypeDef *cdc =
 8000b5c:	4b11      	ldr	r3, [pc, #68]	@ (8000ba4 <JetsonUsbCdc_SendState+0x50>)
 8000b5e:	f8d3 32bc 	ldr.w	r3, [r3, #700]	@ 0x2bc
 8000b62:	60fb      	str	r3, [r7, #12]
        (USBD_CDC_HandleTypeDef *)hUsbDeviceHS.pClassData;

    uint16_t length;

    if ((cdc == NULL) || (cdc->TxState != 0U)) {
 8000b64:	68fb      	ldr	r3, [r7, #12]
 8000b66:	2b00      	cmp	r3, #0
 8000b68:	d004      	beq.n	8000b74 <JetsonUsbCdc_SendState+0x20>
 8000b6a:	68fb      	ldr	r3, [r7, #12]
 8000b6c:	f8d3 3214 	ldr.w	r3, [r3, #532]	@ 0x214
 8000b70:	2b00      	cmp	r3, #0
 8000b72:	d001      	beq.n	8000b78 <JetsonUsbCdc_SendState+0x24>
        return USBD_BUSY;
 8000b74:	2301      	movs	r3, #1
 8000b76:	e011      	b.n	8000b9c <JetsonUsbCdc_SendState+0x48>
    }

    length = Protocol_EncodeState(
 8000b78:	228a      	movs	r2, #138	@ 0x8a
 8000b7a:	490b      	ldr	r1, [pc, #44]	@ (8000ba8 <JetsonUsbCdc_SendState+0x54>)
 8000b7c:	6878      	ldr	r0, [r7, #4]
 8000b7e:	f7ff ff7b 	bl	8000a78 <Protocol_EncodeState>
 8000b82:	4603      	mov	r3, r0
 8000b84:	817b      	strh	r3, [r7, #10]
        state,
        state_frame,
        sizeof(state_frame));

    if (length == 0U) {
 8000b86:	897b      	ldrh	r3, [r7, #10]
 8000b88:	2b00      	cmp	r3, #0
 8000b8a:	d101      	bne.n	8000b90 <JetsonUsbCdc_SendState+0x3c>
        return USBD_FAIL;
 8000b8c:	2303      	movs	r3, #3
 8000b8e:	e005      	b.n	8000b9c <JetsonUsbCdc_SendState+0x48>
    }

    return CDC_Transmit_HS(state_frame, length);
 8000b90:	897b      	ldrh	r3, [r7, #10]
 8000b92:	4619      	mov	r1, r3
 8000b94:	4804      	ldr	r0, [pc, #16]	@ (8000ba8 <JetsonUsbCdc_SendState+0x54>)
 8000b96:	f008 fbfd 	bl	8009394 <CDC_Transmit_HS>
 8000b9a:	4603      	mov	r3, r0
}
 8000b9c:	4618      	mov	r0, r3
 8000b9e:	3710      	adds	r7, #16
 8000ba0:	46bd      	mov	sp, r7
 8000ba2:	bd80      	pop	{r7, pc}
 8000ba4:	240004a4 	.word	0x240004a4
 8000ba8:	240003c4 	.word	0x240003c4

08000bac <main>:
/**
  * @brief  The application entry point.
  * @retval int
  */
int main(void)
{
 8000bac:	b580      	push	{r7, lr}
 8000bae:	b084      	sub	sp, #16
 8000bb0:	af00      	add	r7, sp, #0
  \details Turns on I-Cache
  */
__STATIC_FORCEINLINE void SCB_EnableICache (void)
{
  #if defined (__ICACHE_PRESENT) && (__ICACHE_PRESENT == 1U)
    if (SCB->CCR & SCB_CCR_IC_Msk) return;  /* return if ICache is already enabled */
 8000bb2:	4b3a      	ldr	r3, [pc, #232]	@ (8000c9c <main+0xf0>)
 8000bb4:	695b      	ldr	r3, [r3, #20]
 8000bb6:	f403 3300 	and.w	r3, r3, #131072	@ 0x20000
 8000bba:	2b00      	cmp	r3, #0
 8000bbc:	d11b      	bne.n	8000bf6 <main+0x4a>
  __ASM volatile ("dsb 0xF":::"memory");
 8000bbe:	f3bf 8f4f 	dsb	sy
}
 8000bc2:	bf00      	nop
  __ASM volatile ("isb 0xF":::"memory");
 8000bc4:	f3bf 8f6f 	isb	sy
}
 8000bc8:	bf00      	nop

    __DSB();
    __ISB();
    SCB->ICIALLU = 0UL;                     /* invalidate I-Cache */
 8000bca:	4b34      	ldr	r3, [pc, #208]	@ (8000c9c <main+0xf0>)
 8000bcc:	2200      	movs	r2, #0
 8000bce:	f8c3 2250 	str.w	r2, [r3, #592]	@ 0x250
  __ASM volatile ("dsb 0xF":::"memory");
 8000bd2:	f3bf 8f4f 	dsb	sy
}
 8000bd6:	bf00      	nop
  __ASM volatile ("isb 0xF":::"memory");
 8000bd8:	f3bf 8f6f 	isb	sy
}
 8000bdc:	bf00      	nop
    __DSB();
    __ISB();
    SCB->CCR |=  (uint32_t)SCB_CCR_IC_Msk;  /* enable I-Cache */
 8000bde:	4b2f      	ldr	r3, [pc, #188]	@ (8000c9c <main+0xf0>)
 8000be0:	695b      	ldr	r3, [r3, #20]
 8000be2:	4a2e      	ldr	r2, [pc, #184]	@ (8000c9c <main+0xf0>)
 8000be4:	f443 3300 	orr.w	r3, r3, #131072	@ 0x20000
 8000be8:	6153      	str	r3, [r2, #20]
  __ASM volatile ("dsb 0xF":::"memory");
 8000bea:	f3bf 8f4f 	dsb	sy
}
 8000bee:	bf00      	nop
  __ASM volatile ("isb 0xF":::"memory");
 8000bf0:	f3bf 8f6f 	isb	sy
}
 8000bf4:	e000      	b.n	8000bf8 <main+0x4c>
    if (SCB->CCR & SCB_CCR_IC_Msk) return;  /* return if ICache is already enabled */
 8000bf6:	bf00      	nop
  #if defined (__DCACHE_PRESENT) && (__DCACHE_PRESENT == 1U)
    uint32_t ccsidr;
    uint32_t sets;
    uint32_t ways;

    if (SCB->CCR & SCB_CCR_DC_Msk) return;  /* return if DCache is already enabled */
 8000bf8:	4b28      	ldr	r3, [pc, #160]	@ (8000c9c <main+0xf0>)
 8000bfa:	695b      	ldr	r3, [r3, #20]
 8000bfc:	f403 3380 	and.w	r3, r3, #65536	@ 0x10000
 8000c00:	2b00      	cmp	r3, #0
 8000c02:	d138      	bne.n	8000c76 <main+0xca>

    SCB->CSSELR = 0U;                       /* select Level 1 data cache */
 8000c04:	4b25      	ldr	r3, [pc, #148]	@ (8000c9c <main+0xf0>)
 8000c06:	2200      	movs	r2, #0
 8000c08:	f8c3 2084 	str.w	r2, [r3, #132]	@ 0x84
  __ASM volatile ("dsb 0xF":::"memory");
 8000c0c:	f3bf 8f4f 	dsb	sy
}
 8000c10:	bf00      	nop
    __DSB();

    ccsidr = SCB->CCSIDR;
 8000c12:	4b22      	ldr	r3, [pc, #136]	@ (8000c9c <main+0xf0>)
 8000c14:	f8d3 3080 	ldr.w	r3, [r3, #128]	@ 0x80
 8000c18:	60fb      	str	r3, [r7, #12]

                                            /* invalidate D-Cache */
    sets = (uint32_t)(CCSIDR_SETS(ccsidr));
 8000c1a:	68fb      	ldr	r3, [r7, #12]
 8000c1c:	0b5b      	lsrs	r3, r3, #13
 8000c1e:	f3c3 030e 	ubfx	r3, r3, #0, #15
 8000c22:	60bb      	str	r3, [r7, #8]
    do {
      ways = (uint32_t)(CCSIDR_WAYS(ccsidr));
 8000c24:	68fb      	ldr	r3, [r7, #12]
 8000c26:	08db      	lsrs	r3, r3, #3
 8000c28:	f3c3 0309 	ubfx	r3, r3, #0, #10
 8000c2c:	607b      	str	r3, [r7, #4]
      do {
        SCB->DCISW = (((sets << SCB_DCISW_SET_Pos) & SCB_DCISW_SET_Msk) |
 8000c2e:	68bb      	ldr	r3, [r7, #8]
 8000c30:	015a      	lsls	r2, r3, #5
 8000c32:	f643 73e0 	movw	r3, #16352	@ 0x3fe0
 8000c36:	4013      	ands	r3, r2
                      ((ways << SCB_DCISW_WAY_Pos) & SCB_DCISW_WAY_Msk)  );
 8000c38:	687a      	ldr	r2, [r7, #4]
 8000c3a:	0792      	lsls	r2, r2, #30
        SCB->DCISW = (((sets << SCB_DCISW_SET_Pos) & SCB_DCISW_SET_Msk) |
 8000c3c:	4917      	ldr	r1, [pc, #92]	@ (8000c9c <main+0xf0>)
 8000c3e:	4313      	orrs	r3, r2
 8000c40:	f8c1 3260 	str.w	r3, [r1, #608]	@ 0x260
        #if defined ( __CC_ARM )
          __schedule_barrier();
        #endif
      } while (ways-- != 0U);
 8000c44:	687b      	ldr	r3, [r7, #4]
 8000c46:	1e5a      	subs	r2, r3, #1
 8000c48:	607a      	str	r2, [r7, #4]
 8000c4a:	2b00      	cmp	r3, #0
 8000c4c:	d1ef      	bne.n	8000c2e <main+0x82>
    } while(sets-- != 0U);
 8000c4e:	68bb      	ldr	r3, [r7, #8]
 8000c50:	1e5a      	subs	r2, r3, #1
 8000c52:	60ba      	str	r2, [r7, #8]
 8000c54:	2b00      	cmp	r3, #0
 8000c56:	d1e5      	bne.n	8000c24 <main+0x78>
  __ASM volatile ("dsb 0xF":::"memory");
 8000c58:	f3bf 8f4f 	dsb	sy
}
 8000c5c:	bf00      	nop
    __DSB();

    SCB->CCR |=  (uint32_t)SCB_CCR_DC_Msk;  /* enable D-Cache */
 8000c5e:	4b0f      	ldr	r3, [pc, #60]	@ (8000c9c <main+0xf0>)
 8000c60:	695b      	ldr	r3, [r3, #20]
 8000c62:	4a0e      	ldr	r2, [pc, #56]	@ (8000c9c <main+0xf0>)
 8000c64:	f443 3380 	orr.w	r3, r3, #65536	@ 0x10000
 8000c68:	6153      	str	r3, [r2, #20]
  __ASM volatile ("dsb 0xF":::"memory");
 8000c6a:	f3bf 8f4f 	dsb	sy
}
 8000c6e:	bf00      	nop
  __ASM volatile ("isb 0xF":::"memory");
 8000c70:	f3bf 8f6f 	isb	sy
}
 8000c74:	e000      	b.n	8000c78 <main+0xcc>
    if (SCB->CCR & SCB_CCR_DC_Msk) return;  /* return if DCache is already enabled */
 8000c76:	bf00      	nop
	SCB_EnableICache();
	SCB_EnableDCache();
  /* USER CODE END 1 */

  /* MPU Configuration--------------------------------------------------------*/
  MPU_Config();
 8000c78:	f000 f880 	bl	8000d7c <MPU_Config>

  /* MCU Configuration--------------------------------------------------------*/

  /* Reset of all peripherals, Initializes the Flash interface and the Systick. */
  HAL_Init();
 8000c7c:	f000 fa34 	bl	80010e8 <HAL_Init>
  /* USER CODE BEGIN Init */

  /* USER CODE END Init */

  /* Configure the system clock */
  SystemClock_Config();
 8000c80:	f000 f80e 	bl	8000ca0 <SystemClock_Config>
  /* USER CODE BEGIN SysInit */

  /* USER CODE END SysInit */

  /* Initialize all configured peripherals */
  MX_GPIO_Init();
 8000c84:	f7ff fd02 	bl	800068c <MX_GPIO_Init>
  MX_TIM6_Init();
 8000c88:	f000 f9a4 	bl	8000fd4 <MX_TIM6_Init>
  MX_USB_DEVICE_Init();
 8000c8c:	f008 fabc 	bl	8009208 <MX_USB_DEVICE_Init>
  /* USER CODE BEGIN 2 */
  RobotApp_Init();
 8000c90:	f7ff fc8c 	bl	80005ac <RobotApp_Init>

  /* Infinite loop */
  /* USER CODE BEGIN WHILE */
  while (1)
  {
	RobotApp_MainLoop();
 8000c94:	f7ff fcb2 	bl	80005fc <RobotApp_MainLoop>
 8000c98:	e7fc      	b.n	8000c94 <main+0xe8>
 8000c9a:	bf00      	nop
 8000c9c:	e000ed00 	.word	0xe000ed00

08000ca0 <SystemClock_Config>:
/**
  * @brief System Clock Configuration
  * @retval None
  */
void SystemClock_Config(void)
{
 8000ca0:	b580      	push	{r7, lr}
 8000ca2:	b09c      	sub	sp, #112	@ 0x70
 8000ca4:	af00      	add	r7, sp, #0
  RCC_OscInitTypeDef RCC_OscInitStruct = {0};
 8000ca6:	f107 0324 	add.w	r3, r7, #36	@ 0x24
 8000caa:	224c      	movs	r2, #76	@ 0x4c
 8000cac:	2100      	movs	r1, #0
 8000cae:	4618      	mov	r0, r3
 8000cb0:	f008 ffc4 	bl	8009c3c <memset>
  RCC_ClkInitTypeDef RCC_ClkInitStruct = {0};
 8000cb4:	1d3b      	adds	r3, r7, #4
 8000cb6:	2220      	movs	r2, #32
 8000cb8:	2100      	movs	r1, #0
 8000cba:	4618      	mov	r0, r3
 8000cbc:	f008 ffbe 	bl	8009c3c <memset>

  /** Supply configuration update enable
  */
  HAL_PWREx_ConfigSupply(PWR_LDO_SUPPLY);
 8000cc0:	2002      	movs	r0, #2
 8000cc2:	f002 f8d5 	bl	8002e70 <HAL_PWREx_ConfigSupply>

  /** Configure the main internal regulator output voltage
  */
  __HAL_PWR_VOLTAGESCALING_CONFIG(PWR_REGULATOR_VOLTAGE_SCALE0);
 8000cc6:	2300      	movs	r3, #0
 8000cc8:	603b      	str	r3, [r7, #0]
 8000cca:	4b2b      	ldr	r3, [pc, #172]	@ (8000d78 <SystemClock_Config+0xd8>)
 8000ccc:	699b      	ldr	r3, [r3, #24]
 8000cce:	4a2a      	ldr	r2, [pc, #168]	@ (8000d78 <SystemClock_Config+0xd8>)
 8000cd0:	f423 4340 	bic.w	r3, r3, #49152	@ 0xc000
 8000cd4:	6193      	str	r3, [r2, #24]
 8000cd6:	4b28      	ldr	r3, [pc, #160]	@ (8000d78 <SystemClock_Config+0xd8>)
 8000cd8:	699b      	ldr	r3, [r3, #24]
 8000cda:	f403 4340 	and.w	r3, r3, #49152	@ 0xc000
 8000cde:	603b      	str	r3, [r7, #0]
 8000ce0:	683b      	ldr	r3, [r7, #0]

  while(!__HAL_PWR_GET_FLAG(PWR_FLAG_VOSRDY)) {}
 8000ce2:	bf00      	nop
 8000ce4:	4b24      	ldr	r3, [pc, #144]	@ (8000d78 <SystemClock_Config+0xd8>)
 8000ce6:	699b      	ldr	r3, [r3, #24]
 8000ce8:	f403 5300 	and.w	r3, r3, #8192	@ 0x2000
 8000cec:	f5b3 5f00 	cmp.w	r3, #8192	@ 0x2000
 8000cf0:	d1f8      	bne.n	8000ce4 <SystemClock_Config+0x44>

  /** Initializes the RCC Oscillators according to the specified parameters
  * in the RCC_OscInitTypeDef structure.
  */
  RCC_OscInitStruct.OscillatorType = RCC_OSCILLATORTYPE_HSE;
 8000cf2:	2301      	movs	r3, #1
 8000cf4:	627b      	str	r3, [r7, #36]	@ 0x24
  RCC_OscInitStruct.HSEState = RCC_HSE_ON;
 8000cf6:	f44f 3380 	mov.w	r3, #65536	@ 0x10000
 8000cfa:	62bb      	str	r3, [r7, #40]	@ 0x28
  RCC_OscInitStruct.PLL.PLLState = RCC_PLL_ON;
 8000cfc:	2302      	movs	r3, #2
 8000cfe:	64bb      	str	r3, [r7, #72]	@ 0x48
  RCC_OscInitStruct.PLL.PLLSource = RCC_PLLSOURCE_HSE;
 8000d00:	2302      	movs	r3, #2
 8000d02:	64fb      	str	r3, [r7, #76]	@ 0x4c
  RCC_OscInitStruct.PLL.PLLM = 5;
 8000d04:	2305      	movs	r3, #5
 8000d06:	653b      	str	r3, [r7, #80]	@ 0x50
  RCC_OscInitStruct.PLL.PLLN = 48;
 8000d08:	2330      	movs	r3, #48	@ 0x30
 8000d0a:	657b      	str	r3, [r7, #84]	@ 0x54
  RCC_OscInitStruct.PLL.PLLP = 1;
 8000d0c:	2301      	movs	r3, #1
 8000d0e:	65bb      	str	r3, [r7, #88]	@ 0x58
  RCC_OscInitStruct.PLL.PLLQ = 5;
 8000d10:	2305      	movs	r3, #5
 8000d12:	65fb      	str	r3, [r7, #92]	@ 0x5c
  RCC_OscInitStruct.PLL.PLLR = 2;
 8000d14:	2302      	movs	r3, #2
 8000d16:	663b      	str	r3, [r7, #96]	@ 0x60
  RCC_OscInitStruct.PLL.PLLRGE = RCC_PLL1VCIRANGE_2;
 8000d18:	2308      	movs	r3, #8
 8000d1a:	667b      	str	r3, [r7, #100]	@ 0x64
  RCC_OscInitStruct.PLL.PLLVCOSEL = RCC_PLL1VCOWIDE;
 8000d1c:	2300      	movs	r3, #0
 8000d1e:	66bb      	str	r3, [r7, #104]	@ 0x68
  RCC_OscInitStruct.PLL.PLLFRACN = 0;
 8000d20:	2300      	movs	r3, #0
 8000d22:	66fb      	str	r3, [r7, #108]	@ 0x6c
  if (HAL_RCC_OscConfig(&RCC_OscInitStruct) != HAL_OK)
 8000d24:	f107 0324 	add.w	r3, r7, #36	@ 0x24
 8000d28:	4618      	mov	r0, r3
 8000d2a:	f002 f8eb 	bl	8002f04 <HAL_RCC_OscConfig>
 8000d2e:	4603      	mov	r3, r0
 8000d30:	2b00      	cmp	r3, #0
 8000d32:	d001      	beq.n	8000d38 <SystemClock_Config+0x98>
  {
    Error_Handler();
 8000d34:	f000 f84e 	bl	8000dd4 <Error_Handler>
  }

  /** Initializes the CPU, AHB and APB buses clocks
  */
  RCC_ClkInitStruct.ClockType = RCC_CLOCKTYPE_HCLK|RCC_CLOCKTYPE_SYSCLK
 8000d38:	233f      	movs	r3, #63	@ 0x3f
 8000d3a:	607b      	str	r3, [r7, #4]
                              |RCC_CLOCKTYPE_PCLK1|RCC_CLOCKTYPE_PCLK2
                              |RCC_CLOCKTYPE_D3PCLK1|RCC_CLOCKTYPE_D1PCLK1;
  RCC_ClkInitStruct.SYSCLKSource = RCC_SYSCLKSOURCE_PLLCLK;
 8000d3c:	2303      	movs	r3, #3
 8000d3e:	60bb      	str	r3, [r7, #8]
  RCC_ClkInitStruct.SYSCLKDivider = RCC_SYSCLK_DIV1;
 8000d40:	2300      	movs	r3, #0
 8000d42:	60fb      	str	r3, [r7, #12]
  RCC_ClkInitStruct.AHBCLKDivider = RCC_HCLK_DIV1;
 8000d44:	2300      	movs	r3, #0
 8000d46:	613b      	str	r3, [r7, #16]
  RCC_ClkInitStruct.APB3CLKDivider = RCC_APB3_DIV2;
 8000d48:	2340      	movs	r3, #64	@ 0x40
 8000d4a:	617b      	str	r3, [r7, #20]
  RCC_ClkInitStruct.APB1CLKDivider = RCC_APB1_DIV2;
 8000d4c:	2340      	movs	r3, #64	@ 0x40
 8000d4e:	61bb      	str	r3, [r7, #24]
  RCC_ClkInitStruct.APB2CLKDivider = RCC_APB2_DIV2;
 8000d50:	f44f 6380 	mov.w	r3, #1024	@ 0x400
 8000d54:	61fb      	str	r3, [r7, #28]
  RCC_ClkInitStruct.APB4CLKDivider = RCC_APB4_DIV2;
 8000d56:	2340      	movs	r3, #64	@ 0x40
 8000d58:	623b      	str	r3, [r7, #32]

  if (HAL_RCC_ClockConfig(&RCC_ClkInitStruct, FLASH_LATENCY_3) != HAL_OK)
 8000d5a:	1d3b      	adds	r3, r7, #4
 8000d5c:	2103      	movs	r1, #3
 8000d5e:	4618      	mov	r0, r3
 8000d60:	f002 fcaa 	bl	80036b8 <HAL_RCC_ClockConfig>
 8000d64:	4603      	mov	r3, r0
 8000d66:	2b00      	cmp	r3, #0
 8000d68:	d001      	beq.n	8000d6e <SystemClock_Config+0xce>
  {
    Error_Handler();
 8000d6a:	f000 f833 	bl	8000dd4 <Error_Handler>
  }
}
 8000d6e:	bf00      	nop
 8000d70:	3770      	adds	r7, #112	@ 0x70
 8000d72:	46bd      	mov	sp, r7
 8000d74:	bd80      	pop	{r7, pc}
 8000d76:	bf00      	nop
 8000d78:	58024800 	.word	0x58024800

08000d7c <MPU_Config>:
/* USER CODE END 4 */

 /* MPU Configuration */

void MPU_Config(void)
{
 8000d7c:	b580      	push	{r7, lr}
 8000d7e:	b084      	sub	sp, #16
 8000d80:	af00      	add	r7, sp, #0
  MPU_Region_InitTypeDef MPU_InitStruct = {0};
 8000d82:	463b      	mov	r3, r7
 8000d84:	2200      	movs	r2, #0
 8000d86:	601a      	str	r2, [r3, #0]
 8000d88:	605a      	str	r2, [r3, #4]
 8000d8a:	609a      	str	r2, [r3, #8]
 8000d8c:	60da      	str	r2, [r3, #12]

  /* Disables the MPU */
  HAL_MPU_Disable();
 8000d8e:	f000 fb71 	bl	8001474 <HAL_MPU_Disable>

  /** Initializes and configures the Region and the memory to be protected
  */
  MPU_InitStruct.Enable = MPU_REGION_ENABLE;
 8000d92:	2301      	movs	r3, #1
 8000d94:	703b      	strb	r3, [r7, #0]
  MPU_InitStruct.Number = MPU_REGION_NUMBER0;
 8000d96:	2300      	movs	r3, #0
 8000d98:	707b      	strb	r3, [r7, #1]
  MPU_InitStruct.BaseAddress = 0x0;
 8000d9a:	2300      	movs	r3, #0
 8000d9c:	607b      	str	r3, [r7, #4]
  MPU_InitStruct.Size = MPU_REGION_SIZE_4GB;
 8000d9e:	231f      	movs	r3, #31
 8000da0:	723b      	strb	r3, [r7, #8]
  MPU_InitStruct.SubRegionDisable = 0x87;
 8000da2:	2387      	movs	r3, #135	@ 0x87
 8000da4:	727b      	strb	r3, [r7, #9]
  MPU_InitStruct.TypeExtField = MPU_TEX_LEVEL0;
 8000da6:	2300      	movs	r3, #0
 8000da8:	72bb      	strb	r3, [r7, #10]
  MPU_InitStruct.AccessPermission = MPU_REGION_NO_ACCESS;
 8000daa:	2300      	movs	r3, #0
 8000dac:	72fb      	strb	r3, [r7, #11]
  MPU_InitStruct.DisableExec = MPU_INSTRUCTION_ACCESS_DISABLE;
 8000dae:	2301      	movs	r3, #1
 8000db0:	733b      	strb	r3, [r7, #12]
  MPU_InitStruct.IsShareable = MPU_ACCESS_SHAREABLE;
 8000db2:	2301      	movs	r3, #1
 8000db4:	737b      	strb	r3, [r7, #13]
  MPU_InitStruct.IsCacheable = MPU_ACCESS_NOT_CACHEABLE;
 8000db6:	2300      	movs	r3, #0
 8000db8:	73bb      	strb	r3, [r7, #14]
  MPU_InitStruct.IsBufferable = MPU_ACCESS_NOT_BUFFERABLE;
 8000dba:	2300      	movs	r3, #0
 8000dbc:	73fb      	strb	r3, [r7, #15]

  HAL_MPU_ConfigRegion(&MPU_InitStruct);
 8000dbe:	463b      	mov	r3, r7
 8000dc0:	4618      	mov	r0, r3
 8000dc2:	f000 fb8f 	bl	80014e4 <HAL_MPU_ConfigRegion>
  /* Enables the MPU */
  HAL_MPU_Enable(MPU_PRIVILEGED_DEFAULT);
 8000dc6:	2004      	movs	r0, #4
 8000dc8:	f000 fb6c 	bl	80014a4 <HAL_MPU_Enable>

}
 8000dcc:	bf00      	nop
 8000dce:	3710      	adds	r7, #16
 8000dd0:	46bd      	mov	sp, r7
 8000dd2:	bd80      	pop	{r7, pc}

08000dd4 <Error_Handler>:
/**
  * @brief  This function is executed in case of error occurrence.
  * @retval None
  */
void Error_Handler(void)
{
 8000dd4:	b480      	push	{r7}
 8000dd6:	af00      	add	r7, sp, #0
  __ASM volatile ("cpsid i" : : : "memory");
 8000dd8:	b672      	cpsid	i
}
 8000dda:	bf00      	nop
  /* USER CODE BEGIN Error_Handler_Debug */
  /* User can add his own implementation to report the HAL error return state */
  __disable_irq();
  while (1)
 8000ddc:	bf00      	nop
 8000dde:	e7fd      	b.n	8000ddc <Error_Handler+0x8>

08000de0 <HAL_MspInit>:
/* USER CODE END 0 */
/**
  * Initializes the Global MSP.
  */
void HAL_MspInit(void)
{
 8000de0:	b480      	push	{r7}
 8000de2:	b083      	sub	sp, #12
 8000de4:	af00      	add	r7, sp, #0

  /* USER CODE BEGIN MspInit 0 */

  /* USER CODE END MspInit 0 */

  __HAL_RCC_SYSCFG_CLK_ENABLE();
 8000de6:	4b0a      	ldr	r3, [pc, #40]	@ (8000e10 <HAL_MspInit+0x30>)
 8000de8:	f8d3 30f4 	ldr.w	r3, [r3, #244]	@ 0xf4
 8000dec:	4a08      	ldr	r2, [pc, #32]	@ (8000e10 <HAL_MspInit+0x30>)
 8000dee:	f043 0302 	orr.w	r3, r3, #2
 8000df2:	f8c2 30f4 	str.w	r3, [r2, #244]	@ 0xf4
 8000df6:	4b06      	ldr	r3, [pc, #24]	@ (8000e10 <HAL_MspInit+0x30>)
 8000df8:	f8d3 30f4 	ldr.w	r3, [r3, #244]	@ 0xf4
 8000dfc:	f003 0302 	and.w	r3, r3, #2
 8000e00:	607b      	str	r3, [r7, #4]
 8000e02:	687b      	ldr	r3, [r7, #4]
  /* System interrupt init*/

  /* USER CODE BEGIN MspInit 1 */

  /* USER CODE END MspInit 1 */
}
 8000e04:	bf00      	nop
 8000e06:	370c      	adds	r7, #12
 8000e08:	46bd      	mov	sp, r7
 8000e0a:	f85d 7b04 	ldr.w	r7, [sp], #4
 8000e0e:	4770      	bx	lr
 8000e10:	58024400 	.word	0x58024400

08000e14 <NMI_Handler>:
/******************************************************************************/
/**
  * @brief This function handles Non maskable interrupt.
  */
void NMI_Handler(void)
{
 8000e14:	b480      	push	{r7}
 8000e16:	af00      	add	r7, sp, #0
  /* USER CODE BEGIN NonMaskableInt_IRQn 0 */

  /* USER CODE END NonMaskableInt_IRQn 0 */
  /* USER CODE BEGIN NonMaskableInt_IRQn 1 */
   while (1)
 8000e18:	bf00      	nop
 8000e1a:	e7fd      	b.n	8000e18 <NMI_Handler+0x4>

08000e1c <HardFault_Handler>:

/**
  * @brief This function handles Hard fault interrupt.
  */
void HardFault_Handler(void)
{
 8000e1c:	b480      	push	{r7}
 8000e1e:	af00      	add	r7, sp, #0
  /* USER CODE BEGIN HardFault_IRQn 0 */

  /* USER CODE END HardFault_IRQn 0 */
  while (1)
 8000e20:	bf00      	nop
 8000e22:	e7fd      	b.n	8000e20 <HardFault_Handler+0x4>

08000e24 <MemManage_Handler>:

/**
  * @brief This function handles Memory management fault.
  */
void MemManage_Handler(void)
{
 8000e24:	b480      	push	{r7}
 8000e26:	af00      	add	r7, sp, #0
  /* USER CODE BEGIN MemoryManagement_IRQn 0 */

  /* USER CODE END MemoryManagement_IRQn 0 */
  while (1)
 8000e28:	bf00      	nop
 8000e2a:	e7fd      	b.n	8000e28 <MemManage_Handler+0x4>

08000e2c <BusFault_Handler>:

/**
  * @brief This function handles Pre-fetch fault, memory access fault.
  */
void BusFault_Handler(void)
{
 8000e2c:	b480      	push	{r7}
 8000e2e:	af00      	add	r7, sp, #0
  /* USER CODE BEGIN BusFault_IRQn 0 */

  /* USER CODE END BusFault_IRQn 0 */
  while (1)
 8000e30:	bf00      	nop
 8000e32:	e7fd      	b.n	8000e30 <BusFault_Handler+0x4>

08000e34 <UsageFault_Handler>:

/**
  * @brief This function handles Undefined instruction or illegal state.
  */
void UsageFault_Handler(void)
{
 8000e34:	b480      	push	{r7}
 8000e36:	af00      	add	r7, sp, #0
  /* USER CODE BEGIN UsageFault_IRQn 0 */

  /* USER CODE END UsageFault_IRQn 0 */
  while (1)
 8000e38:	bf00      	nop
 8000e3a:	e7fd      	b.n	8000e38 <UsageFault_Handler+0x4>

08000e3c <SVC_Handler>:

/**
  * @brief This function handles System service call via SWI instruction.
  */
void SVC_Handler(void)
{
 8000e3c:	b480      	push	{r7}
 8000e3e:	af00      	add	r7, sp, #0

  /* USER CODE END SVCall_IRQn 0 */
  /* USER CODE BEGIN SVCall_IRQn 1 */

  /* USER CODE END SVCall_IRQn 1 */
}
 8000e40:	bf00      	nop
 8000e42:	46bd      	mov	sp, r7
 8000e44:	f85d 7b04 	ldr.w	r7, [sp], #4
 8000e48:	4770      	bx	lr

08000e4a <DebugMon_Handler>:

/**
  * @brief This function handles Debug monitor.
  */
void DebugMon_Handler(void)
{
 8000e4a:	b480      	push	{r7}
 8000e4c:	af00      	add	r7, sp, #0

  /* USER CODE END DebugMonitor_IRQn 0 */
  /* USER CODE BEGIN DebugMonitor_IRQn 1 */

  /* USER CODE END DebugMonitor_IRQn 1 */
}
 8000e4e:	bf00      	nop
 8000e50:	46bd      	mov	sp, r7
 8000e52:	f85d 7b04 	ldr.w	r7, [sp], #4
 8000e56:	4770      	bx	lr

08000e58 <PendSV_Handler>:

/**
  * @brief This function handles Pendable request for system service.
  */
void PendSV_Handler(void)
{
 8000e58:	b480      	push	{r7}
 8000e5a:	af00      	add	r7, sp, #0

  /* USER CODE END PendSV_IRQn 0 */
  /* USER CODE BEGIN PendSV_IRQn 1 */

  /* USER CODE END PendSV_IRQn 1 */
}
 8000e5c:	bf00      	nop
 8000e5e:	46bd      	mov	sp, r7
 8000e60:	f85d 7b04 	ldr.w	r7, [sp], #4
 8000e64:	4770      	bx	lr

08000e66 <SysTick_Handler>:

/**
  * @brief This function handles System tick timer.
  */
void SysTick_Handler(void)
{
 8000e66:	b580      	push	{r7, lr}
 8000e68:	af00      	add	r7, sp, #0
  /* USER CODE BEGIN SysTick_IRQn 0 */

  /* USER CODE END SysTick_IRQn 0 */
  HAL_IncTick();
 8000e6a:	f000 f9af 	bl	80011cc <HAL_IncTick>
  /* USER CODE BEGIN SysTick_IRQn 1 */

  /* USER CODE END SysTick_IRQn 1 */
}
 8000e6e:	bf00      	nop
 8000e70:	bd80      	pop	{r7, pc}
	...

08000e74 <TIM6_DAC_IRQHandler>:

/**
  * @brief This function handles TIM6 global interrupt, DAC1_CH1 and DAC1_CH2 underrun error interrupts.
  */
void TIM6_DAC_IRQHandler(void)
{
 8000e74:	b580      	push	{r7, lr}
 8000e76:	af00      	add	r7, sp, #0
  /* USER CODE BEGIN TIM6_DAC_IRQn 0 */

  /* USER CODE END TIM6_DAC_IRQn 0 */
  HAL_TIM_IRQHandler(&htim6);
 8000e78:	4802      	ldr	r0, [pc, #8]	@ (8000e84 <TIM6_DAC_IRQHandler+0x10>)
 8000e7a:	f004 fb5f 	bl	800553c <HAL_TIM_IRQHandler>
  /* USER CODE BEGIN TIM6_DAC_IRQn 1 */

  /* USER CODE END TIM6_DAC_IRQn 1 */
}
 8000e7e:	bf00      	nop
 8000e80:	bd80      	pop	{r7, pc}
 8000e82:	bf00      	nop
 8000e84:	24000450 	.word	0x24000450

08000e88 <OTG_HS_IRQHandler>:

/**
  * @brief This function handles USB OTG HS global interrupt.
  */
void OTG_HS_IRQHandler(void)
{
 8000e88:	b580      	push	{r7, lr}
 8000e8a:	af00      	add	r7, sp, #0
  /* USER CODE BEGIN OTG_HS_IRQn 0 */

  /* USER CODE END OTG_HS_IRQn 0 */
  HAL_PCD_IRQHandler(&hpcd_USB_OTG_HS);
 8000e8c:	4802      	ldr	r0, [pc, #8]	@ (8000e98 <OTG_HS_IRQHandler+0x10>)
 8000e8e:	f000 fe75 	bl	8001b7c <HAL_PCD_IRQHandler>
  /* USER CODE BEGIN OTG_HS_IRQn 1 */

  /* USER CODE END OTG_HS_IRQn 1 */
}
 8000e92:	bf00      	nop
 8000e94:	bd80      	pop	{r7, pc}
 8000e96:	bf00      	nop
 8000e98:	24001980 	.word	0x24001980

08000e9c <SystemInit>:
  *         configuration.
  * @param  None
  * @retval None
  */
void SystemInit (void)
{
 8000e9c:	b480      	push	{r7}
 8000e9e:	af00      	add	r7, sp, #0
 __IO uint32_t tmpreg;
#endif /* DATA_IN_D2_SRAM */

  /* FPU settings ------------------------------------------------------------*/
  #if (__FPU_PRESENT == 1) && (__FPU_USED == 1)
    SCB->CPACR |= ((3UL << (10*2))|(3UL << (11*2)));  /* set CP10 and CP11 Full Access */
 8000ea0:	4b3e      	ldr	r3, [pc, #248]	@ (8000f9c <SystemInit+0x100>)
 8000ea2:	f8d3 3088 	ldr.w	r3, [r3, #136]	@ 0x88
 8000ea6:	4a3d      	ldr	r2, [pc, #244]	@ (8000f9c <SystemInit+0x100>)
 8000ea8:	f443 0370 	orr.w	r3, r3, #15728640	@ 0xf00000
 8000eac:	f8c2 3088 	str.w	r3, [r2, #136]	@ 0x88
  #endif
  /* Reset the RCC clock configuration to the default reset state ------------*/

   /* Increasing the CPU frequency */
  if(FLASH_LATENCY_DEFAULT  > (READ_BIT((FLASH->ACR), FLASH_ACR_LATENCY)))
 8000eb0:	4b3b      	ldr	r3, [pc, #236]	@ (8000fa0 <SystemInit+0x104>)
 8000eb2:	681b      	ldr	r3, [r3, #0]
 8000eb4:	f003 030f 	and.w	r3, r3, #15
 8000eb8:	2b06      	cmp	r3, #6
 8000eba:	d807      	bhi.n	8000ecc <SystemInit+0x30>
  {
    /* Program the new number of wait states to the LATENCY bits in the FLASH_ACR register */
    MODIFY_REG(FLASH->ACR, FLASH_ACR_LATENCY, (uint32_t)(FLASH_LATENCY_DEFAULT));
 8000ebc:	4b38      	ldr	r3, [pc, #224]	@ (8000fa0 <SystemInit+0x104>)
 8000ebe:	681b      	ldr	r3, [r3, #0]
 8000ec0:	f023 030f 	bic.w	r3, r3, #15
 8000ec4:	4a36      	ldr	r2, [pc, #216]	@ (8000fa0 <SystemInit+0x104>)
 8000ec6:	f043 0307 	orr.w	r3, r3, #7
 8000eca:	6013      	str	r3, [r2, #0]
  }

  /* Set HSION bit */
  RCC->CR |= RCC_CR_HSION;
 8000ecc:	4b35      	ldr	r3, [pc, #212]	@ (8000fa4 <SystemInit+0x108>)
 8000ece:	681b      	ldr	r3, [r3, #0]
 8000ed0:	4a34      	ldr	r2, [pc, #208]	@ (8000fa4 <SystemInit+0x108>)
 8000ed2:	f043 0301 	orr.w	r3, r3, #1
 8000ed6:	6013      	str	r3, [r2, #0]

  /* Reset CFGR register */
  RCC->CFGR = 0x00000000;
 8000ed8:	4b32      	ldr	r3, [pc, #200]	@ (8000fa4 <SystemInit+0x108>)
 8000eda:	2200      	movs	r2, #0
 8000edc:	611a      	str	r2, [r3, #16]

  /* Reset HSEON, HSECSSON, CSION, HSI48ON, CSIKERON, PLL1ON, PLL2ON and PLL3ON bits */
  RCC->CR &= 0xEAF6ED7FU;
 8000ede:	4b31      	ldr	r3, [pc, #196]	@ (8000fa4 <SystemInit+0x108>)
 8000ee0:	681a      	ldr	r2, [r3, #0]
 8000ee2:	4930      	ldr	r1, [pc, #192]	@ (8000fa4 <SystemInit+0x108>)
 8000ee4:	4b30      	ldr	r3, [pc, #192]	@ (8000fa8 <SystemInit+0x10c>)
 8000ee6:	4013      	ands	r3, r2
 8000ee8:	600b      	str	r3, [r1, #0]

   /* Decreasing the number of wait states because of lower CPU frequency */
  if(FLASH_LATENCY_DEFAULT  < (READ_BIT((FLASH->ACR), FLASH_ACR_LATENCY)))
 8000eea:	4b2d      	ldr	r3, [pc, #180]	@ (8000fa0 <SystemInit+0x104>)
 8000eec:	681b      	ldr	r3, [r3, #0]
 8000eee:	f003 0308 	and.w	r3, r3, #8
 8000ef2:	2b00      	cmp	r3, #0
 8000ef4:	d007      	beq.n	8000f06 <SystemInit+0x6a>
  {
    /* Program the new number of wait states to the LATENCY bits in the FLASH_ACR register */
    MODIFY_REG(FLASH->ACR, FLASH_ACR_LATENCY, (uint32_t)(FLASH_LATENCY_DEFAULT));
 8000ef6:	4b2a      	ldr	r3, [pc, #168]	@ (8000fa0 <SystemInit+0x104>)
 8000ef8:	681b      	ldr	r3, [r3, #0]
 8000efa:	f023 030f 	bic.w	r3, r3, #15
 8000efe:	4a28      	ldr	r2, [pc, #160]	@ (8000fa0 <SystemInit+0x104>)
 8000f00:	f043 0307 	orr.w	r3, r3, #7
 8000f04:	6013      	str	r3, [r2, #0]
  }

#if defined(D3_SRAM_BASE)
  /* Reset D1CFGR register */
  RCC->D1CFGR = 0x00000000;
 8000f06:	4b27      	ldr	r3, [pc, #156]	@ (8000fa4 <SystemInit+0x108>)
 8000f08:	2200      	movs	r2, #0
 8000f0a:	619a      	str	r2, [r3, #24]

  /* Reset D2CFGR register */
  RCC->D2CFGR = 0x00000000;
 8000f0c:	4b25      	ldr	r3, [pc, #148]	@ (8000fa4 <SystemInit+0x108>)
 8000f0e:	2200      	movs	r2, #0
 8000f10:	61da      	str	r2, [r3, #28]

  /* Reset D3CFGR register */
  RCC->D3CFGR = 0x00000000;
 8000f12:	4b24      	ldr	r3, [pc, #144]	@ (8000fa4 <SystemInit+0x108>)
 8000f14:	2200      	movs	r2, #0
 8000f16:	621a      	str	r2, [r3, #32]

  /* Reset SRDCFGR register */
  RCC->SRDCFGR = 0x00000000;
#endif
  /* Reset PLLCKSELR register */
  RCC->PLLCKSELR = 0x02020200;
 8000f18:	4b22      	ldr	r3, [pc, #136]	@ (8000fa4 <SystemInit+0x108>)
 8000f1a:	4a24      	ldr	r2, [pc, #144]	@ (8000fac <SystemInit+0x110>)
 8000f1c:	629a      	str	r2, [r3, #40]	@ 0x28

  /* Reset PLLCFGR register */
  RCC->PLLCFGR = 0x01FF0000;
 8000f1e:	4b21      	ldr	r3, [pc, #132]	@ (8000fa4 <SystemInit+0x108>)
 8000f20:	4a23      	ldr	r2, [pc, #140]	@ (8000fb0 <SystemInit+0x114>)
 8000f22:	62da      	str	r2, [r3, #44]	@ 0x2c
  /* Reset PLL1DIVR register */
  RCC->PLL1DIVR = 0x01010280;
 8000f24:	4b1f      	ldr	r3, [pc, #124]	@ (8000fa4 <SystemInit+0x108>)
 8000f26:	4a23      	ldr	r2, [pc, #140]	@ (8000fb4 <SystemInit+0x118>)
 8000f28:	631a      	str	r2, [r3, #48]	@ 0x30
  /* Reset PLL1FRACR register */
  RCC->PLL1FRACR = 0x00000000;
 8000f2a:	4b1e      	ldr	r3, [pc, #120]	@ (8000fa4 <SystemInit+0x108>)
 8000f2c:	2200      	movs	r2, #0
 8000f2e:	635a      	str	r2, [r3, #52]	@ 0x34

  /* Reset PLL2DIVR register */
  RCC->PLL2DIVR = 0x01010280;
 8000f30:	4b1c      	ldr	r3, [pc, #112]	@ (8000fa4 <SystemInit+0x108>)
 8000f32:	4a20      	ldr	r2, [pc, #128]	@ (8000fb4 <SystemInit+0x118>)
 8000f34:	639a      	str	r2, [r3, #56]	@ 0x38

  /* Reset PLL2FRACR register */

  RCC->PLL2FRACR = 0x00000000;
 8000f36:	4b1b      	ldr	r3, [pc, #108]	@ (8000fa4 <SystemInit+0x108>)
 8000f38:	2200      	movs	r2, #0
 8000f3a:	63da      	str	r2, [r3, #60]	@ 0x3c
  /* Reset PLL3DIVR register */
  RCC->PLL3DIVR = 0x01010280;
 8000f3c:	4b19      	ldr	r3, [pc, #100]	@ (8000fa4 <SystemInit+0x108>)
 8000f3e:	4a1d      	ldr	r2, [pc, #116]	@ (8000fb4 <SystemInit+0x118>)
 8000f40:	641a      	str	r2, [r3, #64]	@ 0x40

  /* Reset PLL3FRACR register */
  RCC->PLL3FRACR = 0x00000000;
 8000f42:	4b18      	ldr	r3, [pc, #96]	@ (8000fa4 <SystemInit+0x108>)
 8000f44:	2200      	movs	r2, #0
 8000f46:	645a      	str	r2, [r3, #68]	@ 0x44

  /* Reset HSEBYP bit */
  RCC->CR &= 0xFFFBFFFFU;
 8000f48:	4b16      	ldr	r3, [pc, #88]	@ (8000fa4 <SystemInit+0x108>)
 8000f4a:	681b      	ldr	r3, [r3, #0]
 8000f4c:	4a15      	ldr	r2, [pc, #84]	@ (8000fa4 <SystemInit+0x108>)
 8000f4e:	f423 2380 	bic.w	r3, r3, #262144	@ 0x40000
 8000f52:	6013      	str	r3, [r2, #0]

  /* Disable all interrupts */
  RCC->CIER = 0x00000000;
 8000f54:	4b13      	ldr	r3, [pc, #76]	@ (8000fa4 <SystemInit+0x108>)
 8000f56:	2200      	movs	r2, #0
 8000f58:	661a      	str	r2, [r3, #96]	@ 0x60
#if defined(USER_VECT_TAB_ADDRESS)
  SCB->VTOR = VECT_TAB_BASE_ADDRESS | VECT_TAB_OFFSET; /* Vector Table Relocation in Internal D2 AXI-RAM or in Internal FLASH */
#endif /* USER_VECT_TAB_ADDRESS */

#else
  if(READ_BIT(RCC->AHB3ENR, RCC_AHB3ENR_FMCEN) == 0U)
 8000f5a:	4b12      	ldr	r3, [pc, #72]	@ (8000fa4 <SystemInit+0x108>)
 8000f5c:	f8d3 30d4 	ldr.w	r3, [r3, #212]	@ 0xd4
 8000f60:	f403 5380 	and.w	r3, r3, #4096	@ 0x1000
 8000f64:	2b00      	cmp	r3, #0
 8000f66:	d113      	bne.n	8000f90 <SystemInit+0xf4>
  {
    /* Enable the FMC interface clock */
    SET_BIT(RCC->AHB3ENR, RCC_AHB3ENR_FMCEN);
 8000f68:	4b0e      	ldr	r3, [pc, #56]	@ (8000fa4 <SystemInit+0x108>)
 8000f6a:	f8d3 30d4 	ldr.w	r3, [r3, #212]	@ 0xd4
 8000f6e:	4a0d      	ldr	r2, [pc, #52]	@ (8000fa4 <SystemInit+0x108>)
 8000f70:	f443 5380 	orr.w	r3, r3, #4096	@ 0x1000
 8000f74:	f8c2 30d4 	str.w	r3, [r2, #212]	@ 0xd4
    /*
     * Disable the FMC bank1 (enabled after reset).
     * This, prevents CPU speculation access on this bank which blocks the use of FMC during
     * 24us. During this time the others FMC master (such as LTDC) cannot use it!
     */
    FMC_Bank1_R->BTCR[0] = 0x000030D2;
 8000f78:	4b0f      	ldr	r3, [pc, #60]	@ (8000fb8 <SystemInit+0x11c>)
 8000f7a:	f243 02d2 	movw	r2, #12498	@ 0x30d2
 8000f7e:	601a      	str	r2, [r3, #0]

    /* Disable the FMC interface clock */
    CLEAR_BIT(RCC->AHB3ENR, RCC_AHB3ENR_FMCEN);
 8000f80:	4b08      	ldr	r3, [pc, #32]	@ (8000fa4 <SystemInit+0x108>)
 8000f82:	f8d3 30d4 	ldr.w	r3, [r3, #212]	@ 0xd4
 8000f86:	4a07      	ldr	r2, [pc, #28]	@ (8000fa4 <SystemInit+0x108>)
 8000f88:	f423 5380 	bic.w	r3, r3, #4096	@ 0x1000
 8000f8c:	f8c2 30d4 	str.w	r3, [r2, #212]	@ 0xd4
#if defined(USER_VECT_TAB_ADDRESS)
  SCB->VTOR = VECT_TAB_BASE_ADDRESS | VECT_TAB_OFFSET; /* Vector Table Relocation in Internal D1 AXI-RAM or in Internal FLASH */
#endif /* USER_VECT_TAB_ADDRESS */

#endif /*DUAL_CORE && CORE_CM4*/
}
 8000f90:	bf00      	nop
 8000f92:	46bd      	mov	sp, r7
 8000f94:	f85d 7b04 	ldr.w	r7, [sp], #4
 8000f98:	4770      	bx	lr
 8000f9a:	bf00      	nop
 8000f9c:	e000ed00 	.word	0xe000ed00
 8000fa0:	52002000 	.word	0x52002000
 8000fa4:	58024400 	.word	0x58024400
 8000fa8:	eaf6ed7f 	.word	0xeaf6ed7f
 8000fac:	02020200 	.word	0x02020200
 8000fb0:	01ff0000 	.word	0x01ff0000
 8000fb4:	01010280 	.word	0x01010280
 8000fb8:	52004000 	.word	0x52004000

08000fbc <ExitRun0Mode>:
  #if defined(SMPS)
    /* Exit Run* mode by disabling SMPS and enabling LDO */
    PWR->CR3 = (PWR->CR3 & ~PWR_CR3_SMPSEN) | PWR_CR3_LDOEN;
  #else
    /* Enable LDO mode */
    PWR->CR3 |= PWR_CR3_LDOEN;
 8000fbc:	4b04      	ldr	r3, [pc, #16]	@ (8000fd0 <ExitRun0Mode+0x14>)
 8000fbe:	68da      	ldr	r2, [r3, #12]
 8000fc0:	f042 0202 	orr.w	r2, r2, #2
 8000fc4:	60da      	str	r2, [r3, #12]
  #endif /* SMPS */
  /* Wait till voltage level flag is set */
  while ((PWR->CSR1 & PWR_CSR1_ACTVOSRDY) == 0U)
 8000fc6:	685a      	ldr	r2, [r3, #4]
 8000fc8:	0492      	lsls	r2, r2, #18
 8000fca:	d5fc      	bpl.n	8000fc6 <ExitRun0Mode+0xa>
  while ((PWR->CSR1 & PWR_CSR1_ACTVOSRDY) == 0U)
  {}
#else
  /* No system power supply configuration is selected at exit Run* mode */
#endif /* USE_PWR_LDO_SUPPLY */
}
 8000fcc:	4770      	bx	lr
 8000fce:	bf00      	nop
 8000fd0:	58024800 	.word	0x58024800

08000fd4 <MX_TIM6_Init>:

TIM_HandleTypeDef htim6;

/* TIM6 init function */
void MX_TIM6_Init(void)
{
 8000fd4:	b580      	push	{r7, lr}
 8000fd6:	b084      	sub	sp, #16
 8000fd8:	af00      	add	r7, sp, #0

  /* USER CODE BEGIN TIM6_Init 0 */

  /* USER CODE END TIM6_Init 0 */

  TIM_MasterConfigTypeDef sMasterConfig = {0};
 8000fda:	1d3b      	adds	r3, r7, #4
 8000fdc:	2200      	movs	r2, #0
 8000fde:	601a      	str	r2, [r3, #0]
 8000fe0:	605a      	str	r2, [r3, #4]
 8000fe2:	609a      	str	r2, [r3, #8]

  /* USER CODE BEGIN TIM6_Init 1 */

  /* USER CODE END TIM6_Init 1 */
  htim6.Instance = TIM6;
 8000fe4:	4b14      	ldr	r3, [pc, #80]	@ (8001038 <MX_TIM6_Init+0x64>)
 8000fe6:	4a15      	ldr	r2, [pc, #84]	@ (800103c <MX_TIM6_Init+0x68>)
 8000fe8:	601a      	str	r2, [r3, #0]
  htim6.Init.Prescaler = 239;
 8000fea:	4b13      	ldr	r3, [pc, #76]	@ (8001038 <MX_TIM6_Init+0x64>)
 8000fec:	22ef      	movs	r2, #239	@ 0xef
 8000fee:	605a      	str	r2, [r3, #4]
  htim6.Init.CounterMode = TIM_COUNTERMODE_UP;
 8000ff0:	4b11      	ldr	r3, [pc, #68]	@ (8001038 <MX_TIM6_Init+0x64>)
 8000ff2:	2200      	movs	r2, #0
 8000ff4:	609a      	str	r2, [r3, #8]
  htim6.Init.Period = 999;
 8000ff6:	4b10      	ldr	r3, [pc, #64]	@ (8001038 <MX_TIM6_Init+0x64>)
 8000ff8:	f240 32e7 	movw	r2, #999	@ 0x3e7
 8000ffc:	60da      	str	r2, [r3, #12]
  htim6.Init.AutoReloadPreload = TIM_AUTORELOAD_PRELOAD_DISABLE;
 8000ffe:	4b0e      	ldr	r3, [pc, #56]	@ (8001038 <MX_TIM6_Init+0x64>)
 8001000:	2200      	movs	r2, #0
 8001002:	619a      	str	r2, [r3, #24]
  if (HAL_TIM_Base_Init(&htim6) != HAL_OK)
 8001004:	480c      	ldr	r0, [pc, #48]	@ (8001038 <MX_TIM6_Init+0x64>)
 8001006:	f004 f9bb 	bl	8005380 <HAL_TIM_Base_Init>
 800100a:	4603      	mov	r3, r0
 800100c:	2b00      	cmp	r3, #0
 800100e:	d001      	beq.n	8001014 <MX_TIM6_Init+0x40>
  {
    Error_Handler();
 8001010:	f7ff fee0 	bl	8000dd4 <Error_Handler>
  }
  sMasterConfig.MasterOutputTrigger = TIM_TRGO_RESET;
 8001014:	2300      	movs	r3, #0
 8001016:	607b      	str	r3, [r7, #4]
  sMasterConfig.MasterSlaveMode = TIM_MASTERSLAVEMODE_DISABLE;
 8001018:	2300      	movs	r3, #0
 800101a:	60fb      	str	r3, [r7, #12]
  if (HAL_TIMEx_MasterConfigSynchronization(&htim6, &sMasterConfig) != HAL_OK)
 800101c:	1d3b      	adds	r3, r7, #4
 800101e:	4619      	mov	r1, r3
 8001020:	4805      	ldr	r0, [pc, #20]	@ (8001038 <MX_TIM6_Init+0x64>)
 8001022:	f004 fc67 	bl	80058f4 <HAL_TIMEx_MasterConfigSynchronization>
 8001026:	4603      	mov	r3, r0
 8001028:	2b00      	cmp	r3, #0
 800102a:	d001      	beq.n	8001030 <MX_TIM6_Init+0x5c>
  {
    Error_Handler();
 800102c:	f7ff fed2 	bl	8000dd4 <Error_Handler>
  }
  /* USER CODE BEGIN TIM6_Init 2 */

  /* USER CODE END TIM6_Init 2 */

}
 8001030:	bf00      	nop
 8001032:	3710      	adds	r7, #16
 8001034:	46bd      	mov	sp, r7
 8001036:	bd80      	pop	{r7, pc}
 8001038:	24000450 	.word	0x24000450
 800103c:	40001000 	.word	0x40001000

08001040 <HAL_TIM_Base_MspInit>:

void HAL_TIM_Base_MspInit(TIM_HandleTypeDef* tim_baseHandle)
{
 8001040:	b580      	push	{r7, lr}
 8001042:	b084      	sub	sp, #16
 8001044:	af00      	add	r7, sp, #0
 8001046:	6078      	str	r0, [r7, #4]

  if(tim_baseHandle->Instance==TIM6)
 8001048:	687b      	ldr	r3, [r7, #4]
 800104a:	681b      	ldr	r3, [r3, #0]
 800104c:	4a0e      	ldr	r2, [pc, #56]	@ (8001088 <HAL_TIM_Base_MspInit+0x48>)
 800104e:	4293      	cmp	r3, r2
 8001050:	d116      	bne.n	8001080 <HAL_TIM_Base_MspInit+0x40>
  {
  /* USER CODE BEGIN TIM6_MspInit 0 */

  /* USER CODE END TIM6_MspInit 0 */
    /* TIM6 clock enable */
    __HAL_RCC_TIM6_CLK_ENABLE();
 8001052:	4b0e      	ldr	r3, [pc, #56]	@ (800108c <HAL_TIM_Base_MspInit+0x4c>)
 8001054:	f8d3 30e8 	ldr.w	r3, [r3, #232]	@ 0xe8
 8001058:	4a0c      	ldr	r2, [pc, #48]	@ (800108c <HAL_TIM_Base_MspInit+0x4c>)
 800105a:	f043 0310 	orr.w	r3, r3, #16
 800105e:	f8c2 30e8 	str.w	r3, [r2, #232]	@ 0xe8
 8001062:	4b0a      	ldr	r3, [pc, #40]	@ (800108c <HAL_TIM_Base_MspInit+0x4c>)
 8001064:	f8d3 30e8 	ldr.w	r3, [r3, #232]	@ 0xe8
 8001068:	f003 0310 	and.w	r3, r3, #16
 800106c:	60fb      	str	r3, [r7, #12]
 800106e:	68fb      	ldr	r3, [r7, #12]

    /* TIM6 interrupt Init */
    HAL_NVIC_SetPriority(TIM6_DAC_IRQn, 0, 0);
 8001070:	2200      	movs	r2, #0
 8001072:	2100      	movs	r1, #0
 8001074:	2036      	movs	r0, #54	@ 0x36
 8001076:	f000 f9c8 	bl	800140a <HAL_NVIC_SetPriority>
    HAL_NVIC_EnableIRQ(TIM6_DAC_IRQn);
 800107a:	2036      	movs	r0, #54	@ 0x36
 800107c:	f000 f9df 	bl	800143e <HAL_NVIC_EnableIRQ>
  /* USER CODE BEGIN TIM6_MspInit 1 */

  /* USER CODE END TIM6_MspInit 1 */
  }
}
 8001080:	bf00      	nop
 8001082:	3710      	adds	r7, #16
 8001084:	46bd      	mov	sp, r7
 8001086:	bd80      	pop	{r7, pc}
 8001088:	40001000 	.word	0x40001000
 800108c:	58024400 	.word	0x58024400

08001090 <Reset_Handler>:

    .section  .text.Reset_Handler
  .weak  Reset_Handler
  .type  Reset_Handler, %function
Reset_Handler:
  ldr   sp, =_estack      /* set stack pointer */
 8001090:	f8df d038 	ldr.w	sp, [pc, #56]	@ 80010cc <LoopForever+0x2>

/* Call the ExitRun0Mode function to configure the power supply */
  bl  ExitRun0Mode
 8001094:	f7ff ff92 	bl	8000fbc <ExitRun0Mode>
/* Call the clock system initialization function.*/
  bl  SystemInit
 8001098:	f7ff ff00 	bl	8000e9c <SystemInit>

/* Copy the data segment initializers from flash to SRAM */
  ldr r0, =_sdata
 800109c:	480c      	ldr	r0, [pc, #48]	@ (80010d0 <LoopForever+0x6>)
  ldr r1, =_edata
 800109e:	490d      	ldr	r1, [pc, #52]	@ (80010d4 <LoopForever+0xa>)
  ldr r2, =_sidata
 80010a0:	4a0d      	ldr	r2, [pc, #52]	@ (80010d8 <LoopForever+0xe>)
  movs r3, #0
 80010a2:	2300      	movs	r3, #0
  b LoopCopyDataInit
 80010a4:	e002      	b.n	80010ac <LoopCopyDataInit>

080010a6 <CopyDataInit>:

CopyDataInit:
  ldr r4, [r2, r3]
 80010a6:	58d4      	ldr	r4, [r2, r3]
  str r4, [r0, r3]
 80010a8:	50c4      	str	r4, [r0, r3]
  adds r3, r3, #4
 80010aa:	3304      	adds	r3, #4

080010ac <LoopCopyDataInit>:

LoopCopyDataInit:
  adds r4, r0, r3
 80010ac:	18c4      	adds	r4, r0, r3
  cmp r4, r1
 80010ae:	428c      	cmp	r4, r1
  bcc CopyDataInit
 80010b0:	d3f9      	bcc.n	80010a6 <CopyDataInit>
/* Zero fill the bss segment. */
  ldr r2, =_sbss
 80010b2:	4a0a      	ldr	r2, [pc, #40]	@ (80010dc <LoopForever+0x12>)
  ldr r4, =_ebss
 80010b4:	4c0a      	ldr	r4, [pc, #40]	@ (80010e0 <LoopForever+0x16>)
  movs r3, #0
 80010b6:	2300      	movs	r3, #0
  b LoopFillZerobss
 80010b8:	e001      	b.n	80010be <LoopFillZerobss>

080010ba <FillZerobss>:

FillZerobss:
  str  r3, [r2]
 80010ba:	6013      	str	r3, [r2, #0]
  adds r2, r2, #4
 80010bc:	3204      	adds	r2, #4

080010be <LoopFillZerobss>:

LoopFillZerobss:
  cmp r2, r4
 80010be:	42a2      	cmp	r2, r4
  bcc FillZerobss
 80010c0:	d3fb      	bcc.n	80010ba <FillZerobss>

/* Call static constructors */
    bl __libc_init_array
 80010c2:	f008 fdc3 	bl	8009c4c <__libc_init_array>
/* Call the application's entry point.*/
    bl  main
 80010c6:	f7ff fd71 	bl	8000bac <main>

080010ca <LoopForever>:
LoopForever:
    b LoopForever
 80010ca:	e7fe      	b.n	80010ca <LoopForever>
  ldr   sp, =_estack      /* set stack pointer */
 80010cc:	24050000 	.word	0x24050000
  ldr r0, =_sdata
 80010d0:	24000000 	.word	0x24000000
  ldr r1, =_edata
 80010d4:	24000104 	.word	0x24000104
  ldr r2, =_sidata
 80010d8:	08009d58 	.word	0x08009d58
  ldr r2, =_sbss
 80010dc:	24000104 	.word	0x24000104
  ldr r4, =_ebss
 80010e0:	24002084 	.word	0x24002084

080010e4 <ADC3_IRQHandler>:
 * @retval None
*/
    .section  .text.Default_Handler,"ax",%progbits
Default_Handler:
Infinite_Loop:
  b  Infinite_Loop
 80010e4:	e7fe      	b.n	80010e4 <ADC3_IRQHandler>
	...

080010e8 <HAL_Init>:
  *         need to ensure that the SysTick time base is always set to 1 millisecond
  *         to have correct HAL operation.
  * @retval HAL status
  */
HAL_StatusTypeDef HAL_Init(void)
{
 80010e8:	b580      	push	{r7, lr}
 80010ea:	b082      	sub	sp, #8
 80010ec:	af00      	add	r7, sp, #0
   __HAL_ART_CONFIG_BASE_ADDRESS(0x08100000UL);  /* Configure the Cortex-M4 ART Base address to the Flash Bank 2 : */
   __HAL_ART_ENABLE();                           /* Enable the Cortex-M4 ART */
#endif /* DUAL_CORE &&  CORE_CM4 */

  /* Set Interrupt Group Priority */
  HAL_NVIC_SetPriorityGrouping(NVIC_PRIORITYGROUP_4);
 80010ee:	2003      	movs	r0, #3
 80010f0:	f000 f980 	bl	80013f4 <HAL_NVIC_SetPriorityGrouping>

  /* Update the SystemCoreClock global variable */
#if defined(RCC_D1CFGR_D1CPRE)
  common_system_clock = HAL_RCC_GetSysClockFreq() >> ((D1CorePrescTable[(RCC->D1CFGR & RCC_D1CFGR_D1CPRE)>> RCC_D1CFGR_D1CPRE_Pos]) & 0x1FU);
 80010f4:	f002 fc96 	bl	8003a24 <HAL_RCC_GetSysClockFreq>
 80010f8:	4602      	mov	r2, r0
 80010fa:	4b15      	ldr	r3, [pc, #84]	@ (8001150 <HAL_Init+0x68>)
 80010fc:	699b      	ldr	r3, [r3, #24]
 80010fe:	0a1b      	lsrs	r3, r3, #8
 8001100:	f003 030f 	and.w	r3, r3, #15
 8001104:	4913      	ldr	r1, [pc, #76]	@ (8001154 <HAL_Init+0x6c>)
 8001106:	5ccb      	ldrb	r3, [r1, r3]
 8001108:	f003 031f 	and.w	r3, r3, #31
 800110c:	fa22 f303 	lsr.w	r3, r2, r3
 8001110:	607b      	str	r3, [r7, #4]
  common_system_clock = HAL_RCC_GetSysClockFreq() >> ((D1CorePrescTable[(RCC->CDCFGR1 & RCC_CDCFGR1_CDCPRE)>> RCC_CDCFGR1_CDCPRE_Pos]) & 0x1FU);
#endif

  /* Update the SystemD2Clock global variable */
#if defined(RCC_D1CFGR_HPRE)
  SystemD2Clock = (common_system_clock >> ((D1CorePrescTable[(RCC->D1CFGR & RCC_D1CFGR_HPRE)>> RCC_D1CFGR_HPRE_Pos]) & 0x1FU));
 8001112:	4b0f      	ldr	r3, [pc, #60]	@ (8001150 <HAL_Init+0x68>)
 8001114:	699b      	ldr	r3, [r3, #24]
 8001116:	f003 030f 	and.w	r3, r3, #15
 800111a:	4a0e      	ldr	r2, [pc, #56]	@ (8001154 <HAL_Init+0x6c>)
 800111c:	5cd3      	ldrb	r3, [r2, r3]
 800111e:	f003 031f 	and.w	r3, r3, #31
 8001122:	687a      	ldr	r2, [r7, #4]
 8001124:	fa22 f303 	lsr.w	r3, r2, r3
 8001128:	4a0b      	ldr	r2, [pc, #44]	@ (8001158 <HAL_Init+0x70>)
 800112a:	6013      	str	r3, [r2, #0]
#endif

#if defined(DUAL_CORE) && defined(CORE_CM4)
  SystemCoreClock = SystemD2Clock;
#else
  SystemCoreClock = common_system_clock;
 800112c:	4a0b      	ldr	r2, [pc, #44]	@ (800115c <HAL_Init+0x74>)
 800112e:	687b      	ldr	r3, [r7, #4]
 8001130:	6013      	str	r3, [r2, #0]
#endif /* DUAL_CORE && CORE_CM4 */

  /* Use systick as time base source and configure 1ms tick (default clock after Reset is HSI) */
  if(HAL_InitTick(TICK_INT_PRIORITY) != HAL_OK)
 8001132:	200f      	movs	r0, #15
 8001134:	f000 f814 	bl	8001160 <HAL_InitTick>
 8001138:	4603      	mov	r3, r0
 800113a:	2b00      	cmp	r3, #0
 800113c:	d001      	beq.n	8001142 <HAL_Init+0x5a>
  {
    return HAL_ERROR;
 800113e:	2301      	movs	r3, #1
 8001140:	e002      	b.n	8001148 <HAL_Init+0x60>
  }

  /* Init the low level hardware */
  HAL_MspInit();
 8001142:	f7ff fe4d 	bl	8000de0 <HAL_MspInit>

  /* Return function status */
  return HAL_OK;
 8001146:	2300      	movs	r3, #0
}
 8001148:	4618      	mov	r0, r3
 800114a:	3708      	adds	r7, #8
 800114c:	46bd      	mov	sp, r7
 800114e:	bd80      	pop	{r7, pc}
 8001150:	58024400 	.word	0x58024400
 8001154:	08009cf8 	.word	0x08009cf8
 8001158:	24000004 	.word	0x24000004
 800115c:	24000000 	.word	0x24000000

08001160 <HAL_InitTick>:
  *       implementation  in user file.
  * @param TickPriority: Tick interrupt priority.
  * @retval HAL status
  */
__weak HAL_StatusTypeDef HAL_InitTick(uint32_t TickPriority)
{
 8001160:	b580      	push	{r7, lr}
 8001162:	b082      	sub	sp, #8
 8001164:	af00      	add	r7, sp, #0
 8001166:	6078      	str	r0, [r7, #4]
  /* Check uwTickFreq for MisraC 2012 (even if uwTickFreq is a enum type that don't take the value zero)*/
  if((uint32_t)uwTickFreq == 0UL)
 8001168:	4b15      	ldr	r3, [pc, #84]	@ (80011c0 <HAL_InitTick+0x60>)
 800116a:	781b      	ldrb	r3, [r3, #0]
 800116c:	2b00      	cmp	r3, #0
 800116e:	d101      	bne.n	8001174 <HAL_InitTick+0x14>
  {
    return HAL_ERROR;
 8001170:	2301      	movs	r3, #1
 8001172:	e021      	b.n	80011b8 <HAL_InitTick+0x58>
  }

  /* Configure the SysTick to have interrupt in 1ms time basis*/
  if (HAL_SYSTICK_Config(SystemCoreClock / (1000UL / (uint32_t)uwTickFreq)) > 0U)
 8001174:	4b13      	ldr	r3, [pc, #76]	@ (80011c4 <HAL_InitTick+0x64>)
 8001176:	681a      	ldr	r2, [r3, #0]
 8001178:	4b11      	ldr	r3, [pc, #68]	@ (80011c0 <HAL_InitTick+0x60>)
 800117a:	781b      	ldrb	r3, [r3, #0]
 800117c:	4619      	mov	r1, r3
 800117e:	f44f 737a 	mov.w	r3, #1000	@ 0x3e8
 8001182:	fbb3 f3f1 	udiv	r3, r3, r1
 8001186:	fbb2 f3f3 	udiv	r3, r2, r3
 800118a:	4618      	mov	r0, r3
 800118c:	f000 f965 	bl	800145a <HAL_SYSTICK_Config>
 8001190:	4603      	mov	r3, r0
 8001192:	2b00      	cmp	r3, #0
 8001194:	d001      	beq.n	800119a <HAL_InitTick+0x3a>
  {
    return HAL_ERROR;
 8001196:	2301      	movs	r3, #1
 8001198:	e00e      	b.n	80011b8 <HAL_InitTick+0x58>
  }

  /* Configure the SysTick IRQ priority */
  if (TickPriority < (1UL << __NVIC_PRIO_BITS))
 800119a:	687b      	ldr	r3, [r7, #4]
 800119c:	2b0f      	cmp	r3, #15
 800119e:	d80a      	bhi.n	80011b6 <HAL_InitTick+0x56>
  {
    HAL_NVIC_SetPriority(SysTick_IRQn, TickPriority, 0U);
 80011a0:	2200      	movs	r2, #0
 80011a2:	6879      	ldr	r1, [r7, #4]
 80011a4:	f04f 30ff 	mov.w	r0, #4294967295
 80011a8:	f000 f92f 	bl	800140a <HAL_NVIC_SetPriority>
    uwTickPrio = TickPriority;
 80011ac:	4a06      	ldr	r2, [pc, #24]	@ (80011c8 <HAL_InitTick+0x68>)
 80011ae:	687b      	ldr	r3, [r7, #4]
 80011b0:	6013      	str	r3, [r2, #0]
  {
    return HAL_ERROR;
  }

  /* Return function status */
  return HAL_OK;
 80011b2:	2300      	movs	r3, #0
 80011b4:	e000      	b.n	80011b8 <HAL_InitTick+0x58>
    return HAL_ERROR;
 80011b6:	2301      	movs	r3, #1
}
 80011b8:	4618      	mov	r0, r3
 80011ba:	3708      	adds	r7, #8
 80011bc:	46bd      	mov	sp, r7
 80011be:	bd80      	pop	{r7, pc}
 80011c0:	2400000c 	.word	0x2400000c
 80011c4:	24000000 	.word	0x24000000
 80011c8:	24000008 	.word	0x24000008

080011cc <HAL_IncTick>:
 * @note This function is declared as __weak to be overwritten in case of other
  *      implementations in user file.
  * @retval None
  */
__weak void HAL_IncTick(void)
{
 80011cc:	b480      	push	{r7}
 80011ce:	af00      	add	r7, sp, #0
  uwTick += (uint32_t)uwTickFreq;
 80011d0:	4b06      	ldr	r3, [pc, #24]	@ (80011ec <HAL_IncTick+0x20>)
 80011d2:	781b      	ldrb	r3, [r3, #0]
 80011d4:	461a      	mov	r2, r3
 80011d6:	4b06      	ldr	r3, [pc, #24]	@ (80011f0 <HAL_IncTick+0x24>)
 80011d8:	681b      	ldr	r3, [r3, #0]
 80011da:	4413      	add	r3, r2
 80011dc:	4a04      	ldr	r2, [pc, #16]	@ (80011f0 <HAL_IncTick+0x24>)
 80011de:	6013      	str	r3, [r2, #0]
}
 80011e0:	bf00      	nop
 80011e2:	46bd      	mov	sp, r7
 80011e4:	f85d 7b04 	ldr.w	r7, [sp], #4
 80011e8:	4770      	bx	lr
 80011ea:	bf00      	nop
 80011ec:	2400000c 	.word	0x2400000c
 80011f0:	2400049c 	.word	0x2400049c

080011f4 <HAL_GetTick>:
  * @note This function is declared as __weak to be overwritten in case of other
  *       implementations in user file.
  * @retval tick value
  */
__weak uint32_t HAL_GetTick(void)
{
 80011f4:	b480      	push	{r7}
 80011f6:	af00      	add	r7, sp, #0
  return uwTick;
 80011f8:	4b03      	ldr	r3, [pc, #12]	@ (8001208 <HAL_GetTick+0x14>)
 80011fa:	681b      	ldr	r3, [r3, #0]
}
 80011fc:	4618      	mov	r0, r3
 80011fe:	46bd      	mov	sp, r7
 8001200:	f85d 7b04 	ldr.w	r7, [sp], #4
 8001204:	4770      	bx	lr
 8001206:	bf00      	nop
 8001208:	2400049c 	.word	0x2400049c

0800120c <HAL_Delay>:
  *       implementations in user file.
  * @param Delay  specifies the delay time length, in milliseconds.
  * @retval None
  */
__weak void HAL_Delay(uint32_t Delay)
{
 800120c:	b580      	push	{r7, lr}
 800120e:	b084      	sub	sp, #16
 8001210:	af00      	add	r7, sp, #0
 8001212:	6078      	str	r0, [r7, #4]
  uint32_t tickstart = HAL_GetTick();
 8001214:	f7ff ffee 	bl	80011f4 <HAL_GetTick>
 8001218:	60b8      	str	r0, [r7, #8]
  uint32_t wait = Delay;
 800121a:	687b      	ldr	r3, [r7, #4]
 800121c:	60fb      	str	r3, [r7, #12]

  /* Add a freq to guarantee minimum wait */
  if (wait < HAL_MAX_DELAY)
 800121e:	68fb      	ldr	r3, [r7, #12]
 8001220:	f1b3 3fff 	cmp.w	r3, #4294967295
 8001224:	d005      	beq.n	8001232 <HAL_Delay+0x26>
  {
    wait += (uint32_t)(uwTickFreq);
 8001226:	4b0a      	ldr	r3, [pc, #40]	@ (8001250 <HAL_Delay+0x44>)
 8001228:	781b      	ldrb	r3, [r3, #0]
 800122a:	461a      	mov	r2, r3
 800122c:	68fb      	ldr	r3, [r7, #12]
 800122e:	4413      	add	r3, r2
 8001230:	60fb      	str	r3, [r7, #12]
  }

  while ((HAL_GetTick() - tickstart) < wait)
 8001232:	bf00      	nop
 8001234:	f7ff ffde 	bl	80011f4 <HAL_GetTick>
 8001238:	4602      	mov	r2, r0
 800123a:	68bb      	ldr	r3, [r7, #8]
 800123c:	1ad3      	subs	r3, r2, r3
 800123e:	68fa      	ldr	r2, [r7, #12]
 8001240:	429a      	cmp	r2, r3
 8001242:	d8f7      	bhi.n	8001234 <HAL_Delay+0x28>
  {
  }
}
 8001244:	bf00      	nop
 8001246:	bf00      	nop
 8001248:	3710      	adds	r7, #16
 800124a:	46bd      	mov	sp, r7
 800124c:	bd80      	pop	{r7, pc}
 800124e:	bf00      	nop
 8001250:	2400000c 	.word	0x2400000c

08001254 <__NVIC_SetPriorityGrouping>:
           In case of a conflict between priority grouping and available
           priority bits (__NVIC_PRIO_BITS), the smallest possible priority group is set.
  \param [in]      PriorityGroup  Priority grouping field.
 */
__STATIC_INLINE void __NVIC_SetPriorityGrouping(uint32_t PriorityGroup)
{
 8001254:	b480      	push	{r7}
 8001256:	b085      	sub	sp, #20
 8001258:	af00      	add	r7, sp, #0
 800125a:	6078      	str	r0, [r7, #4]
  uint32_t reg_value;
  uint32_t PriorityGroupTmp = (PriorityGroup & (uint32_t)0x07UL);             /* only values 0..7 are used          */
 800125c:	687b      	ldr	r3, [r7, #4]
 800125e:	f003 0307 	and.w	r3, r3, #7
 8001262:	60fb      	str	r3, [r7, #12]

  reg_value  =  SCB->AIRCR;                                                   /* read old register configuration    */
 8001264:	4b0b      	ldr	r3, [pc, #44]	@ (8001294 <__NVIC_SetPriorityGrouping+0x40>)
 8001266:	68db      	ldr	r3, [r3, #12]
 8001268:	60bb      	str	r3, [r7, #8]
  reg_value &= ~((uint32_t)(SCB_AIRCR_VECTKEY_Msk | SCB_AIRCR_PRIGROUP_Msk)); /* clear bits to change               */
 800126a:	68ba      	ldr	r2, [r7, #8]
 800126c:	f64f 03ff 	movw	r3, #63743	@ 0xf8ff
 8001270:	4013      	ands	r3, r2
 8001272:	60bb      	str	r3, [r7, #8]
  reg_value  =  (reg_value                                   |
                ((uint32_t)0x5FAUL << SCB_AIRCR_VECTKEY_Pos) |
                (PriorityGroupTmp << SCB_AIRCR_PRIGROUP_Pos)  );              /* Insert write key and priority group */
 8001274:	68fb      	ldr	r3, [r7, #12]
 8001276:	021a      	lsls	r2, r3, #8
                ((uint32_t)0x5FAUL << SCB_AIRCR_VECTKEY_Pos) |
 8001278:	68bb      	ldr	r3, [r7, #8]
 800127a:	431a      	orrs	r2, r3
  reg_value  =  (reg_value                                   |
 800127c:	4b06      	ldr	r3, [pc, #24]	@ (8001298 <__NVIC_SetPriorityGrouping+0x44>)
 800127e:	4313      	orrs	r3, r2
 8001280:	60bb      	str	r3, [r7, #8]
  SCB->AIRCR =  reg_value;
 8001282:	4a04      	ldr	r2, [pc, #16]	@ (8001294 <__NVIC_SetPriorityGrouping+0x40>)
 8001284:	68bb      	ldr	r3, [r7, #8]
 8001286:	60d3      	str	r3, [r2, #12]
}
 8001288:	bf00      	nop
 800128a:	3714      	adds	r7, #20
 800128c:	46bd      	mov	sp, r7
 800128e:	f85d 7b04 	ldr.w	r7, [sp], #4
 8001292:	4770      	bx	lr
 8001294:	e000ed00 	.word	0xe000ed00
 8001298:	05fa0000 	.word	0x05fa0000

0800129c <__NVIC_GetPriorityGrouping>:
  \brief   Get Priority Grouping
  \details Reads the priority grouping field from the NVIC Interrupt Controller.
  \return                Priority grouping field (SCB->AIRCR [10:8] PRIGROUP field).
 */
__STATIC_INLINE uint32_t __NVIC_GetPriorityGrouping(void)
{
 800129c:	b480      	push	{r7}
 800129e:	af00      	add	r7, sp, #0
  return ((uint32_t)((SCB->AIRCR & SCB_AIRCR_PRIGROUP_Msk) >> SCB_AIRCR_PRIGROUP_Pos));
 80012a0:	4b04      	ldr	r3, [pc, #16]	@ (80012b4 <__NVIC_GetPriorityGrouping+0x18>)
 80012a2:	68db      	ldr	r3, [r3, #12]
 80012a4:	0a1b      	lsrs	r3, r3, #8
 80012a6:	f003 0307 	and.w	r3, r3, #7
}
 80012aa:	4618      	mov	r0, r3
 80012ac:	46bd      	mov	sp, r7
 80012ae:	f85d 7b04 	ldr.w	r7, [sp], #4
 80012b2:	4770      	bx	lr
 80012b4:	e000ed00 	.word	0xe000ed00

080012b8 <__NVIC_EnableIRQ>:
  \details Enables a device specific interrupt in the NVIC interrupt controller.
  \param [in]      IRQn  Device specific interrupt number.
  \note    IRQn must not be negative.
 */
__STATIC_INLINE void __NVIC_EnableIRQ(IRQn_Type IRQn)
{
 80012b8:	b480      	push	{r7}
 80012ba:	b083      	sub	sp, #12
 80012bc:	af00      	add	r7, sp, #0
 80012be:	4603      	mov	r3, r0
 80012c0:	80fb      	strh	r3, [r7, #6]
  if ((int32_t)(IRQn) >= 0)
 80012c2:	f9b7 3006 	ldrsh.w	r3, [r7, #6]
 80012c6:	2b00      	cmp	r3, #0
 80012c8:	db0b      	blt.n	80012e2 <__NVIC_EnableIRQ+0x2a>
  {
    __COMPILER_BARRIER();
    NVIC->ISER[(((uint32_t)IRQn) >> 5UL)] = (uint32_t)(1UL << (((uint32_t)IRQn) & 0x1FUL));
 80012ca:	88fb      	ldrh	r3, [r7, #6]
 80012cc:	f003 021f 	and.w	r2, r3, #31
 80012d0:	4907      	ldr	r1, [pc, #28]	@ (80012f0 <__NVIC_EnableIRQ+0x38>)
 80012d2:	f9b7 3006 	ldrsh.w	r3, [r7, #6]
 80012d6:	095b      	lsrs	r3, r3, #5
 80012d8:	2001      	movs	r0, #1
 80012da:	fa00 f202 	lsl.w	r2, r0, r2
 80012de:	f841 2023 	str.w	r2, [r1, r3, lsl #2]
    __COMPILER_BARRIER();
  }
}
 80012e2:	bf00      	nop
 80012e4:	370c      	adds	r7, #12
 80012e6:	46bd      	mov	sp, r7
 80012e8:	f85d 7b04 	ldr.w	r7, [sp], #4
 80012ec:	4770      	bx	lr
 80012ee:	bf00      	nop
 80012f0:	e000e100 	.word	0xe000e100

080012f4 <__NVIC_SetPriority>:
  \param [in]      IRQn  Interrupt number.
  \param [in]  priority  Priority to set.
  \note    The priority cannot be set for every processor exception.
 */
__STATIC_INLINE void __NVIC_SetPriority(IRQn_Type IRQn, uint32_t priority)
{
 80012f4:	b480      	push	{r7}
 80012f6:	b083      	sub	sp, #12
 80012f8:	af00      	add	r7, sp, #0
 80012fa:	4603      	mov	r3, r0
 80012fc:	6039      	str	r1, [r7, #0]
 80012fe:	80fb      	strh	r3, [r7, #6]
  if ((int32_t)(IRQn) >= 0)
 8001300:	f9b7 3006 	ldrsh.w	r3, [r7, #6]
 8001304:	2b00      	cmp	r3, #0
 8001306:	db0a      	blt.n	800131e <__NVIC_SetPriority+0x2a>
  {
    NVIC->IP[((uint32_t)IRQn)]                = (uint8_t)((priority << (8U - __NVIC_PRIO_BITS)) & (uint32_t)0xFFUL);
 8001308:	683b      	ldr	r3, [r7, #0]
 800130a:	b2da      	uxtb	r2, r3
 800130c:	490c      	ldr	r1, [pc, #48]	@ (8001340 <__NVIC_SetPriority+0x4c>)
 800130e:	f9b7 3006 	ldrsh.w	r3, [r7, #6]
 8001312:	0112      	lsls	r2, r2, #4
 8001314:	b2d2      	uxtb	r2, r2
 8001316:	440b      	add	r3, r1
 8001318:	f883 2300 	strb.w	r2, [r3, #768]	@ 0x300
  }
  else
  {
    SCB->SHPR[(((uint32_t)IRQn) & 0xFUL)-4UL] = (uint8_t)((priority << (8U - __NVIC_PRIO_BITS)) & (uint32_t)0xFFUL);
  }
}
 800131c:	e00a      	b.n	8001334 <__NVIC_SetPriority+0x40>
    SCB->SHPR[(((uint32_t)IRQn) & 0xFUL)-4UL] = (uint8_t)((priority << (8U - __NVIC_PRIO_BITS)) & (uint32_t)0xFFUL);
 800131e:	683b      	ldr	r3, [r7, #0]
 8001320:	b2da      	uxtb	r2, r3
 8001322:	4908      	ldr	r1, [pc, #32]	@ (8001344 <__NVIC_SetPriority+0x50>)
 8001324:	88fb      	ldrh	r3, [r7, #6]
 8001326:	f003 030f 	and.w	r3, r3, #15
 800132a:	3b04      	subs	r3, #4
 800132c:	0112      	lsls	r2, r2, #4
 800132e:	b2d2      	uxtb	r2, r2
 8001330:	440b      	add	r3, r1
 8001332:	761a      	strb	r2, [r3, #24]
}
 8001334:	bf00      	nop
 8001336:	370c      	adds	r7, #12
 8001338:	46bd      	mov	sp, r7
 800133a:	f85d 7b04 	ldr.w	r7, [sp], #4
 800133e:	4770      	bx	lr
 8001340:	e000e100 	.word	0xe000e100
 8001344:	e000ed00 	.word	0xe000ed00

08001348 <NVIC_EncodePriority>:
  \param [in]   PreemptPriority  Preemptive priority value (starting from 0).
  \param [in]       SubPriority  Subpriority value (starting from 0).
  \return                        Encoded priority. Value can be used in the function \ref NVIC_SetPriority().
 */
__STATIC_INLINE uint32_t NVIC_EncodePriority (uint32_t PriorityGroup, uint32_t PreemptPriority, uint32_t SubPriority)
{
 8001348:	b480      	push	{r7}
 800134a:	b089      	sub	sp, #36	@ 0x24
 800134c:	af00      	add	r7, sp, #0
 800134e:	60f8      	str	r0, [r7, #12]
 8001350:	60b9      	str	r1, [r7, #8]
 8001352:	607a      	str	r2, [r7, #4]
  uint32_t PriorityGroupTmp = (PriorityGroup & (uint32_t)0x07UL);   /* only values 0..7 are used          */
 8001354:	68fb      	ldr	r3, [r7, #12]
 8001356:	f003 0307 	and.w	r3, r3, #7
 800135a:	61fb      	str	r3, [r7, #28]
  uint32_t PreemptPriorityBits;
  uint32_t SubPriorityBits;

  PreemptPriorityBits = ((7UL - PriorityGroupTmp) > (uint32_t)(__NVIC_PRIO_BITS)) ? (uint32_t)(__NVIC_PRIO_BITS) : (uint32_t)(7UL - PriorityGroupTmp);
 800135c:	69fb      	ldr	r3, [r7, #28]
 800135e:	f1c3 0307 	rsb	r3, r3, #7
 8001362:	2b04      	cmp	r3, #4
 8001364:	bf28      	it	cs
 8001366:	2304      	movcs	r3, #4
 8001368:	61bb      	str	r3, [r7, #24]
  SubPriorityBits     = ((PriorityGroupTmp + (uint32_t)(__NVIC_PRIO_BITS)) < (uint32_t)7UL) ? (uint32_t)0UL : (uint32_t)((PriorityGroupTmp - 7UL) + (uint32_t)(__NVIC_PRIO_BITS));
 800136a:	69fb      	ldr	r3, [r7, #28]
 800136c:	3304      	adds	r3, #4
 800136e:	2b06      	cmp	r3, #6
 8001370:	d902      	bls.n	8001378 <NVIC_EncodePriority+0x30>
 8001372:	69fb      	ldr	r3, [r7, #28]
 8001374:	3b03      	subs	r3, #3
 8001376:	e000      	b.n	800137a <NVIC_EncodePriority+0x32>
 8001378:	2300      	movs	r3, #0
 800137a:	617b      	str	r3, [r7, #20]

  return (
           ((PreemptPriority & (uint32_t)((1UL << (PreemptPriorityBits)) - 1UL)) << SubPriorityBits) |
 800137c:	f04f 32ff 	mov.w	r2, #4294967295
 8001380:	69bb      	ldr	r3, [r7, #24]
 8001382:	fa02 f303 	lsl.w	r3, r2, r3
 8001386:	43da      	mvns	r2, r3
 8001388:	68bb      	ldr	r3, [r7, #8]
 800138a:	401a      	ands	r2, r3
 800138c:	697b      	ldr	r3, [r7, #20]
 800138e:	409a      	lsls	r2, r3
           ((SubPriority     & (uint32_t)((1UL << (SubPriorityBits    )) - 1UL)))
 8001390:	f04f 31ff 	mov.w	r1, #4294967295
 8001394:	697b      	ldr	r3, [r7, #20]
 8001396:	fa01 f303 	lsl.w	r3, r1, r3
 800139a:	43d9      	mvns	r1, r3
 800139c:	687b      	ldr	r3, [r7, #4]
 800139e:	400b      	ands	r3, r1
           ((PreemptPriority & (uint32_t)((1UL << (PreemptPriorityBits)) - 1UL)) << SubPriorityBits) |
 80013a0:	4313      	orrs	r3, r2
         );
}
 80013a2:	4618      	mov	r0, r3
 80013a4:	3724      	adds	r7, #36	@ 0x24
 80013a6:	46bd      	mov	sp, r7
 80013a8:	f85d 7b04 	ldr.w	r7, [sp], #4
 80013ac:	4770      	bx	lr
	...

080013b0 <SysTick_Config>:
  \note    When the variable <b>__Vendor_SysTickConfig</b> is set to 1, then the
           function <b>SysTick_Config</b> is not included. In this case, the file <b><i>device</i>.h</b>
           must contain a vendor-specific implementation of this function.
 */
__STATIC_INLINE uint32_t SysTick_Config(uint32_t ticks)
{
 80013b0:	b580      	push	{r7, lr}
 80013b2:	b082      	sub	sp, #8
 80013b4:	af00      	add	r7, sp, #0
 80013b6:	6078      	str	r0, [r7, #4]
  if ((ticks - 1UL) > SysTick_LOAD_RELOAD_Msk)
 80013b8:	687b      	ldr	r3, [r7, #4]
 80013ba:	3b01      	subs	r3, #1
 80013bc:	f1b3 7f80 	cmp.w	r3, #16777216	@ 0x1000000
 80013c0:	d301      	bcc.n	80013c6 <SysTick_Config+0x16>
  {
    return (1UL);                                                   /* Reload value impossible */
 80013c2:	2301      	movs	r3, #1
 80013c4:	e00f      	b.n	80013e6 <SysTick_Config+0x36>
  }

  SysTick->LOAD  = (uint32_t)(ticks - 1UL);                         /* set reload register */
 80013c6:	4a0a      	ldr	r2, [pc, #40]	@ (80013f0 <SysTick_Config+0x40>)
 80013c8:	687b      	ldr	r3, [r7, #4]
 80013ca:	3b01      	subs	r3, #1
 80013cc:	6053      	str	r3, [r2, #4]
  NVIC_SetPriority (SysTick_IRQn, (1UL << __NVIC_PRIO_BITS) - 1UL); /* set Priority for Systick Interrupt */
 80013ce:	210f      	movs	r1, #15
 80013d0:	f04f 30ff 	mov.w	r0, #4294967295
 80013d4:	f7ff ff8e 	bl	80012f4 <__NVIC_SetPriority>
  SysTick->VAL   = 0UL;                                             /* Load the SysTick Counter Value */
 80013d8:	4b05      	ldr	r3, [pc, #20]	@ (80013f0 <SysTick_Config+0x40>)
 80013da:	2200      	movs	r2, #0
 80013dc:	609a      	str	r2, [r3, #8]
  SysTick->CTRL  = SysTick_CTRL_CLKSOURCE_Msk |
 80013de:	4b04      	ldr	r3, [pc, #16]	@ (80013f0 <SysTick_Config+0x40>)
 80013e0:	2207      	movs	r2, #7
 80013e2:	601a      	str	r2, [r3, #0]
                   SysTick_CTRL_TICKINT_Msk   |
                   SysTick_CTRL_ENABLE_Msk;                         /* Enable SysTick IRQ and SysTick Timer */
  return (0UL);                                                     /* Function successful */
 80013e4:	2300      	movs	r3, #0
}
 80013e6:	4618      	mov	r0, r3
 80013e8:	3708      	adds	r7, #8
 80013ea:	46bd      	mov	sp, r7
 80013ec:	bd80      	pop	{r7, pc}
 80013ee:	bf00      	nop
 80013f0:	e000e010 	.word	0xe000e010

080013f4 <HAL_NVIC_SetPriorityGrouping>:
  * @note   When the NVIC_PriorityGroup_0 is selected, IRQ preemption is no more possible.
  *         The pending IRQ priority will be managed only by the subpriority.
  * @retval None
  */
void HAL_NVIC_SetPriorityGrouping(uint32_t PriorityGroup)
{
 80013f4:	b580      	push	{r7, lr}
 80013f6:	b082      	sub	sp, #8
 80013f8:	af00      	add	r7, sp, #0
 80013fa:	6078      	str	r0, [r7, #4]
  /* Check the parameters */
  assert_param(IS_NVIC_PRIORITY_GROUP(PriorityGroup));

  /* Set the PRIGROUP[10:8] bits according to the PriorityGroup parameter value */
  NVIC_SetPriorityGrouping(PriorityGroup);
 80013fc:	6878      	ldr	r0, [r7, #4]
 80013fe:	f7ff ff29 	bl	8001254 <__NVIC_SetPriorityGrouping>
}
 8001402:	bf00      	nop
 8001404:	3708      	adds	r7, #8
 8001406:	46bd      	mov	sp, r7
 8001408:	bd80      	pop	{r7, pc}

0800140a <HAL_NVIC_SetPriority>:
  *         This parameter can be a value between 0 and 15
  *         A lower priority value indicates a higher priority.
  * @retval None
  */
void HAL_NVIC_SetPriority(IRQn_Type IRQn, uint32_t PreemptPriority, uint32_t SubPriority)
{
 800140a:	b580      	push	{r7, lr}
 800140c:	b086      	sub	sp, #24
 800140e:	af00      	add	r7, sp, #0
 8001410:	4603      	mov	r3, r0
 8001412:	60b9      	str	r1, [r7, #8]
 8001414:	607a      	str	r2, [r7, #4]
 8001416:	81fb      	strh	r3, [r7, #14]

  /* Check the parameters */
  assert_param(IS_NVIC_SUB_PRIORITY(SubPriority));
  assert_param(IS_NVIC_PREEMPTION_PRIORITY(PreemptPriority));

  prioritygroup = NVIC_GetPriorityGrouping();
 8001418:	f7ff ff40 	bl	800129c <__NVIC_GetPriorityGrouping>
 800141c:	6178      	str	r0, [r7, #20]

  NVIC_SetPriority(IRQn, NVIC_EncodePriority(prioritygroup, PreemptPriority, SubPriority));
 800141e:	687a      	ldr	r2, [r7, #4]
 8001420:	68b9      	ldr	r1, [r7, #8]
 8001422:	6978      	ldr	r0, [r7, #20]
 8001424:	f7ff ff90 	bl	8001348 <NVIC_EncodePriority>
 8001428:	4602      	mov	r2, r0
 800142a:	f9b7 300e 	ldrsh.w	r3, [r7, #14]
 800142e:	4611      	mov	r1, r2
 8001430:	4618      	mov	r0, r3
 8001432:	f7ff ff5f 	bl	80012f4 <__NVIC_SetPriority>
}
 8001436:	bf00      	nop
 8001438:	3718      	adds	r7, #24
 800143a:	46bd      	mov	sp, r7
 800143c:	bd80      	pop	{r7, pc}

0800143e <HAL_NVIC_EnableIRQ>:
  *         This parameter can be an enumerator of IRQn_Type enumeration
  *         (For the complete STM32 Devices IRQ Channels list, please refer to the appropriate CMSIS device file (stm32h7xxxx.h))
  * @retval None
  */
void HAL_NVIC_EnableIRQ(IRQn_Type IRQn)
{
 800143e:	b580      	push	{r7, lr}
 8001440:	b082      	sub	sp, #8
 8001442:	af00      	add	r7, sp, #0
 8001444:	4603      	mov	r3, r0
 8001446:	80fb      	strh	r3, [r7, #6]
  /* Check the parameters */
  assert_param(IS_NVIC_DEVICE_IRQ(IRQn));

  /* Enable interrupt */
  NVIC_EnableIRQ(IRQn);
 8001448:	f9b7 3006 	ldrsh.w	r3, [r7, #6]
 800144c:	4618      	mov	r0, r3
 800144e:	f7ff ff33 	bl	80012b8 <__NVIC_EnableIRQ>
}
 8001452:	bf00      	nop
 8001454:	3708      	adds	r7, #8
 8001456:	46bd      	mov	sp, r7
 8001458:	bd80      	pop	{r7, pc}

0800145a <HAL_SYSTICK_Config>:
  * @param  TicksNumb Specifies the ticks Number of ticks between two interrupts.
  * @retval status   - 0  Function succeeded.
  *                  - 1  Function failed.
  */
uint32_t HAL_SYSTICK_Config(uint32_t TicksNumb)
{
 800145a:	b580      	push	{r7, lr}
 800145c:	b082      	sub	sp, #8
 800145e:	af00      	add	r7, sp, #0
 8001460:	6078      	str	r0, [r7, #4]
   return SysTick_Config(TicksNumb);
 8001462:	6878      	ldr	r0, [r7, #4]
 8001464:	f7ff ffa4 	bl	80013b0 <SysTick_Config>
 8001468:	4603      	mov	r3, r0
}
 800146a:	4618      	mov	r0, r3
 800146c:	3708      	adds	r7, #8
 800146e:	46bd      	mov	sp, r7
 8001470:	bd80      	pop	{r7, pc}
	...

08001474 <HAL_MPU_Disable>:
/**
  * @brief  Disables the MPU
  * @retval None
  */
void HAL_MPU_Disable(void)
{
 8001474:	b480      	push	{r7}
 8001476:	af00      	add	r7, sp, #0
  __ASM volatile ("dmb 0xF":::"memory");
 8001478:	f3bf 8f5f 	dmb	sy
}
 800147c:	bf00      	nop
  /* Make sure outstanding transfers are done */
  __DMB();

  /* Disable fault exceptions */
  SCB->SHCSR &= ~SCB_SHCSR_MEMFAULTENA_Msk;
 800147e:	4b07      	ldr	r3, [pc, #28]	@ (800149c <HAL_MPU_Disable+0x28>)
 8001480:	6a5b      	ldr	r3, [r3, #36]	@ 0x24
 8001482:	4a06      	ldr	r2, [pc, #24]	@ (800149c <HAL_MPU_Disable+0x28>)
 8001484:	f423 3380 	bic.w	r3, r3, #65536	@ 0x10000
 8001488:	6253      	str	r3, [r2, #36]	@ 0x24

  /* Disable the MPU and clear the control register*/
  MPU->CTRL = 0;
 800148a:	4b05      	ldr	r3, [pc, #20]	@ (80014a0 <HAL_MPU_Disable+0x2c>)
 800148c:	2200      	movs	r2, #0
 800148e:	605a      	str	r2, [r3, #4]
}
 8001490:	bf00      	nop
 8001492:	46bd      	mov	sp, r7
 8001494:	f85d 7b04 	ldr.w	r7, [sp], #4
 8001498:	4770      	bx	lr
 800149a:	bf00      	nop
 800149c:	e000ed00 	.word	0xe000ed00
 80014a0:	e000ed90 	.word	0xe000ed90

080014a4 <HAL_MPU_Enable>:
  *            @arg MPU_PRIVILEGED_DEFAULT
  *            @arg MPU_HFNMI_PRIVDEF
  * @retval None
  */
void HAL_MPU_Enable(uint32_t MPU_Control)
{
 80014a4:	b480      	push	{r7}
 80014a6:	b083      	sub	sp, #12
 80014a8:	af00      	add	r7, sp, #0
 80014aa:	6078      	str	r0, [r7, #4]
  /* Enable the MPU */
  MPU->CTRL = MPU_Control | MPU_CTRL_ENABLE_Msk;
 80014ac:	4a0b      	ldr	r2, [pc, #44]	@ (80014dc <HAL_MPU_Enable+0x38>)
 80014ae:	687b      	ldr	r3, [r7, #4]
 80014b0:	f043 0301 	orr.w	r3, r3, #1
 80014b4:	6053      	str	r3, [r2, #4]

  /* Enable fault exceptions */
  SCB->SHCSR |= SCB_SHCSR_MEMFAULTENA_Msk;
 80014b6:	4b0a      	ldr	r3, [pc, #40]	@ (80014e0 <HAL_MPU_Enable+0x3c>)
 80014b8:	6a5b      	ldr	r3, [r3, #36]	@ 0x24
 80014ba:	4a09      	ldr	r2, [pc, #36]	@ (80014e0 <HAL_MPU_Enable+0x3c>)
 80014bc:	f443 3380 	orr.w	r3, r3, #65536	@ 0x10000
 80014c0:	6253      	str	r3, [r2, #36]	@ 0x24
  __ASM volatile ("dsb 0xF":::"memory");
 80014c2:	f3bf 8f4f 	dsb	sy
}
 80014c6:	bf00      	nop
  __ASM volatile ("isb 0xF":::"memory");
 80014c8:	f3bf 8f6f 	isb	sy
}
 80014cc:	bf00      	nop

  /* Ensure MPU setting take effects */
  __DSB();
  __ISB();
}
 80014ce:	bf00      	nop
 80014d0:	370c      	adds	r7, #12
 80014d2:	46bd      	mov	sp, r7
 80014d4:	f85d 7b04 	ldr.w	r7, [sp], #4
 80014d8:	4770      	bx	lr
 80014da:	bf00      	nop
 80014dc:	e000ed90 	.word	0xe000ed90
 80014e0:	e000ed00 	.word	0xe000ed00

080014e4 <HAL_MPU_ConfigRegion>:
  * @param MPU_Init Pointer to a MPU_Region_InitTypeDef structure that contains
  *                the initialization and configuration information.
  * @retval None
  */
void HAL_MPU_ConfigRegion(const MPU_Region_InitTypeDef *MPU_Init)
{
 80014e4:	b480      	push	{r7}
 80014e6:	b083      	sub	sp, #12
 80014e8:	af00      	add	r7, sp, #0
 80014ea:	6078      	str	r0, [r7, #4]
  assert_param(IS_MPU_ACCESS_BUFFERABLE(MPU_Init->IsBufferable));
  assert_param(IS_MPU_SUB_REGION_DISABLE(MPU_Init->SubRegionDisable));
  assert_param(IS_MPU_REGION_SIZE(MPU_Init->Size));

  /* Set the Region number */
  MPU->RNR = MPU_Init->Number;
 80014ec:	687b      	ldr	r3, [r7, #4]
 80014ee:	785a      	ldrb	r2, [r3, #1]
 80014f0:	4b1b      	ldr	r3, [pc, #108]	@ (8001560 <HAL_MPU_ConfigRegion+0x7c>)
 80014f2:	609a      	str	r2, [r3, #8]

  /* Disable the Region */
  CLEAR_BIT(MPU->RASR, MPU_RASR_ENABLE_Msk);
 80014f4:	4b1a      	ldr	r3, [pc, #104]	@ (8001560 <HAL_MPU_ConfigRegion+0x7c>)
 80014f6:	691b      	ldr	r3, [r3, #16]
 80014f8:	4a19      	ldr	r2, [pc, #100]	@ (8001560 <HAL_MPU_ConfigRegion+0x7c>)
 80014fa:	f023 0301 	bic.w	r3, r3, #1
 80014fe:	6113      	str	r3, [r2, #16]

  /* Apply configuration */
  MPU->RBAR = MPU_Init->BaseAddress;
 8001500:	4a17      	ldr	r2, [pc, #92]	@ (8001560 <HAL_MPU_ConfigRegion+0x7c>)
 8001502:	687b      	ldr	r3, [r7, #4]
 8001504:	685b      	ldr	r3, [r3, #4]
 8001506:	60d3      	str	r3, [r2, #12]
  MPU->RASR = ((uint32_t)MPU_Init->DisableExec             << MPU_RASR_XN_Pos)   |
 8001508:	687b      	ldr	r3, [r7, #4]
 800150a:	7b1b      	ldrb	r3, [r3, #12]
 800150c:	071a      	lsls	r2, r3, #28
              ((uint32_t)MPU_Init->AccessPermission        << MPU_RASR_AP_Pos)   |
 800150e:	687b      	ldr	r3, [r7, #4]
 8001510:	7adb      	ldrb	r3, [r3, #11]
 8001512:	061b      	lsls	r3, r3, #24
  MPU->RASR = ((uint32_t)MPU_Init->DisableExec             << MPU_RASR_XN_Pos)   |
 8001514:	431a      	orrs	r2, r3
              ((uint32_t)MPU_Init->TypeExtField            << MPU_RASR_TEX_Pos)  |
 8001516:	687b      	ldr	r3, [r7, #4]
 8001518:	7a9b      	ldrb	r3, [r3, #10]
 800151a:	04db      	lsls	r3, r3, #19
              ((uint32_t)MPU_Init->AccessPermission        << MPU_RASR_AP_Pos)   |
 800151c:	431a      	orrs	r2, r3
              ((uint32_t)MPU_Init->IsShareable             << MPU_RASR_S_Pos)    |
 800151e:	687b      	ldr	r3, [r7, #4]
 8001520:	7b5b      	ldrb	r3, [r3, #13]
 8001522:	049b      	lsls	r3, r3, #18
              ((uint32_t)MPU_Init->TypeExtField            << MPU_RASR_TEX_Pos)  |
 8001524:	431a      	orrs	r2, r3
              ((uint32_t)MPU_Init->IsCacheable             << MPU_RASR_C_Pos)    |
 8001526:	687b      	ldr	r3, [r7, #4]
 8001528:	7b9b      	ldrb	r3, [r3, #14]
 800152a:	045b      	lsls	r3, r3, #17
              ((uint32_t)MPU_Init->IsShareable             << MPU_RASR_S_Pos)    |
 800152c:	431a      	orrs	r2, r3
              ((uint32_t)MPU_Init->IsBufferable            << MPU_RASR_B_Pos)    |
 800152e:	687b      	ldr	r3, [r7, #4]
 8001530:	7bdb      	ldrb	r3, [r3, #15]
 8001532:	041b      	lsls	r3, r3, #16
              ((uint32_t)MPU_Init->IsCacheable             << MPU_RASR_C_Pos)    |
 8001534:	431a      	orrs	r2, r3
              ((uint32_t)MPU_Init->SubRegionDisable        << MPU_RASR_SRD_Pos)  |
 8001536:	687b      	ldr	r3, [r7, #4]
 8001538:	7a5b      	ldrb	r3, [r3, #9]
 800153a:	021b      	lsls	r3, r3, #8
              ((uint32_t)MPU_Init->IsBufferable            << MPU_RASR_B_Pos)    |
 800153c:	431a      	orrs	r2, r3
              ((uint32_t)MPU_Init->Size                    << MPU_RASR_SIZE_Pos) |
 800153e:	687b      	ldr	r3, [r7, #4]
 8001540:	7a1b      	ldrb	r3, [r3, #8]
 8001542:	005b      	lsls	r3, r3, #1
              ((uint32_t)MPU_Init->SubRegionDisable        << MPU_RASR_SRD_Pos)  |
 8001544:	4313      	orrs	r3, r2
              ((uint32_t)MPU_Init->Enable                  << MPU_RASR_ENABLE_Pos);
 8001546:	687a      	ldr	r2, [r7, #4]
 8001548:	7812      	ldrb	r2, [r2, #0]
 800154a:	4611      	mov	r1, r2
  MPU->RASR = ((uint32_t)MPU_Init->DisableExec             << MPU_RASR_XN_Pos)   |
 800154c:	4a04      	ldr	r2, [pc, #16]	@ (8001560 <HAL_MPU_ConfigRegion+0x7c>)
              ((uint32_t)MPU_Init->Size                    << MPU_RASR_SIZE_Pos) |
 800154e:	430b      	orrs	r3, r1
  MPU->RASR = ((uint32_t)MPU_Init->DisableExec             << MPU_RASR_XN_Pos)   |
 8001550:	6113      	str	r3, [r2, #16]
}
 8001552:	bf00      	nop
 8001554:	370c      	adds	r7, #12
 8001556:	46bd      	mov	sp, r7
 8001558:	f85d 7b04 	ldr.w	r7, [sp], #4
 800155c:	4770      	bx	lr
 800155e:	bf00      	nop
 8001560:	e000ed90 	.word	0xe000ed90

08001564 <HAL_GPIO_Init>:
  * @param  GPIO_Init: pointer to a GPIO_InitTypeDef structure that contains
  *         the configuration information for the specified GPIO peripheral.
  * @retval None
  */
void HAL_GPIO_Init(GPIO_TypeDef  *GPIOx, const GPIO_InitTypeDef *GPIO_Init)
{
 8001564:	b480      	push	{r7}
 8001566:	b089      	sub	sp, #36	@ 0x24
 8001568:	af00      	add	r7, sp, #0
 800156a:	6078      	str	r0, [r7, #4]
 800156c:	6039      	str	r1, [r7, #0]
  uint32_t position = 0x00U;
 800156e:	2300      	movs	r3, #0
 8001570:	61fb      	str	r3, [r7, #28]
  EXTI_Core_TypeDef *EXTI_CurrentCPU;

#if defined(DUAL_CORE) && defined(CORE_CM4)
  EXTI_CurrentCPU = EXTI_D2; /* EXTI for CM4 CPU */
#else
  EXTI_CurrentCPU = EXTI_D1; /* EXTI for CM7 CPU */
 8001572:	4b8b      	ldr	r3, [pc, #556]	@ (80017a0 <HAL_GPIO_Init+0x23c>)
 8001574:	617b      	str	r3, [r7, #20]
  assert_param(IS_GPIO_ALL_INSTANCE(GPIOx));
  assert_param(IS_GPIO_PIN(GPIO_Init->Pin));
  assert_param(IS_GPIO_MODE(GPIO_Init->Mode));

  /* Configure the port pins */
  while (((GPIO_Init->Pin) >> position) != 0x00U)
 8001576:	e196      	b.n	80018a6 <HAL_GPIO_Init+0x342>
  {
    /* Get current io position */
    iocurrent = (GPIO_Init->Pin) & (1UL << position);
 8001578:	683b      	ldr	r3, [r7, #0]
 800157a:	681a      	ldr	r2, [r3, #0]
 800157c:	2101      	movs	r1, #1
 800157e:	69fb      	ldr	r3, [r7, #28]
 8001580:	fa01 f303 	lsl.w	r3, r1, r3
 8001584:	4013      	ands	r3, r2
 8001586:	613b      	str	r3, [r7, #16]

    if (iocurrent != 0x00U)
 8001588:	693b      	ldr	r3, [r7, #16]
 800158a:	2b00      	cmp	r3, #0
 800158c:	f000 8188 	beq.w	80018a0 <HAL_GPIO_Init+0x33c>
    {
      /*--------------------- GPIO Mode Configuration ------------------------*/
      /* In case of Output or Alternate function mode selection */
      if (((GPIO_Init->Mode & GPIO_MODE) == MODE_OUTPUT) || ((GPIO_Init->Mode & GPIO_MODE) == MODE_AF))
 8001590:	683b      	ldr	r3, [r7, #0]
 8001592:	685b      	ldr	r3, [r3, #4]
 8001594:	f003 0303 	and.w	r3, r3, #3
 8001598:	2b01      	cmp	r3, #1
 800159a:	d005      	beq.n	80015a8 <HAL_GPIO_Init+0x44>
 800159c:	683b      	ldr	r3, [r7, #0]
 800159e:	685b      	ldr	r3, [r3, #4]
 80015a0:	f003 0303 	and.w	r3, r3, #3
 80015a4:	2b02      	cmp	r3, #2
 80015a6:	d130      	bne.n	800160a <HAL_GPIO_Init+0xa6>
      {
        /* Check the Speed parameter */
        assert_param(IS_GPIO_SPEED(GPIO_Init->Speed));

        /* Configure the IO Speed */
        temp = GPIOx->OSPEEDR;
 80015a8:	687b      	ldr	r3, [r7, #4]
 80015aa:	689b      	ldr	r3, [r3, #8]
 80015ac:	61bb      	str	r3, [r7, #24]
        temp &= ~(GPIO_OSPEEDR_OSPEED0 << (position * 2U));
 80015ae:	69fb      	ldr	r3, [r7, #28]
 80015b0:	005b      	lsls	r3, r3, #1
 80015b2:	2203      	movs	r2, #3
 80015b4:	fa02 f303 	lsl.w	r3, r2, r3
 80015b8:	43db      	mvns	r3, r3
 80015ba:	69ba      	ldr	r2, [r7, #24]
 80015bc:	4013      	ands	r3, r2
 80015be:	61bb      	str	r3, [r7, #24]
        temp |= (GPIO_Init->Speed << (position * 2U));
 80015c0:	683b      	ldr	r3, [r7, #0]
 80015c2:	68da      	ldr	r2, [r3, #12]
 80015c4:	69fb      	ldr	r3, [r7, #28]
 80015c6:	005b      	lsls	r3, r3, #1
 80015c8:	fa02 f303 	lsl.w	r3, r2, r3
 80015cc:	69ba      	ldr	r2, [r7, #24]
 80015ce:	4313      	orrs	r3, r2
 80015d0:	61bb      	str	r3, [r7, #24]
        GPIOx->OSPEEDR = temp;
 80015d2:	687b      	ldr	r3, [r7, #4]
 80015d4:	69ba      	ldr	r2, [r7, #24]
 80015d6:	609a      	str	r2, [r3, #8]

        /* Configure the IO Output Type */
        temp = GPIOx->OTYPER;
 80015d8:	687b      	ldr	r3, [r7, #4]
 80015da:	685b      	ldr	r3, [r3, #4]
 80015dc:	61bb      	str	r3, [r7, #24]
        temp &= ~(GPIO_OTYPER_OT0 << position) ;
 80015de:	2201      	movs	r2, #1
 80015e0:	69fb      	ldr	r3, [r7, #28]
 80015e2:	fa02 f303 	lsl.w	r3, r2, r3
 80015e6:	43db      	mvns	r3, r3
 80015e8:	69ba      	ldr	r2, [r7, #24]
 80015ea:	4013      	ands	r3, r2
 80015ec:	61bb      	str	r3, [r7, #24]
        temp |= (((GPIO_Init->Mode & OUTPUT_TYPE) >> OUTPUT_TYPE_Pos) << position);
 80015ee:	683b      	ldr	r3, [r7, #0]
 80015f0:	685b      	ldr	r3, [r3, #4]
 80015f2:	091b      	lsrs	r3, r3, #4
 80015f4:	f003 0201 	and.w	r2, r3, #1
 80015f8:	69fb      	ldr	r3, [r7, #28]
 80015fa:	fa02 f303 	lsl.w	r3, r2, r3
 80015fe:	69ba      	ldr	r2, [r7, #24]
 8001600:	4313      	orrs	r3, r2
 8001602:	61bb      	str	r3, [r7, #24]
        GPIOx->OTYPER = temp;
 8001604:	687b      	ldr	r3, [r7, #4]
 8001606:	69ba      	ldr	r2, [r7, #24]
 8001608:	605a      	str	r2, [r3, #4]
      }

      if (((GPIO_Init->Mode & GPIO_MODE) != MODE_ANALOG) ||
 800160a:	683b      	ldr	r3, [r7, #0]
 800160c:	685b      	ldr	r3, [r3, #4]
 800160e:	f003 0303 	and.w	r3, r3, #3
 8001612:	2b03      	cmp	r3, #3
 8001614:	d109      	bne.n	800162a <HAL_GPIO_Init+0xc6>
          (((GPIO_Init->Mode & GPIO_MODE) == MODE_ANALOG) && (GPIO_Init->Pull != GPIO_PULLUP)))
 8001616:	683b      	ldr	r3, [r7, #0]
 8001618:	685b      	ldr	r3, [r3, #4]
 800161a:	f003 0303 	and.w	r3, r3, #3
      if (((GPIO_Init->Mode & GPIO_MODE) != MODE_ANALOG) ||
 800161e:	2b03      	cmp	r3, #3
 8001620:	d11b      	bne.n	800165a <HAL_GPIO_Init+0xf6>
          (((GPIO_Init->Mode & GPIO_MODE) == MODE_ANALOG) && (GPIO_Init->Pull != GPIO_PULLUP)))
 8001622:	683b      	ldr	r3, [r7, #0]
 8001624:	689b      	ldr	r3, [r3, #8]
 8001626:	2b01      	cmp	r3, #1
 8001628:	d017      	beq.n	800165a <HAL_GPIO_Init+0xf6>
      {
       /* Check the Pull parameter */
       assert_param(IS_GPIO_PULL(GPIO_Init->Pull));

      /* Activate the Pull-up or Pull down resistor for the current IO */
      temp = GPIOx->PUPDR;
 800162a:	687b      	ldr	r3, [r7, #4]
 800162c:	68db      	ldr	r3, [r3, #12]
 800162e:	61bb      	str	r3, [r7, #24]
      temp &= ~(GPIO_PUPDR_PUPD0 << (position * 2U));
 8001630:	69fb      	ldr	r3, [r7, #28]
 8001632:	005b      	lsls	r3, r3, #1
 8001634:	2203      	movs	r2, #3
 8001636:	fa02 f303 	lsl.w	r3, r2, r3
 800163a:	43db      	mvns	r3, r3
 800163c:	69ba      	ldr	r2, [r7, #24]
 800163e:	4013      	ands	r3, r2
 8001640:	61bb      	str	r3, [r7, #24]
      temp |= ((GPIO_Init->Pull) << (position * 2U));
 8001642:	683b      	ldr	r3, [r7, #0]
 8001644:	689a      	ldr	r2, [r3, #8]
 8001646:	69fb      	ldr	r3, [r7, #28]
 8001648:	005b      	lsls	r3, r3, #1
 800164a:	fa02 f303 	lsl.w	r3, r2, r3
 800164e:	69ba      	ldr	r2, [r7, #24]
 8001650:	4313      	orrs	r3, r2
 8001652:	61bb      	str	r3, [r7, #24]
      GPIOx->PUPDR = temp;
 8001654:	687b      	ldr	r3, [r7, #4]
 8001656:	69ba      	ldr	r2, [r7, #24]
 8001658:	60da      	str	r2, [r3, #12]
      }

      /* In case of Alternate function mode selection */
      if ((GPIO_Init->Mode & GPIO_MODE) == MODE_AF)
 800165a:	683b      	ldr	r3, [r7, #0]
 800165c:	685b      	ldr	r3, [r3, #4]
 800165e:	f003 0303 	and.w	r3, r3, #3
 8001662:	2b02      	cmp	r3, #2
 8001664:	d123      	bne.n	80016ae <HAL_GPIO_Init+0x14a>
        /* Check the Alternate function parameters */
        assert_param(IS_GPIO_AF_INSTANCE(GPIOx));
        assert_param(IS_GPIO_AF(GPIO_Init->Alternate));

        /* Configure Alternate function mapped with the current IO */
        temp = GPIOx->AFR[position >> 3U];
 8001666:	69fb      	ldr	r3, [r7, #28]
 8001668:	08da      	lsrs	r2, r3, #3
 800166a:	687b      	ldr	r3, [r7, #4]
 800166c:	3208      	adds	r2, #8
 800166e:	f853 3022 	ldr.w	r3, [r3, r2, lsl #2]
 8001672:	61bb      	str	r3, [r7, #24]
        temp &= ~(0xFUL << ((position & 0x07U) * 4U));
 8001674:	69fb      	ldr	r3, [r7, #28]
 8001676:	f003 0307 	and.w	r3, r3, #7
 800167a:	009b      	lsls	r3, r3, #2
 800167c:	220f      	movs	r2, #15
 800167e:	fa02 f303 	lsl.w	r3, r2, r3
 8001682:	43db      	mvns	r3, r3
 8001684:	69ba      	ldr	r2, [r7, #24]
 8001686:	4013      	ands	r3, r2
 8001688:	61bb      	str	r3, [r7, #24]
        temp |= ((GPIO_Init->Alternate) << ((position & 0x07U) * 4U));
 800168a:	683b      	ldr	r3, [r7, #0]
 800168c:	691a      	ldr	r2, [r3, #16]
 800168e:	69fb      	ldr	r3, [r7, #28]
 8001690:	f003 0307 	and.w	r3, r3, #7
 8001694:	009b      	lsls	r3, r3, #2
 8001696:	fa02 f303 	lsl.w	r3, r2, r3
 800169a:	69ba      	ldr	r2, [r7, #24]
 800169c:	4313      	orrs	r3, r2
 800169e:	61bb      	str	r3, [r7, #24]
        GPIOx->AFR[position >> 3U] = temp;
 80016a0:	69fb      	ldr	r3, [r7, #28]
 80016a2:	08da      	lsrs	r2, r3, #3
 80016a4:	687b      	ldr	r3, [r7, #4]
 80016a6:	3208      	adds	r2, #8
 80016a8:	69b9      	ldr	r1, [r7, #24]
 80016aa:	f843 1022 	str.w	r1, [r3, r2, lsl #2]
      }

      /* Configure IO Direction mode (Input, Output, Alternate or Analog) */
      temp = GPIOx->MODER;
 80016ae:	687b      	ldr	r3, [r7, #4]
 80016b0:	681b      	ldr	r3, [r3, #0]
 80016b2:	61bb      	str	r3, [r7, #24]
      temp &= ~(GPIO_MODER_MODE0 << (position * 2U));
 80016b4:	69fb      	ldr	r3, [r7, #28]
 80016b6:	005b      	lsls	r3, r3, #1
 80016b8:	2203      	movs	r2, #3
 80016ba:	fa02 f303 	lsl.w	r3, r2, r3
 80016be:	43db      	mvns	r3, r3
 80016c0:	69ba      	ldr	r2, [r7, #24]
 80016c2:	4013      	ands	r3, r2
 80016c4:	61bb      	str	r3, [r7, #24]
      temp |= ((GPIO_Init->Mode & GPIO_MODE) << (position * 2U));
 80016c6:	683b      	ldr	r3, [r7, #0]
 80016c8:	685b      	ldr	r3, [r3, #4]
 80016ca:	f003 0203 	and.w	r2, r3, #3
 80016ce:	69fb      	ldr	r3, [r7, #28]
 80016d0:	005b      	lsls	r3, r3, #1
 80016d2:	fa02 f303 	lsl.w	r3, r2, r3
 80016d6:	69ba      	ldr	r2, [r7, #24]
 80016d8:	4313      	orrs	r3, r2
 80016da:	61bb      	str	r3, [r7, #24]
      GPIOx->MODER = temp;
 80016dc:	687b      	ldr	r3, [r7, #4]
 80016de:	69ba      	ldr	r2, [r7, #24]
 80016e0:	601a      	str	r2, [r3, #0]

      /*--------------------- EXTI Mode Configuration ------------------------*/
      /* Configure the External Interrupt or event for the current IO */
      if ((GPIO_Init->Mode & EXTI_MODE) != 0x00U)
 80016e2:	683b      	ldr	r3, [r7, #0]
 80016e4:	685b      	ldr	r3, [r3, #4]
 80016e6:	f403 3340 	and.w	r3, r3, #196608	@ 0x30000
 80016ea:	2b00      	cmp	r3, #0
 80016ec:	f000 80d8 	beq.w	80018a0 <HAL_GPIO_Init+0x33c>
      {
        /* Enable SYSCFG Clock */
        __HAL_RCC_SYSCFG_CLK_ENABLE();
 80016f0:	4b2c      	ldr	r3, [pc, #176]	@ (80017a4 <HAL_GPIO_Init+0x240>)
 80016f2:	f8d3 30f4 	ldr.w	r3, [r3, #244]	@ 0xf4
 80016f6:	4a2b      	ldr	r2, [pc, #172]	@ (80017a4 <HAL_GPIO_Init+0x240>)
 80016f8:	f043 0302 	orr.w	r3, r3, #2
 80016fc:	f8c2 30f4 	str.w	r3, [r2, #244]	@ 0xf4
 8001700:	4b28      	ldr	r3, [pc, #160]	@ (80017a4 <HAL_GPIO_Init+0x240>)
 8001702:	f8d3 30f4 	ldr.w	r3, [r3, #244]	@ 0xf4
 8001706:	f003 0302 	and.w	r3, r3, #2
 800170a:	60fb      	str	r3, [r7, #12]
 800170c:	68fb      	ldr	r3, [r7, #12]

        temp = SYSCFG->EXTICR[position >> 2U];
 800170e:	4a26      	ldr	r2, [pc, #152]	@ (80017a8 <HAL_GPIO_Init+0x244>)
 8001710:	69fb      	ldr	r3, [r7, #28]
 8001712:	089b      	lsrs	r3, r3, #2
 8001714:	3302      	adds	r3, #2
 8001716:	f852 3023 	ldr.w	r3, [r2, r3, lsl #2]
 800171a:	61bb      	str	r3, [r7, #24]
        temp &= ~(0x0FUL << (4U * (position & 0x03U)));
 800171c:	69fb      	ldr	r3, [r7, #28]
 800171e:	f003 0303 	and.w	r3, r3, #3
 8001722:	009b      	lsls	r3, r3, #2
 8001724:	220f      	movs	r2, #15
 8001726:	fa02 f303 	lsl.w	r3, r2, r3
 800172a:	43db      	mvns	r3, r3
 800172c:	69ba      	ldr	r2, [r7, #24]
 800172e:	4013      	ands	r3, r2
 8001730:	61bb      	str	r3, [r7, #24]
        temp |= (GPIO_GET_INDEX(GPIOx) << (4U * (position & 0x03U)));
 8001732:	687b      	ldr	r3, [r7, #4]
 8001734:	4a1d      	ldr	r2, [pc, #116]	@ (80017ac <HAL_GPIO_Init+0x248>)
 8001736:	4293      	cmp	r3, r2
 8001738:	d04a      	beq.n	80017d0 <HAL_GPIO_Init+0x26c>
 800173a:	687b      	ldr	r3, [r7, #4]
 800173c:	4a1c      	ldr	r2, [pc, #112]	@ (80017b0 <HAL_GPIO_Init+0x24c>)
 800173e:	4293      	cmp	r3, r2
 8001740:	d02b      	beq.n	800179a <HAL_GPIO_Init+0x236>
 8001742:	687b      	ldr	r3, [r7, #4]
 8001744:	4a1b      	ldr	r2, [pc, #108]	@ (80017b4 <HAL_GPIO_Init+0x250>)
 8001746:	4293      	cmp	r3, r2
 8001748:	d025      	beq.n	8001796 <HAL_GPIO_Init+0x232>
 800174a:	687b      	ldr	r3, [r7, #4]
 800174c:	4a1a      	ldr	r2, [pc, #104]	@ (80017b8 <HAL_GPIO_Init+0x254>)
 800174e:	4293      	cmp	r3, r2
 8001750:	d01f      	beq.n	8001792 <HAL_GPIO_Init+0x22e>
 8001752:	687b      	ldr	r3, [r7, #4]
 8001754:	4a19      	ldr	r2, [pc, #100]	@ (80017bc <HAL_GPIO_Init+0x258>)
 8001756:	4293      	cmp	r3, r2
 8001758:	d019      	beq.n	800178e <HAL_GPIO_Init+0x22a>
 800175a:	687b      	ldr	r3, [r7, #4]
 800175c:	4a18      	ldr	r2, [pc, #96]	@ (80017c0 <HAL_GPIO_Init+0x25c>)
 800175e:	4293      	cmp	r3, r2
 8001760:	d013      	beq.n	800178a <HAL_GPIO_Init+0x226>
 8001762:	687b      	ldr	r3, [r7, #4]
 8001764:	4a17      	ldr	r2, [pc, #92]	@ (80017c4 <HAL_GPIO_Init+0x260>)
 8001766:	4293      	cmp	r3, r2
 8001768:	d00d      	beq.n	8001786 <HAL_GPIO_Init+0x222>
 800176a:	687b      	ldr	r3, [r7, #4]
 800176c:	4a16      	ldr	r2, [pc, #88]	@ (80017c8 <HAL_GPIO_Init+0x264>)
 800176e:	4293      	cmp	r3, r2
 8001770:	d007      	beq.n	8001782 <HAL_GPIO_Init+0x21e>
 8001772:	687b      	ldr	r3, [r7, #4]
 8001774:	4a15      	ldr	r2, [pc, #84]	@ (80017cc <HAL_GPIO_Init+0x268>)
 8001776:	4293      	cmp	r3, r2
 8001778:	d101      	bne.n	800177e <HAL_GPIO_Init+0x21a>
 800177a:	2309      	movs	r3, #9
 800177c:	e029      	b.n	80017d2 <HAL_GPIO_Init+0x26e>
 800177e:	230a      	movs	r3, #10
 8001780:	e027      	b.n	80017d2 <HAL_GPIO_Init+0x26e>
 8001782:	2307      	movs	r3, #7
 8001784:	e025      	b.n	80017d2 <HAL_GPIO_Init+0x26e>
 8001786:	2306      	movs	r3, #6
 8001788:	e023      	b.n	80017d2 <HAL_GPIO_Init+0x26e>
 800178a:	2305      	movs	r3, #5
 800178c:	e021      	b.n	80017d2 <HAL_GPIO_Init+0x26e>
 800178e:	2304      	movs	r3, #4
 8001790:	e01f      	b.n	80017d2 <HAL_GPIO_Init+0x26e>
 8001792:	2303      	movs	r3, #3
 8001794:	e01d      	b.n	80017d2 <HAL_GPIO_Init+0x26e>
 8001796:	2302      	movs	r3, #2
 8001798:	e01b      	b.n	80017d2 <HAL_GPIO_Init+0x26e>
 800179a:	2301      	movs	r3, #1
 800179c:	e019      	b.n	80017d2 <HAL_GPIO_Init+0x26e>
 800179e:	bf00      	nop
 80017a0:	58000080 	.word	0x58000080
 80017a4:	58024400 	.word	0x58024400
 80017a8:	58000400 	.word	0x58000400
 80017ac:	58020000 	.word	0x58020000
 80017b0:	58020400 	.word	0x58020400
 80017b4:	58020800 	.word	0x58020800
 80017b8:	58020c00 	.word	0x58020c00
 80017bc:	58021000 	.word	0x58021000
 80017c0:	58021400 	.word	0x58021400
 80017c4:	58021800 	.word	0x58021800
 80017c8:	58021c00 	.word	0x58021c00
 80017cc:	58022400 	.word	0x58022400
 80017d0:	2300      	movs	r3, #0
 80017d2:	69fa      	ldr	r2, [r7, #28]
 80017d4:	f002 0203 	and.w	r2, r2, #3
 80017d8:	0092      	lsls	r2, r2, #2
 80017da:	4093      	lsls	r3, r2
 80017dc:	69ba      	ldr	r2, [r7, #24]
 80017de:	4313      	orrs	r3, r2
 80017e0:	61bb      	str	r3, [r7, #24]
        SYSCFG->EXTICR[position >> 2U] = temp;
 80017e2:	4938      	ldr	r1, [pc, #224]	@ (80018c4 <HAL_GPIO_Init+0x360>)
 80017e4:	69fb      	ldr	r3, [r7, #28]
 80017e6:	089b      	lsrs	r3, r3, #2
 80017e8:	3302      	adds	r3, #2
 80017ea:	69ba      	ldr	r2, [r7, #24]
 80017ec:	f841 2023 	str.w	r2, [r1, r3, lsl #2]

        /* Clear Rising Falling edge configuration */
        temp = EXTI->RTSR1;
 80017f0:	f04f 43b0 	mov.w	r3, #1476395008	@ 0x58000000
 80017f4:	681b      	ldr	r3, [r3, #0]
 80017f6:	61bb      	str	r3, [r7, #24]
        temp &= ~(iocurrent);
 80017f8:	693b      	ldr	r3, [r7, #16]
 80017fa:	43db      	mvns	r3, r3
 80017fc:	69ba      	ldr	r2, [r7, #24]
 80017fe:	4013      	ands	r3, r2
 8001800:	61bb      	str	r3, [r7, #24]
        if ((GPIO_Init->Mode & TRIGGER_RISING) != 0x00U)
 8001802:	683b      	ldr	r3, [r7, #0]
 8001804:	685b      	ldr	r3, [r3, #4]
 8001806:	f403 1380 	and.w	r3, r3, #1048576	@ 0x100000
 800180a:	2b00      	cmp	r3, #0
 800180c:	d003      	beq.n	8001816 <HAL_GPIO_Init+0x2b2>
        {
          temp |= iocurrent;
 800180e:	69ba      	ldr	r2, [r7, #24]
 8001810:	693b      	ldr	r3, [r7, #16]
 8001812:	4313      	orrs	r3, r2
 8001814:	61bb      	str	r3, [r7, #24]
        }
        EXTI->RTSR1 = temp;
 8001816:	f04f 42b0 	mov.w	r2, #1476395008	@ 0x58000000
 800181a:	69bb      	ldr	r3, [r7, #24]
 800181c:	6013      	str	r3, [r2, #0]

        temp = EXTI->FTSR1;
 800181e:	f04f 43b0 	mov.w	r3, #1476395008	@ 0x58000000
 8001822:	685b      	ldr	r3, [r3, #4]
 8001824:	61bb      	str	r3, [r7, #24]
        temp &= ~(iocurrent);
 8001826:	693b      	ldr	r3, [r7, #16]
 8001828:	43db      	mvns	r3, r3
 800182a:	69ba      	ldr	r2, [r7, #24]
 800182c:	4013      	ands	r3, r2
 800182e:	61bb      	str	r3, [r7, #24]
        if ((GPIO_Init->Mode & TRIGGER_FALLING) != 0x00U)
 8001830:	683b      	ldr	r3, [r7, #0]
 8001832:	685b      	ldr	r3, [r3, #4]
 8001834:	f403 1300 	and.w	r3, r3, #2097152	@ 0x200000
 8001838:	2b00      	cmp	r3, #0
 800183a:	d003      	beq.n	8001844 <HAL_GPIO_Init+0x2e0>
        {
          temp |= iocurrent;
 800183c:	69ba      	ldr	r2, [r7, #24]
 800183e:	693b      	ldr	r3, [r7, #16]
 8001840:	4313      	orrs	r3, r2
 8001842:	61bb      	str	r3, [r7, #24]
        }
        EXTI->FTSR1 = temp;
 8001844:	f04f 42b0 	mov.w	r2, #1476395008	@ 0x58000000
 8001848:	69bb      	ldr	r3, [r7, #24]
 800184a:	6053      	str	r3, [r2, #4]

        temp = EXTI_CurrentCPU->EMR1;
 800184c:	697b      	ldr	r3, [r7, #20]
 800184e:	685b      	ldr	r3, [r3, #4]
 8001850:	61bb      	str	r3, [r7, #24]
        temp &= ~(iocurrent);
 8001852:	693b      	ldr	r3, [r7, #16]
 8001854:	43db      	mvns	r3, r3
 8001856:	69ba      	ldr	r2, [r7, #24]
 8001858:	4013      	ands	r3, r2
 800185a:	61bb      	str	r3, [r7, #24]
        if ((GPIO_Init->Mode & EXTI_EVT) != 0x00U)
 800185c:	683b      	ldr	r3, [r7, #0]
 800185e:	685b      	ldr	r3, [r3, #4]
 8001860:	f403 3300 	and.w	r3, r3, #131072	@ 0x20000
 8001864:	2b00      	cmp	r3, #0
 8001866:	d003      	beq.n	8001870 <HAL_GPIO_Init+0x30c>
        {
          temp |= iocurrent;
 8001868:	69ba      	ldr	r2, [r7, #24]
 800186a:	693b      	ldr	r3, [r7, #16]
 800186c:	4313      	orrs	r3, r2
 800186e:	61bb      	str	r3, [r7, #24]
        }
        EXTI_CurrentCPU->EMR1 = temp;
 8001870:	697b      	ldr	r3, [r7, #20]
 8001872:	69ba      	ldr	r2, [r7, #24]
 8001874:	605a      	str	r2, [r3, #4]

        /* Clear EXTI line configuration */
        temp = EXTI_CurrentCPU->IMR1;
 8001876:	697b      	ldr	r3, [r7, #20]
 8001878:	681b      	ldr	r3, [r3, #0]
 800187a:	61bb      	str	r3, [r7, #24]
        temp &= ~(iocurrent);
 800187c:	693b      	ldr	r3, [r7, #16]
 800187e:	43db      	mvns	r3, r3
 8001880:	69ba      	ldr	r2, [r7, #24]
 8001882:	4013      	ands	r3, r2
 8001884:	61bb      	str	r3, [r7, #24]
        if ((GPIO_Init->Mode & EXTI_IT) != 0x00U)
 8001886:	683b      	ldr	r3, [r7, #0]
 8001888:	685b      	ldr	r3, [r3, #4]
 800188a:	f403 3380 	and.w	r3, r3, #65536	@ 0x10000
 800188e:	2b00      	cmp	r3, #0
 8001890:	d003      	beq.n	800189a <HAL_GPIO_Init+0x336>
        {
          temp |= iocurrent;
 8001892:	69ba      	ldr	r2, [r7, #24]
 8001894:	693b      	ldr	r3, [r7, #16]
 8001896:	4313      	orrs	r3, r2
 8001898:	61bb      	str	r3, [r7, #24]
        }
        EXTI_CurrentCPU->IMR1 = temp;
 800189a:	697b      	ldr	r3, [r7, #20]
 800189c:	69ba      	ldr	r2, [r7, #24]
 800189e:	601a      	str	r2, [r3, #0]
      }
    }

    position++;
 80018a0:	69fb      	ldr	r3, [r7, #28]
 80018a2:	3301      	adds	r3, #1
 80018a4:	61fb      	str	r3, [r7, #28]
  while (((GPIO_Init->Pin) >> position) != 0x00U)
 80018a6:	683b      	ldr	r3, [r7, #0]
 80018a8:	681a      	ldr	r2, [r3, #0]
 80018aa:	69fb      	ldr	r3, [r7, #28]
 80018ac:	fa22 f303 	lsr.w	r3, r2, r3
 80018b0:	2b00      	cmp	r3, #0
 80018b2:	f47f ae61 	bne.w	8001578 <HAL_GPIO_Init+0x14>
  }
}
 80018b6:	bf00      	nop
 80018b8:	bf00      	nop
 80018ba:	3724      	adds	r7, #36	@ 0x24
 80018bc:	46bd      	mov	sp, r7
 80018be:	f85d 7b04 	ldr.w	r7, [sp], #4
 80018c2:	4770      	bx	lr
 80018c4:	58000400 	.word	0x58000400

080018c8 <HAL_GPIO_WritePin>:
  *            @arg GPIO_PIN_RESET: to clear the port pin
  *            @arg GPIO_PIN_SET: to set the port pin
  * @retval None
  */
void HAL_GPIO_WritePin(GPIO_TypeDef *GPIOx, uint16_t GPIO_Pin, GPIO_PinState PinState)
{
 80018c8:	b480      	push	{r7}
 80018ca:	b083      	sub	sp, #12
 80018cc:	af00      	add	r7, sp, #0
 80018ce:	6078      	str	r0, [r7, #4]
 80018d0:	460b      	mov	r3, r1
 80018d2:	807b      	strh	r3, [r7, #2]
 80018d4:	4613      	mov	r3, r2
 80018d6:	707b      	strb	r3, [r7, #1]
  /* Check the parameters */
  assert_param(IS_GPIO_PIN(GPIO_Pin));
  assert_param(IS_GPIO_PIN_ACTION(PinState));

  if (PinState != GPIO_PIN_RESET)
 80018d8:	787b      	ldrb	r3, [r7, #1]
 80018da:	2b00      	cmp	r3, #0
 80018dc:	d003      	beq.n	80018e6 <HAL_GPIO_WritePin+0x1e>
  {
    GPIOx->BSRR = GPIO_Pin;
 80018de:	887a      	ldrh	r2, [r7, #2]
 80018e0:	687b      	ldr	r3, [r7, #4]
 80018e2:	619a      	str	r2, [r3, #24]
  }
  else
  {
    GPIOx->BSRR = (uint32_t)GPIO_Pin << GPIO_NUMBER;
  }
}
 80018e4:	e003      	b.n	80018ee <HAL_GPIO_WritePin+0x26>
    GPIOx->BSRR = (uint32_t)GPIO_Pin << GPIO_NUMBER;
 80018e6:	887b      	ldrh	r3, [r7, #2]
 80018e8:	041a      	lsls	r2, r3, #16
 80018ea:	687b      	ldr	r3, [r7, #4]
 80018ec:	619a      	str	r2, [r3, #24]
}
 80018ee:	bf00      	nop
 80018f0:	370c      	adds	r7, #12
 80018f2:	46bd      	mov	sp, r7
 80018f4:	f85d 7b04 	ldr.w	r7, [sp], #4
 80018f8:	4770      	bx	lr

080018fa <HAL_PCD_Init>:
  *         parameters in the PCD_InitTypeDef and initialize the associated handle.
  * @param  hpcd PCD handle
  * @retval HAL status
  */
HAL_StatusTypeDef HAL_PCD_Init(PCD_HandleTypeDef *hpcd)
{
 80018fa:	b580      	push	{r7, lr}
 80018fc:	b086      	sub	sp, #24
 80018fe:	af02      	add	r7, sp, #8
 8001900:	6078      	str	r0, [r7, #4]
  uint8_t i;

  /* Check the PCD handle allocation */
  if (hpcd == NULL)
 8001902:	687b      	ldr	r3, [r7, #4]
 8001904:	2b00      	cmp	r3, #0
 8001906:	d101      	bne.n	800190c <HAL_PCD_Init+0x12>
  {
    return HAL_ERROR;
 8001908:	2301      	movs	r3, #1
 800190a:	e0fe      	b.n	8001b0a <HAL_PCD_Init+0x210>
  }

  /* Check the parameters */
  assert_param(IS_PCD_ALL_INSTANCE(hpcd->Instance));

  if (hpcd->State == HAL_PCD_STATE_RESET)
 800190c:	687b      	ldr	r3, [r7, #4]
 800190e:	f893 3495 	ldrb.w	r3, [r3, #1173]	@ 0x495
 8001912:	b2db      	uxtb	r3, r3
 8001914:	2b00      	cmp	r3, #0
 8001916:	d106      	bne.n	8001926 <HAL_PCD_Init+0x2c>
  {
    /* Allocate lock resource and initialize it */
    hpcd->Lock = HAL_UNLOCKED;
 8001918:	687b      	ldr	r3, [r7, #4]
 800191a:	2200      	movs	r2, #0
 800191c:	f883 2494 	strb.w	r2, [r3, #1172]	@ 0x494

    /* Init the low level hardware */
    hpcd->MspInitCallback(hpcd);
#else
    /* Init the low level hardware : GPIO, CLOCK, NVIC... */
    HAL_PCD_MspInit(hpcd);
 8001920:	6878      	ldr	r0, [r7, #4]
 8001922:	f007 fe7f 	bl	8009624 <HAL_PCD_MspInit>
#endif /* (USE_HAL_PCD_REGISTER_CALLBACKS) */
  }

  hpcd->State = HAL_PCD_STATE_BUSY;
 8001926:	687b      	ldr	r3, [r7, #4]
 8001928:	2203      	movs	r2, #3
 800192a:	f883 2495 	strb.w	r2, [r3, #1173]	@ 0x495

  /* Disable the Interrupts */
  __HAL_PCD_DISABLE(hpcd);
 800192e:	687b      	ldr	r3, [r7, #4]
 8001930:	681b      	ldr	r3, [r3, #0]
 8001932:	4618      	mov	r0, r3
 8001934:	f004 f9c3 	bl	8005cbe <USB_DisableGlobalInt>

  /*Init the Core (common init.) */
  if (USB_CoreInit(hpcd->Instance, hpcd->Init) != HAL_OK)
 8001938:	687b      	ldr	r3, [r7, #4]
 800193a:	6818      	ldr	r0, [r3, #0]
 800193c:	687b      	ldr	r3, [r7, #4]
 800193e:	7c1a      	ldrb	r2, [r3, #16]
 8001940:	f88d 2000 	strb.w	r2, [sp]
 8001944:	3304      	adds	r3, #4
 8001946:	cb0e      	ldmia	r3, {r1, r2, r3}
 8001948:	f004 f88e 	bl	8005a68 <USB_CoreInit>
 800194c:	4603      	mov	r3, r0
 800194e:	2b00      	cmp	r3, #0
 8001950:	d005      	beq.n	800195e <HAL_PCD_Init+0x64>
  {
    hpcd->State = HAL_PCD_STATE_ERROR;
 8001952:	687b      	ldr	r3, [r7, #4]
 8001954:	2202      	movs	r2, #2
 8001956:	f883 2495 	strb.w	r2, [r3, #1173]	@ 0x495
    return HAL_ERROR;
 800195a:	2301      	movs	r3, #1
 800195c:	e0d5      	b.n	8001b0a <HAL_PCD_Init+0x210>
  }

  /* Force Device Mode */
  if (USB_SetCurrentMode(hpcd->Instance, USB_DEVICE_MODE) != HAL_OK)
 800195e:	687b      	ldr	r3, [r7, #4]
 8001960:	681b      	ldr	r3, [r3, #0]
 8001962:	2100      	movs	r1, #0
 8001964:	4618      	mov	r0, r3
 8001966:	f004 f9bb 	bl	8005ce0 <USB_SetCurrentMode>
 800196a:	4603      	mov	r3, r0
 800196c:	2b00      	cmp	r3, #0
 800196e:	d005      	beq.n	800197c <HAL_PCD_Init+0x82>
  {
    hpcd->State = HAL_PCD_STATE_ERROR;
 8001970:	687b      	ldr	r3, [r7, #4]
 8001972:	2202      	movs	r2, #2
 8001974:	f883 2495 	strb.w	r2, [r3, #1173]	@ 0x495
    return HAL_ERROR;
 8001978:	2301      	movs	r3, #1
 800197a:	e0c6      	b.n	8001b0a <HAL_PCD_Init+0x210>
  }

  /* Init endpoints structures */
  for (i = 0U; i < hpcd->Init.dev_endpoints; i++)
 800197c:	2300      	movs	r3, #0
 800197e:	73fb      	strb	r3, [r7, #15]
 8001980:	e04a      	b.n	8001a18 <HAL_PCD_Init+0x11e>
  {
    /* Init ep structure */
    hpcd->IN_ep[i].is_in = 1U;
 8001982:	7bfa      	ldrb	r2, [r7, #15]
 8001984:	6879      	ldr	r1, [r7, #4]
 8001986:	4613      	mov	r3, r2
 8001988:	00db      	lsls	r3, r3, #3
 800198a:	4413      	add	r3, r2
 800198c:	009b      	lsls	r3, r3, #2
 800198e:	440b      	add	r3, r1
 8001990:	3315      	adds	r3, #21
 8001992:	2201      	movs	r2, #1
 8001994:	701a      	strb	r2, [r3, #0]
    hpcd->IN_ep[i].num = i;
 8001996:	7bfa      	ldrb	r2, [r7, #15]
 8001998:	6879      	ldr	r1, [r7, #4]
 800199a:	4613      	mov	r3, r2
 800199c:	00db      	lsls	r3, r3, #3
 800199e:	4413      	add	r3, r2
 80019a0:	009b      	lsls	r3, r3, #2
 80019a2:	440b      	add	r3, r1
 80019a4:	3314      	adds	r3, #20
 80019a6:	7bfa      	ldrb	r2, [r7, #15]
 80019a8:	701a      	strb	r2, [r3, #0]
    hpcd->IN_ep[i].tx_fifo_num = i;
 80019aa:	7bfa      	ldrb	r2, [r7, #15]
 80019ac:	7bfb      	ldrb	r3, [r7, #15]
 80019ae:	b298      	uxth	r0, r3
 80019b0:	6879      	ldr	r1, [r7, #4]
 80019b2:	4613      	mov	r3, r2
 80019b4:	00db      	lsls	r3, r3, #3
 80019b6:	4413      	add	r3, r2
 80019b8:	009b      	lsls	r3, r3, #2
 80019ba:	440b      	add	r3, r1
 80019bc:	332e      	adds	r3, #46	@ 0x2e
 80019be:	4602      	mov	r2, r0
 80019c0:	801a      	strh	r2, [r3, #0]
    /* Control until ep is activated */
    hpcd->IN_ep[i].type = EP_TYPE_CTRL;
 80019c2:	7bfa      	ldrb	r2, [r7, #15]
 80019c4:	6879      	ldr	r1, [r7, #4]
 80019c6:	4613      	mov	r3, r2
 80019c8:	00db      	lsls	r3, r3, #3
 80019ca:	4413      	add	r3, r2
 80019cc:	009b      	lsls	r3, r3, #2
 80019ce:	440b      	add	r3, r1
 80019d0:	3318      	adds	r3, #24
 80019d2:	2200      	movs	r2, #0
 80019d4:	701a      	strb	r2, [r3, #0]
    hpcd->IN_ep[i].maxpacket = 0U;
 80019d6:	7bfa      	ldrb	r2, [r7, #15]
 80019d8:	6879      	ldr	r1, [r7, #4]
 80019da:	4613      	mov	r3, r2
 80019dc:	00db      	lsls	r3, r3, #3
 80019de:	4413      	add	r3, r2
 80019e0:	009b      	lsls	r3, r3, #2
 80019e2:	440b      	add	r3, r1
 80019e4:	331c      	adds	r3, #28
 80019e6:	2200      	movs	r2, #0
 80019e8:	601a      	str	r2, [r3, #0]
    hpcd->IN_ep[i].xfer_buff = 0U;
 80019ea:	7bfa      	ldrb	r2, [r7, #15]
 80019ec:	6879      	ldr	r1, [r7, #4]
 80019ee:	4613      	mov	r3, r2
 80019f0:	00db      	lsls	r3, r3, #3
 80019f2:	4413      	add	r3, r2
 80019f4:	009b      	lsls	r3, r3, #2
 80019f6:	440b      	add	r3, r1
 80019f8:	3320      	adds	r3, #32
 80019fa:	2200      	movs	r2, #0
 80019fc:	601a      	str	r2, [r3, #0]
    hpcd->IN_ep[i].xfer_len = 0U;
 80019fe:	7bfa      	ldrb	r2, [r7, #15]
 8001a00:	6879      	ldr	r1, [r7, #4]
 8001a02:	4613      	mov	r3, r2
 8001a04:	00db      	lsls	r3, r3, #3
 8001a06:	4413      	add	r3, r2
 8001a08:	009b      	lsls	r3, r3, #2
 8001a0a:	440b      	add	r3, r1
 8001a0c:	3324      	adds	r3, #36	@ 0x24
 8001a0e:	2200      	movs	r2, #0
 8001a10:	601a      	str	r2, [r3, #0]
  for (i = 0U; i < hpcd->Init.dev_endpoints; i++)
 8001a12:	7bfb      	ldrb	r3, [r7, #15]
 8001a14:	3301      	adds	r3, #1
 8001a16:	73fb      	strb	r3, [r7, #15]
 8001a18:	687b      	ldr	r3, [r7, #4]
 8001a1a:	791b      	ldrb	r3, [r3, #4]
 8001a1c:	7bfa      	ldrb	r2, [r7, #15]
 8001a1e:	429a      	cmp	r2, r3
 8001a20:	d3af      	bcc.n	8001982 <HAL_PCD_Init+0x88>
  }

  for (i = 0U; i < hpcd->Init.dev_endpoints; i++)
 8001a22:	2300      	movs	r3, #0
 8001a24:	73fb      	strb	r3, [r7, #15]
 8001a26:	e044      	b.n	8001ab2 <HAL_PCD_Init+0x1b8>
  {
    hpcd->OUT_ep[i].is_in = 0U;
 8001a28:	7bfa      	ldrb	r2, [r7, #15]
 8001a2a:	6879      	ldr	r1, [r7, #4]
 8001a2c:	4613      	mov	r3, r2
 8001a2e:	00db      	lsls	r3, r3, #3
 8001a30:	4413      	add	r3, r2
 8001a32:	009b      	lsls	r3, r3, #2
 8001a34:	440b      	add	r3, r1
 8001a36:	f203 2355 	addw	r3, r3, #597	@ 0x255
 8001a3a:	2200      	movs	r2, #0
 8001a3c:	701a      	strb	r2, [r3, #0]
    hpcd->OUT_ep[i].num = i;
 8001a3e:	7bfa      	ldrb	r2, [r7, #15]
 8001a40:	6879      	ldr	r1, [r7, #4]
 8001a42:	4613      	mov	r3, r2
 8001a44:	00db      	lsls	r3, r3, #3
 8001a46:	4413      	add	r3, r2
 8001a48:	009b      	lsls	r3, r3, #2
 8001a4a:	440b      	add	r3, r1
 8001a4c:	f503 7315 	add.w	r3, r3, #596	@ 0x254
 8001a50:	7bfa      	ldrb	r2, [r7, #15]
 8001a52:	701a      	strb	r2, [r3, #0]
    /* Control until ep is activated */
    hpcd->OUT_ep[i].type = EP_TYPE_CTRL;
 8001a54:	7bfa      	ldrb	r2, [r7, #15]
 8001a56:	6879      	ldr	r1, [r7, #4]
 8001a58:	4613      	mov	r3, r2
 8001a5a:	00db      	lsls	r3, r3, #3
 8001a5c:	4413      	add	r3, r2
 8001a5e:	009b      	lsls	r3, r3, #2
 8001a60:	440b      	add	r3, r1
 8001a62:	f503 7316 	add.w	r3, r3, #600	@ 0x258
 8001a66:	2200      	movs	r2, #0
 8001a68:	701a      	strb	r2, [r3, #0]
    hpcd->OUT_ep[i].maxpacket = 0U;
 8001a6a:	7bfa      	ldrb	r2, [r7, #15]
 8001a6c:	6879      	ldr	r1, [r7, #4]
 8001a6e:	4613      	mov	r3, r2
 8001a70:	00db      	lsls	r3, r3, #3
 8001a72:	4413      	add	r3, r2
 8001a74:	009b      	lsls	r3, r3, #2
 8001a76:	440b      	add	r3, r1
 8001a78:	f503 7317 	add.w	r3, r3, #604	@ 0x25c
 8001a7c:	2200      	movs	r2, #0
 8001a7e:	601a      	str	r2, [r3, #0]
    hpcd->OUT_ep[i].xfer_buff = 0U;
 8001a80:	7bfa      	ldrb	r2, [r7, #15]
 8001a82:	6879      	ldr	r1, [r7, #4]
 8001a84:	4613      	mov	r3, r2
 8001a86:	00db      	lsls	r3, r3, #3
 8001a88:	4413      	add	r3, r2
 8001a8a:	009b      	lsls	r3, r3, #2
 8001a8c:	440b      	add	r3, r1
 8001a8e:	f503 7318 	add.w	r3, r3, #608	@ 0x260
 8001a92:	2200      	movs	r2, #0
 8001a94:	601a      	str	r2, [r3, #0]
    hpcd->OUT_ep[i].xfer_len = 0U;
 8001a96:	7bfa      	ldrb	r2, [r7, #15]
 8001a98:	6879      	ldr	r1, [r7, #4]
 8001a9a:	4613      	mov	r3, r2
 8001a9c:	00db      	lsls	r3, r3, #3
 8001a9e:	4413      	add	r3, r2
 8001aa0:	009b      	lsls	r3, r3, #2
 8001aa2:	440b      	add	r3, r1
 8001aa4:	f503 7319 	add.w	r3, r3, #612	@ 0x264
 8001aa8:	2200      	movs	r2, #0
 8001aaa:	601a      	str	r2, [r3, #0]
  for (i = 0U; i < hpcd->Init.dev_endpoints; i++)
 8001aac:	7bfb      	ldrb	r3, [r7, #15]
 8001aae:	3301      	adds	r3, #1
 8001ab0:	73fb      	strb	r3, [r7, #15]
 8001ab2:	687b      	ldr	r3, [r7, #4]
 8001ab4:	791b      	ldrb	r3, [r3, #4]
 8001ab6:	7bfa      	ldrb	r2, [r7, #15]
 8001ab8:	429a      	cmp	r2, r3
 8001aba:	d3b5      	bcc.n	8001a28 <HAL_PCD_Init+0x12e>
  }

  /* Init Device */
  if (USB_DevInit(hpcd->Instance, hpcd->Init) != HAL_OK)
 8001abc:	687b      	ldr	r3, [r7, #4]
 8001abe:	6818      	ldr	r0, [r3, #0]
 8001ac0:	687b      	ldr	r3, [r7, #4]
 8001ac2:	7c1a      	ldrb	r2, [r3, #16]
 8001ac4:	f88d 2000 	strb.w	r2, [sp]
 8001ac8:	3304      	adds	r3, #4
 8001aca:	cb0e      	ldmia	r3, {r1, r2, r3}
 8001acc:	f004 f954 	bl	8005d78 <USB_DevInit>
 8001ad0:	4603      	mov	r3, r0
 8001ad2:	2b00      	cmp	r3, #0
 8001ad4:	d005      	beq.n	8001ae2 <HAL_PCD_Init+0x1e8>
  {
    hpcd->State = HAL_PCD_STATE_ERROR;
 8001ad6:	687b      	ldr	r3, [r7, #4]
 8001ad8:	2202      	movs	r2, #2
 8001ada:	f883 2495 	strb.w	r2, [r3, #1173]	@ 0x495
    return HAL_ERROR;
 8001ade:	2301      	movs	r3, #1
 8001ae0:	e013      	b.n	8001b0a <HAL_PCD_Init+0x210>
  }

  hpcd->USB_Address = 0U;
 8001ae2:	687b      	ldr	r3, [r7, #4]
 8001ae4:	2200      	movs	r2, #0
 8001ae6:	745a      	strb	r2, [r3, #17]
  hpcd->State = HAL_PCD_STATE_READY;
 8001ae8:	687b      	ldr	r3, [r7, #4]
 8001aea:	2201      	movs	r2, #1
 8001aec:	f883 2495 	strb.w	r2, [r3, #1173]	@ 0x495

  /* Activate LPM */
  if (hpcd->Init.lpm_enable == 1U)
 8001af0:	687b      	ldr	r3, [r7, #4]
 8001af2:	7b1b      	ldrb	r3, [r3, #12]
 8001af4:	2b01      	cmp	r3, #1
 8001af6:	d102      	bne.n	8001afe <HAL_PCD_Init+0x204>
  {
    (void)HAL_PCDEx_ActivateLPM(hpcd);
 8001af8:	6878      	ldr	r0, [r7, #4]
 8001afa:	f001 f989 	bl	8002e10 <HAL_PCDEx_ActivateLPM>
  }

  (void)USB_DevDisconnect(hpcd->Instance);
 8001afe:	687b      	ldr	r3, [r7, #4]
 8001b00:	681b      	ldr	r3, [r3, #0]
 8001b02:	4618      	mov	r0, r3
 8001b04:	f005 f9ea 	bl	8006edc <USB_DevDisconnect>

  return HAL_OK;
 8001b08:	2300      	movs	r3, #0
}
 8001b0a:	4618      	mov	r0, r3
 8001b0c:	3710      	adds	r7, #16
 8001b0e:	46bd      	mov	sp, r7
 8001b10:	bd80      	pop	{r7, pc}

08001b12 <HAL_PCD_Start>:
  * @brief  Start the USB device
  * @param  hpcd PCD handle
  * @retval HAL status
  */
HAL_StatusTypeDef HAL_PCD_Start(PCD_HandleTypeDef *hpcd)
{
 8001b12:	b580      	push	{r7, lr}
 8001b14:	b084      	sub	sp, #16
 8001b16:	af00      	add	r7, sp, #0
 8001b18:	6078      	str	r0, [r7, #4]
  USB_OTG_GlobalTypeDef *USBx = hpcd->Instance;
 8001b1a:	687b      	ldr	r3, [r7, #4]
 8001b1c:	681b      	ldr	r3, [r3, #0]
 8001b1e:	60fb      	str	r3, [r7, #12]

  __HAL_LOCK(hpcd);
 8001b20:	687b      	ldr	r3, [r7, #4]
 8001b22:	f893 3494 	ldrb.w	r3, [r3, #1172]	@ 0x494
 8001b26:	2b01      	cmp	r3, #1
 8001b28:	d101      	bne.n	8001b2e <HAL_PCD_Start+0x1c>
 8001b2a:	2302      	movs	r3, #2
 8001b2c:	e022      	b.n	8001b74 <HAL_PCD_Start+0x62>
 8001b2e:	687b      	ldr	r3, [r7, #4]
 8001b30:	2201      	movs	r2, #1
 8001b32:	f883 2494 	strb.w	r2, [r3, #1172]	@ 0x494

  if (((USBx->GUSBCFG & USB_OTG_GUSBCFG_PHYSEL) != 0U) &&
 8001b36:	68fb      	ldr	r3, [r7, #12]
 8001b38:	68db      	ldr	r3, [r3, #12]
 8001b3a:	f003 0340 	and.w	r3, r3, #64	@ 0x40
 8001b3e:	2b00      	cmp	r3, #0
 8001b40:	d009      	beq.n	8001b56 <HAL_PCD_Start+0x44>
      (hpcd->Init.battery_charging_enable == 1U))
 8001b42:	687b      	ldr	r3, [r7, #4]
 8001b44:	7b5b      	ldrb	r3, [r3, #13]
  if (((USBx->GUSBCFG & USB_OTG_GUSBCFG_PHYSEL) != 0U) &&
 8001b46:	2b01      	cmp	r3, #1
 8001b48:	d105      	bne.n	8001b56 <HAL_PCD_Start+0x44>
  {
    /* Enable USB Transceiver */
    USBx->GCCFG |= USB_OTG_GCCFG_PWRDWN;
 8001b4a:	68fb      	ldr	r3, [r7, #12]
 8001b4c:	6b9b      	ldr	r3, [r3, #56]	@ 0x38
 8001b4e:	f443 3280 	orr.w	r2, r3, #65536	@ 0x10000
 8001b52:	68fb      	ldr	r3, [r7, #12]
 8001b54:	639a      	str	r2, [r3, #56]	@ 0x38
  }

  __HAL_PCD_ENABLE(hpcd);
 8001b56:	687b      	ldr	r3, [r7, #4]
 8001b58:	681b      	ldr	r3, [r3, #0]
 8001b5a:	4618      	mov	r0, r3
 8001b5c:	f004 f89e 	bl	8005c9c <USB_EnableGlobalInt>
  (void)USB_DevConnect(hpcd->Instance);
 8001b60:	687b      	ldr	r3, [r7, #4]
 8001b62:	681b      	ldr	r3, [r3, #0]
 8001b64:	4618      	mov	r0, r3
 8001b66:	f005 f998 	bl	8006e9a <USB_DevConnect>
  __HAL_UNLOCK(hpcd);
 8001b6a:	687b      	ldr	r3, [r7, #4]
 8001b6c:	2200      	movs	r2, #0
 8001b6e:	f883 2494 	strb.w	r2, [r3, #1172]	@ 0x494

  return HAL_OK;
 8001b72:	2300      	movs	r3, #0
}
 8001b74:	4618      	mov	r0, r3
 8001b76:	3710      	adds	r7, #16
 8001b78:	46bd      	mov	sp, r7
 8001b7a:	bd80      	pop	{r7, pc}

08001b7c <HAL_PCD_IRQHandler>:
  * @brief  Handles PCD interrupt request.
  * @param  hpcd PCD handle
  * @retval HAL status
  */
void HAL_PCD_IRQHandler(PCD_HandleTypeDef *hpcd)
{
 8001b7c:	b590      	push	{r4, r7, lr}
 8001b7e:	b08d      	sub	sp, #52	@ 0x34
 8001b80:	af00      	add	r7, sp, #0
 8001b82:	6078      	str	r0, [r7, #4]
  USB_OTG_GlobalTypeDef *USBx = hpcd->Instance;
 8001b84:	687b      	ldr	r3, [r7, #4]
 8001b86:	681b      	ldr	r3, [r3, #0]
 8001b88:	623b      	str	r3, [r7, #32]
  uint32_t USBx_BASE = (uint32_t)USBx;
 8001b8a:	6a3b      	ldr	r3, [r7, #32]
 8001b8c:	61fb      	str	r3, [r7, #28]
  uint32_t epnum;
  uint32_t fifoemptymsk;
  uint32_t RegVal;

  /* ensure that we are in device mode */
  if (USB_GetMode(hpcd->Instance) == USB_OTG_MODE_DEVICE)
 8001b8e:	687b      	ldr	r3, [r7, #4]
 8001b90:	681b      	ldr	r3, [r3, #0]
 8001b92:	4618      	mov	r0, r3
 8001b94:	f005 fa56 	bl	8007044 <USB_GetMode>
 8001b98:	4603      	mov	r3, r0
 8001b9a:	2b00      	cmp	r3, #0
 8001b9c:	f040 84d3 	bne.w	8002546 <HAL_PCD_IRQHandler+0x9ca>
  {
    /* avoid spurious interrupt */
    if (__HAL_PCD_IS_INVALID_INTERRUPT(hpcd))
 8001ba0:	687b      	ldr	r3, [r7, #4]
 8001ba2:	681b      	ldr	r3, [r3, #0]
 8001ba4:	4618      	mov	r0, r3
 8001ba6:	f005 f9ba 	bl	8006f1e <USB_ReadInterrupts>
 8001baa:	4603      	mov	r3, r0
 8001bac:	2b00      	cmp	r3, #0
 8001bae:	f000 84c9 	beq.w	8002544 <HAL_PCD_IRQHandler+0x9c8>
    {
      return;
    }

    /* store current frame number */
    hpcd->FrameNumber = (USBx_DEVICE->DSTS & USB_OTG_DSTS_FNSOF_Msk) >> USB_OTG_DSTS_FNSOF_Pos;
 8001bb2:	69fb      	ldr	r3, [r7, #28]
 8001bb4:	f503 6300 	add.w	r3, r3, #2048	@ 0x800
 8001bb8:	689b      	ldr	r3, [r3, #8]
 8001bba:	0a1b      	lsrs	r3, r3, #8
 8001bbc:	f3c3 020d 	ubfx	r2, r3, #0, #14
 8001bc0:	687b      	ldr	r3, [r7, #4]
 8001bc2:	f8c3 24d4 	str.w	r2, [r3, #1236]	@ 0x4d4

    if (__HAL_PCD_GET_FLAG(hpcd, USB_OTG_GINTSTS_MMIS))
 8001bc6:	687b      	ldr	r3, [r7, #4]
 8001bc8:	681b      	ldr	r3, [r3, #0]
 8001bca:	4618      	mov	r0, r3
 8001bcc:	f005 f9a7 	bl	8006f1e <USB_ReadInterrupts>
 8001bd0:	4603      	mov	r3, r0
 8001bd2:	f003 0302 	and.w	r3, r3, #2
 8001bd6:	2b02      	cmp	r3, #2
 8001bd8:	d107      	bne.n	8001bea <HAL_PCD_IRQHandler+0x6e>
    {
      /* incorrect mode, acknowledge the interrupt */
      __HAL_PCD_CLEAR_FLAG(hpcd, USB_OTG_GINTSTS_MMIS);
 8001bda:	687b      	ldr	r3, [r7, #4]
 8001bdc:	681b      	ldr	r3, [r3, #0]
 8001bde:	695a      	ldr	r2, [r3, #20]
 8001be0:	687b      	ldr	r3, [r7, #4]
 8001be2:	681b      	ldr	r3, [r3, #0]
 8001be4:	f002 0202 	and.w	r2, r2, #2
 8001be8:	615a      	str	r2, [r3, #20]
    }

    /* Handle RxQLevel Interrupt */
    if (__HAL_PCD_GET_FLAG(hpcd, USB_OTG_GINTSTS_RXFLVL))
 8001bea:	687b      	ldr	r3, [r7, #4]
 8001bec:	681b      	ldr	r3, [r3, #0]
 8001bee:	4618      	mov	r0, r3
 8001bf0:	f005 f995 	bl	8006f1e <USB_ReadInterrupts>
 8001bf4:	4603      	mov	r3, r0
 8001bf6:	f003 0310 	and.w	r3, r3, #16
 8001bfa:	2b10      	cmp	r3, #16
 8001bfc:	d161      	bne.n	8001cc2 <HAL_PCD_IRQHandler+0x146>
    {
      USB_MASK_INTERRUPT(hpcd->Instance, USB_OTG_GINTSTS_RXFLVL);
 8001bfe:	687b      	ldr	r3, [r7, #4]
 8001c00:	681b      	ldr	r3, [r3, #0]
 8001c02:	699a      	ldr	r2, [r3, #24]
 8001c04:	687b      	ldr	r3, [r7, #4]
 8001c06:	681b      	ldr	r3, [r3, #0]
 8001c08:	f022 0210 	bic.w	r2, r2, #16
 8001c0c:	619a      	str	r2, [r3, #24]

      RegVal = USBx->GRXSTSP;
 8001c0e:	6a3b      	ldr	r3, [r7, #32]
 8001c10:	6a1b      	ldr	r3, [r3, #32]
 8001c12:	61bb      	str	r3, [r7, #24]

      ep = &hpcd->OUT_ep[RegVal & USB_OTG_GRXSTSP_EPNUM];
 8001c14:	69bb      	ldr	r3, [r7, #24]
 8001c16:	f003 020f 	and.w	r2, r3, #15
 8001c1a:	4613      	mov	r3, r2
 8001c1c:	00db      	lsls	r3, r3, #3
 8001c1e:	4413      	add	r3, r2
 8001c20:	009b      	lsls	r3, r3, #2
 8001c22:	f503 7314 	add.w	r3, r3, #592	@ 0x250
 8001c26:	687a      	ldr	r2, [r7, #4]
 8001c28:	4413      	add	r3, r2
 8001c2a:	3304      	adds	r3, #4
 8001c2c:	617b      	str	r3, [r7, #20]

      if (((RegVal & USB_OTG_GRXSTSP_PKTSTS) >> 17) ==  STS_DATA_UPDT)
 8001c2e:	69bb      	ldr	r3, [r7, #24]
 8001c30:	f403 13f0 	and.w	r3, r3, #1966080	@ 0x1e0000
 8001c34:	f5b3 2f80 	cmp.w	r3, #262144	@ 0x40000
 8001c38:	d124      	bne.n	8001c84 <HAL_PCD_IRQHandler+0x108>
      {
        if ((RegVal & USB_OTG_GRXSTSP_BCNT) != 0U)
 8001c3a:	69ba      	ldr	r2, [r7, #24]
 8001c3c:	f647 73f0 	movw	r3, #32752	@ 0x7ff0
 8001c40:	4013      	ands	r3, r2
 8001c42:	2b00      	cmp	r3, #0
 8001c44:	d035      	beq.n	8001cb2 <HAL_PCD_IRQHandler+0x136>
        {
          (void)USB_ReadPacket(USBx, ep->xfer_buff,
 8001c46:	697b      	ldr	r3, [r7, #20]
 8001c48:	68d9      	ldr	r1, [r3, #12]
                               (uint16_t)((RegVal & USB_OTG_GRXSTSP_BCNT) >> 4));
 8001c4a:	69bb      	ldr	r3, [r7, #24]
 8001c4c:	091b      	lsrs	r3, r3, #4
 8001c4e:	b29b      	uxth	r3, r3
          (void)USB_ReadPacket(USBx, ep->xfer_buff,
 8001c50:	f3c3 030a 	ubfx	r3, r3, #0, #11
 8001c54:	b29b      	uxth	r3, r3
 8001c56:	461a      	mov	r2, r3
 8001c58:	6a38      	ldr	r0, [r7, #32]
 8001c5a:	f005 f8a0 	bl	8006d9e <USB_ReadPacket>

          ep->xfer_buff += (RegVal & USB_OTG_GRXSTSP_BCNT) >> 4;
 8001c5e:	697b      	ldr	r3, [r7, #20]
 8001c60:	68da      	ldr	r2, [r3, #12]
 8001c62:	69bb      	ldr	r3, [r7, #24]
 8001c64:	091b      	lsrs	r3, r3, #4
 8001c66:	f3c3 030a 	ubfx	r3, r3, #0, #11
 8001c6a:	441a      	add	r2, r3
 8001c6c:	697b      	ldr	r3, [r7, #20]
 8001c6e:	60da      	str	r2, [r3, #12]
          ep->xfer_count += (RegVal & USB_OTG_GRXSTSP_BCNT) >> 4;
 8001c70:	697b      	ldr	r3, [r7, #20]
 8001c72:	695a      	ldr	r2, [r3, #20]
 8001c74:	69bb      	ldr	r3, [r7, #24]
 8001c76:	091b      	lsrs	r3, r3, #4
 8001c78:	f3c3 030a 	ubfx	r3, r3, #0, #11
 8001c7c:	441a      	add	r2, r3
 8001c7e:	697b      	ldr	r3, [r7, #20]
 8001c80:	615a      	str	r2, [r3, #20]
 8001c82:	e016      	b.n	8001cb2 <HAL_PCD_IRQHandler+0x136>
        }
      }
      else if (((RegVal & USB_OTG_GRXSTSP_PKTSTS) >> 17) == STS_SETUP_UPDT)
 8001c84:	69bb      	ldr	r3, [r7, #24]
 8001c86:	f403 13f0 	and.w	r3, r3, #1966080	@ 0x1e0000
 8001c8a:	f5b3 2f40 	cmp.w	r3, #786432	@ 0xc0000
 8001c8e:	d110      	bne.n	8001cb2 <HAL_PCD_IRQHandler+0x136>
      {
        (void)USB_ReadPacket(USBx, (uint8_t *)hpcd->Setup, 8U);
 8001c90:	687b      	ldr	r3, [r7, #4]
 8001c92:	f203 439c 	addw	r3, r3, #1180	@ 0x49c
 8001c96:	2208      	movs	r2, #8
 8001c98:	4619      	mov	r1, r3
 8001c9a:	6a38      	ldr	r0, [r7, #32]
 8001c9c:	f005 f87f 	bl	8006d9e <USB_ReadPacket>
        ep->xfer_count += (RegVal & USB_OTG_GRXSTSP_BCNT) >> 4;
 8001ca0:	697b      	ldr	r3, [r7, #20]
 8001ca2:	695a      	ldr	r2, [r3, #20]
 8001ca4:	69bb      	ldr	r3, [r7, #24]
 8001ca6:	091b      	lsrs	r3, r3, #4
 8001ca8:	f3c3 030a 	ubfx	r3, r3, #0, #11
 8001cac:	441a      	add	r2, r3
 8001cae:	697b      	ldr	r3, [r7, #20]
 8001cb0:	615a      	str	r2, [r3, #20]
      else
      {
        /* ... */
      }

      USB_UNMASK_INTERRUPT(hpcd->Instance, USB_OTG_GINTSTS_RXFLVL);
 8001cb2:	687b      	ldr	r3, [r7, #4]
 8001cb4:	681b      	ldr	r3, [r3, #0]
 8001cb6:	699a      	ldr	r2, [r3, #24]
 8001cb8:	687b      	ldr	r3, [r7, #4]
 8001cba:	681b      	ldr	r3, [r3, #0]
 8001cbc:	f042 0210 	orr.w	r2, r2, #16
 8001cc0:	619a      	str	r2, [r3, #24]
    }

    if (__HAL_PCD_GET_FLAG(hpcd, USB_OTG_GINTSTS_OEPINT))
 8001cc2:	687b      	ldr	r3, [r7, #4]
 8001cc4:	681b      	ldr	r3, [r3, #0]
 8001cc6:	4618      	mov	r0, r3
 8001cc8:	f005 f929 	bl	8006f1e <USB_ReadInterrupts>
 8001ccc:	4603      	mov	r3, r0
 8001cce:	f403 2300 	and.w	r3, r3, #524288	@ 0x80000
 8001cd2:	f5b3 2f00 	cmp.w	r3, #524288	@ 0x80000
 8001cd6:	f040 80a7 	bne.w	8001e28 <HAL_PCD_IRQHandler+0x2ac>
    {
      epnum = 0U;
 8001cda:	2300      	movs	r3, #0
 8001cdc:	627b      	str	r3, [r7, #36]	@ 0x24

      /* Read in the device interrupt bits */
      ep_intr = USB_ReadDevAllOutEpInterrupt(hpcd->Instance);
 8001cde:	687b      	ldr	r3, [r7, #4]
 8001ce0:	681b      	ldr	r3, [r3, #0]
 8001ce2:	4618      	mov	r0, r3
 8001ce4:	f005 f92e 	bl	8006f44 <USB_ReadDevAllOutEpInterrupt>
 8001ce8:	62b8      	str	r0, [r7, #40]	@ 0x28

      while (ep_intr != 0U)
 8001cea:	e099      	b.n	8001e20 <HAL_PCD_IRQHandler+0x2a4>
      {
        if ((ep_intr & 0x1U) != 0U)
 8001cec:	6abb      	ldr	r3, [r7, #40]	@ 0x28
 8001cee:	f003 0301 	and.w	r3, r3, #1
 8001cf2:	2b00      	cmp	r3, #0
 8001cf4:	f000 808e 	beq.w	8001e14 <HAL_PCD_IRQHandler+0x298>
        {
          epint = USB_ReadDevOutEPInterrupt(hpcd->Instance, (uint8_t)epnum);
 8001cf8:	687b      	ldr	r3, [r7, #4]
 8001cfa:	681b      	ldr	r3, [r3, #0]
 8001cfc:	6a7a      	ldr	r2, [r7, #36]	@ 0x24
 8001cfe:	b2d2      	uxtb	r2, r2
 8001d00:	4611      	mov	r1, r2
 8001d02:	4618      	mov	r0, r3
 8001d04:	f005 f952 	bl	8006fac <USB_ReadDevOutEPInterrupt>
 8001d08:	6138      	str	r0, [r7, #16]

          if ((epint & USB_OTG_DOEPINT_XFRC) == USB_OTG_DOEPINT_XFRC)
 8001d0a:	693b      	ldr	r3, [r7, #16]
 8001d0c:	f003 0301 	and.w	r3, r3, #1
 8001d10:	2b00      	cmp	r3, #0
 8001d12:	d00c      	beq.n	8001d2e <HAL_PCD_IRQHandler+0x1b2>
          {
            CLEAR_OUT_EP_INTR(epnum, USB_OTG_DOEPINT_XFRC);
 8001d14:	6a7b      	ldr	r3, [r7, #36]	@ 0x24
 8001d16:	015a      	lsls	r2, r3, #5
 8001d18:	69fb      	ldr	r3, [r7, #28]
 8001d1a:	4413      	add	r3, r2
 8001d1c:	f503 6330 	add.w	r3, r3, #2816	@ 0xb00
 8001d20:	461a      	mov	r2, r3
 8001d22:	2301      	movs	r3, #1
 8001d24:	6093      	str	r3, [r2, #8]
            (void)PCD_EP_OutXfrComplete_int(hpcd, epnum);
 8001d26:	6a79      	ldr	r1, [r7, #36]	@ 0x24
 8001d28:	6878      	ldr	r0, [r7, #4]
 8001d2a:	f000 feeb 	bl	8002b04 <PCD_EP_OutXfrComplete_int>
          }

          if ((epint & USB_OTG_DOEPINT_STUP) == USB_OTG_DOEPINT_STUP)
 8001d2e:	693b      	ldr	r3, [r7, #16]
 8001d30:	f003 0308 	and.w	r3, r3, #8
 8001d34:	2b00      	cmp	r3, #0
 8001d36:	d00c      	beq.n	8001d52 <HAL_PCD_IRQHandler+0x1d6>
          {
            CLEAR_OUT_EP_INTR(epnum, USB_OTG_DOEPINT_STUP);
 8001d38:	6a7b      	ldr	r3, [r7, #36]	@ 0x24
 8001d3a:	015a      	lsls	r2, r3, #5
 8001d3c:	69fb      	ldr	r3, [r7, #28]
 8001d3e:	4413      	add	r3, r2
 8001d40:	f503 6330 	add.w	r3, r3, #2816	@ 0xb00
 8001d44:	461a      	mov	r2, r3
 8001d46:	2308      	movs	r3, #8
 8001d48:	6093      	str	r3, [r2, #8]
            /* Class B setup phase done for previous decoded setup */
            (void)PCD_EP_OutSetupPacket_int(hpcd, epnum);
 8001d4a:	6a79      	ldr	r1, [r7, #36]	@ 0x24
 8001d4c:	6878      	ldr	r0, [r7, #4]
 8001d4e:	f000 ffc1 	bl	8002cd4 <PCD_EP_OutSetupPacket_int>
          }

          if ((epint & USB_OTG_DOEPINT_OTEPDIS) == USB_OTG_DOEPINT_OTEPDIS)
 8001d52:	693b      	ldr	r3, [r7, #16]
 8001d54:	f003 0310 	and.w	r3, r3, #16
 8001d58:	2b00      	cmp	r3, #0
 8001d5a:	d008      	beq.n	8001d6e <HAL_PCD_IRQHandler+0x1f2>
          {
            CLEAR_OUT_EP_INTR(epnum, USB_OTG_DOEPINT_OTEPDIS);
 8001d5c:	6a7b      	ldr	r3, [r7, #36]	@ 0x24
 8001d5e:	015a      	lsls	r2, r3, #5
 8001d60:	69fb      	ldr	r3, [r7, #28]
 8001d62:	4413      	add	r3, r2
 8001d64:	f503 6330 	add.w	r3, r3, #2816	@ 0xb00
 8001d68:	461a      	mov	r2, r3
 8001d6a:	2310      	movs	r3, #16
 8001d6c:	6093      	str	r3, [r2, #8]
          }

          /* Clear OUT Endpoint disable interrupt */
          if ((epint & USB_OTG_DOEPINT_EPDISD) == USB_OTG_DOEPINT_EPDISD)
 8001d6e:	693b      	ldr	r3, [r7, #16]
 8001d70:	f003 0302 	and.w	r3, r3, #2
 8001d74:	2b00      	cmp	r3, #0
 8001d76:	d030      	beq.n	8001dda <HAL_PCD_IRQHandler+0x25e>
          {
            if ((USBx->GINTSTS & USB_OTG_GINTSTS_BOUTNAKEFF) == USB_OTG_GINTSTS_BOUTNAKEFF)
 8001d78:	6a3b      	ldr	r3, [r7, #32]
 8001d7a:	695b      	ldr	r3, [r3, #20]
 8001d7c:	f003 0380 	and.w	r3, r3, #128	@ 0x80
 8001d80:	2b80      	cmp	r3, #128	@ 0x80
 8001d82:	d109      	bne.n	8001d98 <HAL_PCD_IRQHandler+0x21c>
            {
              USBx_DEVICE->DCTL |= USB_OTG_DCTL_CGONAK;
 8001d84:	69fb      	ldr	r3, [r7, #28]
 8001d86:	f503 6300 	add.w	r3, r3, #2048	@ 0x800
 8001d8a:	685b      	ldr	r3, [r3, #4]
 8001d8c:	69fa      	ldr	r2, [r7, #28]
 8001d8e:	f502 6200 	add.w	r2, r2, #2048	@ 0x800
 8001d92:	f443 6380 	orr.w	r3, r3, #1024	@ 0x400
 8001d96:	6053      	str	r3, [r2, #4]
            }

            ep = &hpcd->OUT_ep[epnum];
 8001d98:	6a7a      	ldr	r2, [r7, #36]	@ 0x24
 8001d9a:	4613      	mov	r3, r2
 8001d9c:	00db      	lsls	r3, r3, #3
 8001d9e:	4413      	add	r3, r2
 8001da0:	009b      	lsls	r3, r3, #2
 8001da2:	f503 7314 	add.w	r3, r3, #592	@ 0x250
 8001da6:	687a      	ldr	r2, [r7, #4]
 8001da8:	4413      	add	r3, r2
 8001daa:	3304      	adds	r3, #4
 8001dac:	617b      	str	r3, [r7, #20]

            if (ep->is_iso_incomplete == 1U)
 8001dae:	697b      	ldr	r3, [r7, #20]
 8001db0:	78db      	ldrb	r3, [r3, #3]
 8001db2:	2b01      	cmp	r3, #1
 8001db4:	d108      	bne.n	8001dc8 <HAL_PCD_IRQHandler+0x24c>
            {
              ep->is_iso_incomplete = 0U;
 8001db6:	697b      	ldr	r3, [r7, #20]
 8001db8:	2200      	movs	r2, #0
 8001dba:	70da      	strb	r2, [r3, #3]

#if (USE_HAL_PCD_REGISTER_CALLBACKS == 1U)
              hpcd->ISOOUTIncompleteCallback(hpcd, (uint8_t)epnum);
#else
              HAL_PCD_ISOOUTIncompleteCallback(hpcd, (uint8_t)epnum);
 8001dbc:	6a7b      	ldr	r3, [r7, #36]	@ 0x24
 8001dbe:	b2db      	uxtb	r3, r3
 8001dc0:	4619      	mov	r1, r3
 8001dc2:	6878      	ldr	r0, [r7, #4]
 8001dc4:	f007 fd26 	bl	8009814 <HAL_PCD_ISOOUTIncompleteCallback>
#endif /* USE_HAL_PCD_REGISTER_CALLBACKS */
            }

            CLEAR_OUT_EP_INTR(epnum, USB_OTG_DOEPINT_EPDISD);
 8001dc8:	6a7b      	ldr	r3, [r7, #36]	@ 0x24
 8001dca:	015a      	lsls	r2, r3, #5
 8001dcc:	69fb      	ldr	r3, [r7, #28]
 8001dce:	4413      	add	r3, r2
 8001dd0:	f503 6330 	add.w	r3, r3, #2816	@ 0xb00
 8001dd4:	461a      	mov	r2, r3
 8001dd6:	2302      	movs	r3, #2
 8001dd8:	6093      	str	r3, [r2, #8]
          }

          /* Clear Status Phase Received interrupt */
          if ((epint & USB_OTG_DOEPINT_OTEPSPR) == USB_OTG_DOEPINT_OTEPSPR)
 8001dda:	693b      	ldr	r3, [r7, #16]
 8001ddc:	f003 0320 	and.w	r3, r3, #32
 8001de0:	2b00      	cmp	r3, #0
 8001de2:	d008      	beq.n	8001df6 <HAL_PCD_IRQHandler+0x27a>
          {
            CLEAR_OUT_EP_INTR(epnum, USB_OTG_DOEPINT_OTEPSPR);
 8001de4:	6a7b      	ldr	r3, [r7, #36]	@ 0x24
 8001de6:	015a      	lsls	r2, r3, #5
 8001de8:	69fb      	ldr	r3, [r7, #28]
 8001dea:	4413      	add	r3, r2
 8001dec:	f503 6330 	add.w	r3, r3, #2816	@ 0xb00
 8001df0:	461a      	mov	r2, r3
 8001df2:	2320      	movs	r3, #32
 8001df4:	6093      	str	r3, [r2, #8]
          }

          /* Clear OUT NAK interrupt */
          if ((epint & USB_OTG_DOEPINT_NAK) == USB_OTG_DOEPINT_NAK)
 8001df6:	693b      	ldr	r3, [r7, #16]
 8001df8:	f403 5300 	and.w	r3, r3, #8192	@ 0x2000
 8001dfc:	2b00      	cmp	r3, #0
 8001dfe:	d009      	beq.n	8001e14 <HAL_PCD_IRQHandler+0x298>
          {
            CLEAR_OUT_EP_INTR(epnum, USB_OTG_DOEPINT_NAK);
 8001e00:	6a7b      	ldr	r3, [r7, #36]	@ 0x24
 8001e02:	015a      	lsls	r2, r3, #5
 8001e04:	69fb      	ldr	r3, [r7, #28]
 8001e06:	4413      	add	r3, r2
 8001e08:	f503 6330 	add.w	r3, r3, #2816	@ 0xb00
 8001e0c:	461a      	mov	r2, r3
 8001e0e:	f44f 5300 	mov.w	r3, #8192	@ 0x2000
 8001e12:	6093      	str	r3, [r2, #8]
          }
        }
        epnum++;
 8001e14:	6a7b      	ldr	r3, [r7, #36]	@ 0x24
 8001e16:	3301      	adds	r3, #1
 8001e18:	627b      	str	r3, [r7, #36]	@ 0x24
        ep_intr >>= 1U;
 8001e1a:	6abb      	ldr	r3, [r7, #40]	@ 0x28
 8001e1c:	085b      	lsrs	r3, r3, #1
 8001e1e:	62bb      	str	r3, [r7, #40]	@ 0x28
      while (ep_intr != 0U)
 8001e20:	6abb      	ldr	r3, [r7, #40]	@ 0x28
 8001e22:	2b00      	cmp	r3, #0
 8001e24:	f47f af62 	bne.w	8001cec <HAL_PCD_IRQHandler+0x170>
      }
    }

    if (__HAL_PCD_GET_FLAG(hpcd, USB_OTG_GINTSTS_IEPINT))
 8001e28:	687b      	ldr	r3, [r7, #4]
 8001e2a:	681b      	ldr	r3, [r3, #0]
 8001e2c:	4618      	mov	r0, r3
 8001e2e:	f005 f876 	bl	8006f1e <USB_ReadInterrupts>
 8001e32:	4603      	mov	r3, r0
 8001e34:	f403 2380 	and.w	r3, r3, #262144	@ 0x40000
 8001e38:	f5b3 2f80 	cmp.w	r3, #262144	@ 0x40000
 8001e3c:	f040 80db 	bne.w	8001ff6 <HAL_PCD_IRQHandler+0x47a>
    {
      /* Read in the device interrupt bits */
      ep_intr = USB_ReadDevAllInEpInterrupt(hpcd->Instance);
 8001e40:	687b      	ldr	r3, [r7, #4]
 8001e42:	681b      	ldr	r3, [r3, #0]
 8001e44:	4618      	mov	r0, r3
 8001e46:	f005 f897 	bl	8006f78 <USB_ReadDevAllInEpInterrupt>
 8001e4a:	62b8      	str	r0, [r7, #40]	@ 0x28

      epnum = 0U;
 8001e4c:	2300      	movs	r3, #0
 8001e4e:	627b      	str	r3, [r7, #36]	@ 0x24

      while (ep_intr != 0U)
 8001e50:	e0cd      	b.n	8001fee <HAL_PCD_IRQHandler+0x472>
      {
        if ((ep_intr & 0x1U) != 0U) /* In ITR */
 8001e52:	6abb      	ldr	r3, [r7, #40]	@ 0x28
 8001e54:	f003 0301 	and.w	r3, r3, #1
 8001e58:	2b00      	cmp	r3, #0
 8001e5a:	f000 80c2 	beq.w	8001fe2 <HAL_PCD_IRQHandler+0x466>
        {
          epint = USB_ReadDevInEPInterrupt(hpcd->Instance, (uint8_t)epnum);
 8001e5e:	687b      	ldr	r3, [r7, #4]
 8001e60:	681b      	ldr	r3, [r3, #0]
 8001e62:	6a7a      	ldr	r2, [r7, #36]	@ 0x24
 8001e64:	b2d2      	uxtb	r2, r2
 8001e66:	4611      	mov	r1, r2
 8001e68:	4618      	mov	r0, r3
 8001e6a:	f005 f8bd 	bl	8006fe8 <USB_ReadDevInEPInterrupt>
 8001e6e:	6138      	str	r0, [r7, #16]

          if ((epint & USB_OTG_DIEPINT_XFRC) == USB_OTG_DIEPINT_XFRC)
 8001e70:	693b      	ldr	r3, [r7, #16]
 8001e72:	f003 0301 	and.w	r3, r3, #1
 8001e76:	2b00      	cmp	r3, #0
 8001e78:	d057      	beq.n	8001f2a <HAL_PCD_IRQHandler+0x3ae>
          {
            fifoemptymsk = (uint32_t)(0x1UL << (epnum & EP_ADDR_MSK));
 8001e7a:	6a7b      	ldr	r3, [r7, #36]	@ 0x24
 8001e7c:	f003 030f 	and.w	r3, r3, #15
 8001e80:	2201      	movs	r2, #1
 8001e82:	fa02 f303 	lsl.w	r3, r2, r3
 8001e86:	60fb      	str	r3, [r7, #12]
            USBx_DEVICE->DIEPEMPMSK &= ~fifoemptymsk;
 8001e88:	69fb      	ldr	r3, [r7, #28]
 8001e8a:	f503 6300 	add.w	r3, r3, #2048	@ 0x800
 8001e8e:	6b5a      	ldr	r2, [r3, #52]	@ 0x34
 8001e90:	68fb      	ldr	r3, [r7, #12]
 8001e92:	43db      	mvns	r3, r3
 8001e94:	69f9      	ldr	r1, [r7, #28]
 8001e96:	f501 6100 	add.w	r1, r1, #2048	@ 0x800
 8001e9a:	4013      	ands	r3, r2
 8001e9c:	634b      	str	r3, [r1, #52]	@ 0x34

            CLEAR_IN_EP_INTR(epnum, USB_OTG_DIEPINT_XFRC);
 8001e9e:	6a7b      	ldr	r3, [r7, #36]	@ 0x24
 8001ea0:	015a      	lsls	r2, r3, #5
 8001ea2:	69fb      	ldr	r3, [r7, #28]
 8001ea4:	4413      	add	r3, r2
 8001ea6:	f503 6310 	add.w	r3, r3, #2304	@ 0x900
 8001eaa:	461a      	mov	r2, r3
 8001eac:	2301      	movs	r3, #1
 8001eae:	6093      	str	r3, [r2, #8]

            if (hpcd->Init.dma_enable == 1U)
 8001eb0:	687b      	ldr	r3, [r7, #4]
 8001eb2:	799b      	ldrb	r3, [r3, #6]
 8001eb4:	2b01      	cmp	r3, #1
 8001eb6:	d132      	bne.n	8001f1e <HAL_PCD_IRQHandler+0x3a2>
            {
              hpcd->IN_ep[epnum].xfer_buff += hpcd->IN_ep[epnum].maxpacket;
 8001eb8:	6879      	ldr	r1, [r7, #4]
 8001eba:	6a7a      	ldr	r2, [r7, #36]	@ 0x24
 8001ebc:	4613      	mov	r3, r2
 8001ebe:	00db      	lsls	r3, r3, #3
 8001ec0:	4413      	add	r3, r2
 8001ec2:	009b      	lsls	r3, r3, #2
 8001ec4:	440b      	add	r3, r1
 8001ec6:	3320      	adds	r3, #32
 8001ec8:	6819      	ldr	r1, [r3, #0]
 8001eca:	6878      	ldr	r0, [r7, #4]
 8001ecc:	6a7a      	ldr	r2, [r7, #36]	@ 0x24
 8001ece:	4613      	mov	r3, r2
 8001ed0:	00db      	lsls	r3, r3, #3
 8001ed2:	4413      	add	r3, r2
 8001ed4:	009b      	lsls	r3, r3, #2
 8001ed6:	4403      	add	r3, r0
 8001ed8:	331c      	adds	r3, #28
 8001eda:	681b      	ldr	r3, [r3, #0]
 8001edc:	4419      	add	r1, r3
 8001ede:	6878      	ldr	r0, [r7, #4]
 8001ee0:	6a7a      	ldr	r2, [r7, #36]	@ 0x24
 8001ee2:	4613      	mov	r3, r2
 8001ee4:	00db      	lsls	r3, r3, #3
 8001ee6:	4413      	add	r3, r2
 8001ee8:	009b      	lsls	r3, r3, #2
 8001eea:	4403      	add	r3, r0
 8001eec:	3320      	adds	r3, #32
 8001eee:	6019      	str	r1, [r3, #0]

              /* this is ZLP, so prepare EP0 for next setup */
              if ((epnum == 0U) && (hpcd->IN_ep[epnum].xfer_len == 0U))
 8001ef0:	6a7b      	ldr	r3, [r7, #36]	@ 0x24
 8001ef2:	2b00      	cmp	r3, #0
 8001ef4:	d113      	bne.n	8001f1e <HAL_PCD_IRQHandler+0x3a2>
 8001ef6:	6879      	ldr	r1, [r7, #4]
 8001ef8:	6a7a      	ldr	r2, [r7, #36]	@ 0x24
 8001efa:	4613      	mov	r3, r2
 8001efc:	00db      	lsls	r3, r3, #3
 8001efe:	4413      	add	r3, r2
 8001f00:	009b      	lsls	r3, r3, #2
 8001f02:	440b      	add	r3, r1
 8001f04:	3324      	adds	r3, #36	@ 0x24
 8001f06:	681b      	ldr	r3, [r3, #0]
 8001f08:	2b00      	cmp	r3, #0
 8001f0a:	d108      	bne.n	8001f1e <HAL_PCD_IRQHandler+0x3a2>
              {
                /* prepare to rx more setup packets */
                (void)USB_EP0_OutStart(hpcd->Instance, 1U, (uint8_t *)hpcd->Setup);
 8001f0c:	687b      	ldr	r3, [r7, #4]
 8001f0e:	6818      	ldr	r0, [r3, #0]
 8001f10:	687b      	ldr	r3, [r7, #4]
 8001f12:	f203 439c 	addw	r3, r3, #1180	@ 0x49c
 8001f16:	461a      	mov	r2, r3
 8001f18:	2101      	movs	r1, #1
 8001f1a:	f005 f8c5 	bl	80070a8 <USB_EP0_OutStart>
            }

#if (USE_HAL_PCD_REGISTER_CALLBACKS == 1U)
            hpcd->DataInStageCallback(hpcd, (uint8_t)epnum);
#else
            HAL_PCD_DataInStageCallback(hpcd, (uint8_t)epnum);
 8001f1e:	6a7b      	ldr	r3, [r7, #36]	@ 0x24
 8001f20:	b2db      	uxtb	r3, r3
 8001f22:	4619      	mov	r1, r3
 8001f24:	6878      	ldr	r0, [r7, #4]
 8001f26:	f007 fbf0 	bl	800970a <HAL_PCD_DataInStageCallback>
#endif /* USE_HAL_PCD_REGISTER_CALLBACKS */
          }
          if ((epint & USB_OTG_DIEPINT_TOC) == USB_OTG_DIEPINT_TOC)
 8001f2a:	693b      	ldr	r3, [r7, #16]
 8001f2c:	f003 0308 	and.w	r3, r3, #8
 8001f30:	2b00      	cmp	r3, #0
 8001f32:	d008      	beq.n	8001f46 <HAL_PCD_IRQHandler+0x3ca>
          {
            CLEAR_IN_EP_INTR(epnum, USB_OTG_DIEPINT_TOC);
 8001f34:	6a7b      	ldr	r3, [r7, #36]	@ 0x24
 8001f36:	015a      	lsls	r2, r3, #5
 8001f38:	69fb      	ldr	r3, [r7, #28]
 8001f3a:	4413      	add	r3, r2
 8001f3c:	f503 6310 	add.w	r3, r3, #2304	@ 0x900
 8001f40:	461a      	mov	r2, r3
 8001f42:	2308      	movs	r3, #8
 8001f44:	6093      	str	r3, [r2, #8]
          }
          if ((epint & USB_OTG_DIEPINT_ITTXFE) == USB_OTG_DIEPINT_ITTXFE)
 8001f46:	693b      	ldr	r3, [r7, #16]
 8001f48:	f003 0310 	and.w	r3, r3, #16
 8001f4c:	2b00      	cmp	r3, #0
 8001f4e:	d008      	beq.n	8001f62 <HAL_PCD_IRQHandler+0x3e6>
          {
            CLEAR_IN_EP_INTR(epnum, USB_OTG_DIEPINT_ITTXFE);
 8001f50:	6a7b      	ldr	r3, [r7, #36]	@ 0x24
 8001f52:	015a      	lsls	r2, r3, #5
 8001f54:	69fb      	ldr	r3, [r7, #28]
 8001f56:	4413      	add	r3, r2
 8001f58:	f503 6310 	add.w	r3, r3, #2304	@ 0x900
 8001f5c:	461a      	mov	r2, r3
 8001f5e:	2310      	movs	r3, #16
 8001f60:	6093      	str	r3, [r2, #8]
          }
          if ((epint & USB_OTG_DIEPINT_INEPNE) == USB_OTG_DIEPINT_INEPNE)
 8001f62:	693b      	ldr	r3, [r7, #16]
 8001f64:	f003 0340 	and.w	r3, r3, #64	@ 0x40
 8001f68:	2b00      	cmp	r3, #0
 8001f6a:	d008      	beq.n	8001f7e <HAL_PCD_IRQHandler+0x402>
          {
            CLEAR_IN_EP_INTR(epnum, USB_OTG_DIEPINT_INEPNE);
 8001f6c:	6a7b      	ldr	r3, [r7, #36]	@ 0x24
 8001f6e:	015a      	lsls	r2, r3, #5
 8001f70:	69fb      	ldr	r3, [r7, #28]
 8001f72:	4413      	add	r3, r2
 8001f74:	f503 6310 	add.w	r3, r3, #2304	@ 0x900
 8001f78:	461a      	mov	r2, r3
 8001f7a:	2340      	movs	r3, #64	@ 0x40
 8001f7c:	6093      	str	r3, [r2, #8]
          }
          if ((epint & USB_OTG_DIEPINT_EPDISD) == USB_OTG_DIEPINT_EPDISD)
 8001f7e:	693b      	ldr	r3, [r7, #16]
 8001f80:	f003 0302 	and.w	r3, r3, #2
 8001f84:	2b00      	cmp	r3, #0
 8001f86:	d023      	beq.n	8001fd0 <HAL_PCD_IRQHandler+0x454>
          {
            (void)USB_FlushTxFifo(USBx, epnum);
 8001f88:	6a79      	ldr	r1, [r7, #36]	@ 0x24
 8001f8a:	6a38      	ldr	r0, [r7, #32]
 8001f8c:	f004 f852 	bl	8006034 <USB_FlushTxFifo>

            ep = &hpcd->IN_ep[epnum];
 8001f90:	6a7a      	ldr	r2, [r7, #36]	@ 0x24
 8001f92:	4613      	mov	r3, r2
 8001f94:	00db      	lsls	r3, r3, #3
 8001f96:	4413      	add	r3, r2
 8001f98:	009b      	lsls	r3, r3, #2
 8001f9a:	3310      	adds	r3, #16
 8001f9c:	687a      	ldr	r2, [r7, #4]
 8001f9e:	4413      	add	r3, r2
 8001fa0:	3304      	adds	r3, #4
 8001fa2:	617b      	str	r3, [r7, #20]

            if (ep->is_iso_incomplete == 1U)
 8001fa4:	697b      	ldr	r3, [r7, #20]
 8001fa6:	78db      	ldrb	r3, [r3, #3]
 8001fa8:	2b01      	cmp	r3, #1
 8001faa:	d108      	bne.n	8001fbe <HAL_PCD_IRQHandler+0x442>
            {
              ep->is_iso_incomplete = 0U;
 8001fac:	697b      	ldr	r3, [r7, #20]
 8001fae:	2200      	movs	r2, #0
 8001fb0:	70da      	strb	r2, [r3, #3]

#if (USE_HAL_PCD_REGISTER_CALLBACKS == 1U)
              hpcd->ISOINIncompleteCallback(hpcd, (uint8_t)epnum);
#else
              HAL_PCD_ISOINIncompleteCallback(hpcd, (uint8_t)epnum);
 8001fb2:	6a7b      	ldr	r3, [r7, #36]	@ 0x24
 8001fb4:	b2db      	uxtb	r3, r3
 8001fb6:	4619      	mov	r1, r3
 8001fb8:	6878      	ldr	r0, [r7, #4]
 8001fba:	f007 fc3d 	bl	8009838 <HAL_PCD_ISOINIncompleteCallback>
#endif /* USE_HAL_PCD_REGISTER_CALLBACKS */
            }

            CLEAR_IN_EP_INTR(epnum, USB_OTG_DIEPINT_EPDISD);
 8001fbe:	6a7b      	ldr	r3, [r7, #36]	@ 0x24
 8001fc0:	015a      	lsls	r2, r3, #5
 8001fc2:	69fb      	ldr	r3, [r7, #28]
 8001fc4:	4413      	add	r3, r2
 8001fc6:	f503 6310 	add.w	r3, r3, #2304	@ 0x900
 8001fca:	461a      	mov	r2, r3
 8001fcc:	2302      	movs	r3, #2
 8001fce:	6093      	str	r3, [r2, #8]
          }
          if ((epint & USB_OTG_DIEPINT_TXFE) == USB_OTG_DIEPINT_TXFE)
 8001fd0:	693b      	ldr	r3, [r7, #16]
 8001fd2:	f003 0380 	and.w	r3, r3, #128	@ 0x80
 8001fd6:	2b00      	cmp	r3, #0
 8001fd8:	d003      	beq.n	8001fe2 <HAL_PCD_IRQHandler+0x466>
          {
            (void)PCD_WriteEmptyTxFifo(hpcd, epnum);
 8001fda:	6a79      	ldr	r1, [r7, #36]	@ 0x24
 8001fdc:	6878      	ldr	r0, [r7, #4]
 8001fde:	f000 fd04 	bl	80029ea <PCD_WriteEmptyTxFifo>
          }
        }
        epnum++;
 8001fe2:	6a7b      	ldr	r3, [r7, #36]	@ 0x24
 8001fe4:	3301      	adds	r3, #1
 8001fe6:	627b      	str	r3, [r7, #36]	@ 0x24
        ep_intr >>= 1U;
 8001fe8:	6abb      	ldr	r3, [r7, #40]	@ 0x28
 8001fea:	085b      	lsrs	r3, r3, #1
 8001fec:	62bb      	str	r3, [r7, #40]	@ 0x28
      while (ep_intr != 0U)
 8001fee:	6abb      	ldr	r3, [r7, #40]	@ 0x28
 8001ff0:	2b00      	cmp	r3, #0
 8001ff2:	f47f af2e 	bne.w	8001e52 <HAL_PCD_IRQHandler+0x2d6>
      }
    }

    /* Handle Resume Interrupt */
    if (__HAL_PCD_GET_FLAG(hpcd, USB_OTG_GINTSTS_WKUINT))
 8001ff6:	687b      	ldr	r3, [r7, #4]
 8001ff8:	681b      	ldr	r3, [r3, #0]
 8001ffa:	4618      	mov	r0, r3
 8001ffc:	f004 ff8f 	bl	8006f1e <USB_ReadInterrupts>
 8002000:	4603      	mov	r3, r0
 8002002:	f003 4300 	and.w	r3, r3, #2147483648	@ 0x80000000
 8002006:	f1b3 4f00 	cmp.w	r3, #2147483648	@ 0x80000000
 800200a:	d122      	bne.n	8002052 <HAL_PCD_IRQHandler+0x4d6>
    {
      /* Clear the Remote Wake-up Signaling */
      USBx_DEVICE->DCTL &= ~USB_OTG_DCTL_RWUSIG;
 800200c:	69fb      	ldr	r3, [r7, #28]
 800200e:	f503 6300 	add.w	r3, r3, #2048	@ 0x800
 8002012:	685b      	ldr	r3, [r3, #4]
 8002014:	69fa      	ldr	r2, [r7, #28]
 8002016:	f502 6200 	add.w	r2, r2, #2048	@ 0x800
 800201a:	f023 0301 	bic.w	r3, r3, #1
 800201e:	6053      	str	r3, [r2, #4]

      if (hpcd->LPM_State == LPM_L1)
 8002020:	687b      	ldr	r3, [r7, #4]
 8002022:	f893 34cc 	ldrb.w	r3, [r3, #1228]	@ 0x4cc
 8002026:	2b01      	cmp	r3, #1
 8002028:	d108      	bne.n	800203c <HAL_PCD_IRQHandler+0x4c0>
      {
        hpcd->LPM_State = LPM_L0;
 800202a:	687b      	ldr	r3, [r7, #4]
 800202c:	2200      	movs	r2, #0
 800202e:	f883 24cc 	strb.w	r2, [r3, #1228]	@ 0x4cc

#if (USE_HAL_PCD_REGISTER_CALLBACKS == 1U)
        hpcd->LPMCallback(hpcd, PCD_LPM_L0_ACTIVE);
#else
        HAL_PCDEx_LPM_Callback(hpcd, PCD_LPM_L0_ACTIVE);
 8002032:	2100      	movs	r1, #0
 8002034:	6878      	ldr	r0, [r7, #4]
 8002036:	f000 ff0f 	bl	8002e58 <HAL_PCDEx_LPM_Callback>
 800203a:	e002      	b.n	8002042 <HAL_PCD_IRQHandler+0x4c6>
      else
      {
#if (USE_HAL_PCD_REGISTER_CALLBACKS == 1U)
        hpcd->ResumeCallback(hpcd);
#else
        HAL_PCD_ResumeCallback(hpcd);
 800203c:	6878      	ldr	r0, [r7, #4]
 800203e:	f007 fbdb 	bl	80097f8 <HAL_PCD_ResumeCallback>
#endif /* USE_HAL_PCD_REGISTER_CALLBACKS */
      }

      __HAL_PCD_CLEAR_FLAG(hpcd, USB_OTG_GINTSTS_WKUINT);
 8002042:	687b      	ldr	r3, [r7, #4]
 8002044:	681b      	ldr	r3, [r3, #0]
 8002046:	695a      	ldr	r2, [r3, #20]
 8002048:	687b      	ldr	r3, [r7, #4]
 800204a:	681b      	ldr	r3, [r3, #0]
 800204c:	f002 4200 	and.w	r2, r2, #2147483648	@ 0x80000000
 8002050:	615a      	str	r2, [r3, #20]
    }

    /* Handle Suspend Interrupt */
    if (__HAL_PCD_GET_FLAG(hpcd, USB_OTG_GINTSTS_USBSUSP))
 8002052:	687b      	ldr	r3, [r7, #4]
 8002054:	681b      	ldr	r3, [r3, #0]
 8002056:	4618      	mov	r0, r3
 8002058:	f004 ff61 	bl	8006f1e <USB_ReadInterrupts>
 800205c:	4603      	mov	r3, r0
 800205e:	f403 6300 	and.w	r3, r3, #2048	@ 0x800
 8002062:	f5b3 6f00 	cmp.w	r3, #2048	@ 0x800
 8002066:	d112      	bne.n	800208e <HAL_PCD_IRQHandler+0x512>
    {
      if ((USBx_DEVICE->DSTS & USB_OTG_DSTS_SUSPSTS) == USB_OTG_DSTS_SUSPSTS)
 8002068:	69fb      	ldr	r3, [r7, #28]
 800206a:	f503 6300 	add.w	r3, r3, #2048	@ 0x800
 800206e:	689b      	ldr	r3, [r3, #8]
 8002070:	f003 0301 	and.w	r3, r3, #1
 8002074:	2b01      	cmp	r3, #1
 8002076:	d102      	bne.n	800207e <HAL_PCD_IRQHandler+0x502>
      {
#if (USE_HAL_PCD_REGISTER_CALLBACKS == 1U)
        hpcd->SuspendCallback(hpcd);
#else
        HAL_PCD_SuspendCallback(hpcd);
 8002078:	6878      	ldr	r0, [r7, #4]
 800207a:	f007 fb97 	bl	80097ac <HAL_PCD_SuspendCallback>
#endif /* USE_HAL_PCD_REGISTER_CALLBACKS */
      }
      __HAL_PCD_CLEAR_FLAG(hpcd, USB_OTG_GINTSTS_USBSUSP);
 800207e:	687b      	ldr	r3, [r7, #4]
 8002080:	681b      	ldr	r3, [r3, #0]
 8002082:	695a      	ldr	r2, [r3, #20]
 8002084:	687b      	ldr	r3, [r7, #4]
 8002086:	681b      	ldr	r3, [r3, #0]
 8002088:	f402 6200 	and.w	r2, r2, #2048	@ 0x800
 800208c:	615a      	str	r2, [r3, #20]
    }

    /* Handle LPM Interrupt */
    if (__HAL_PCD_GET_FLAG(hpcd, USB_OTG_GINTSTS_LPMINT))
 800208e:	687b      	ldr	r3, [r7, #4]
 8002090:	681b      	ldr	r3, [r3, #0]
 8002092:	4618      	mov	r0, r3
 8002094:	f004 ff43 	bl	8006f1e <USB_ReadInterrupts>
 8002098:	4603      	mov	r3, r0
 800209a:	f003 6300 	and.w	r3, r3, #134217728	@ 0x8000000
 800209e:	f1b3 6f00 	cmp.w	r3, #134217728	@ 0x8000000
 80020a2:	d121      	bne.n	80020e8 <HAL_PCD_IRQHandler+0x56c>
    {
      __HAL_PCD_CLEAR_FLAG(hpcd, USB_OTG_GINTSTS_LPMINT);
 80020a4:	687b      	ldr	r3, [r7, #4]
 80020a6:	681b      	ldr	r3, [r3, #0]
 80020a8:	695a      	ldr	r2, [r3, #20]
 80020aa:	687b      	ldr	r3, [r7, #4]
 80020ac:	681b      	ldr	r3, [r3, #0]
 80020ae:	f002 6200 	and.w	r2, r2, #134217728	@ 0x8000000
 80020b2:	615a      	str	r2, [r3, #20]

      if (hpcd->LPM_State == LPM_L0)
 80020b4:	687b      	ldr	r3, [r7, #4]
 80020b6:	f893 34cc 	ldrb.w	r3, [r3, #1228]	@ 0x4cc
 80020ba:	2b00      	cmp	r3, #0
 80020bc:	d111      	bne.n	80020e2 <HAL_PCD_IRQHandler+0x566>
      {
        hpcd->LPM_State = LPM_L1;
 80020be:	687b      	ldr	r3, [r7, #4]
 80020c0:	2201      	movs	r2, #1
 80020c2:	f883 24cc 	strb.w	r2, [r3, #1228]	@ 0x4cc
        hpcd->BESL = (hpcd->Instance->GLPMCFG & USB_OTG_GLPMCFG_BESL) >> 2U;
 80020c6:	687b      	ldr	r3, [r7, #4]
 80020c8:	681b      	ldr	r3, [r3, #0]
 80020ca:	6d5b      	ldr	r3, [r3, #84]	@ 0x54
 80020cc:	089b      	lsrs	r3, r3, #2
 80020ce:	f003 020f 	and.w	r2, r3, #15
 80020d2:	687b      	ldr	r3, [r7, #4]
 80020d4:	f8c3 24d0 	str.w	r2, [r3, #1232]	@ 0x4d0

#if (USE_HAL_PCD_REGISTER_CALLBACKS == 1U)
        hpcd->LPMCallback(hpcd, PCD_LPM_L1_ACTIVE);
#else
        HAL_PCDEx_LPM_Callback(hpcd, PCD_LPM_L1_ACTIVE);
 80020d8:	2101      	movs	r1, #1
 80020da:	6878      	ldr	r0, [r7, #4]
 80020dc:	f000 febc 	bl	8002e58 <HAL_PCDEx_LPM_Callback>
 80020e0:	e002      	b.n	80020e8 <HAL_PCD_IRQHandler+0x56c>
      else
      {
#if (USE_HAL_PCD_REGISTER_CALLBACKS == 1U)
        hpcd->SuspendCallback(hpcd);
#else
        HAL_PCD_SuspendCallback(hpcd);
 80020e2:	6878      	ldr	r0, [r7, #4]
 80020e4:	f007 fb62 	bl	80097ac <HAL_PCD_SuspendCallback>
#endif /* USE_HAL_PCD_REGISTER_CALLBACKS */
      }
    }

    /* Handle Reset Interrupt */
    if (__HAL_PCD_GET_FLAG(hpcd, USB_OTG_GINTSTS_USBRST))
 80020e8:	687b      	ldr	r3, [r7, #4]
 80020ea:	681b      	ldr	r3, [r3, #0]
 80020ec:	4618      	mov	r0, r3
 80020ee:	f004 ff16 	bl	8006f1e <USB_ReadInterrupts>
 80020f2:	4603      	mov	r3, r0
 80020f4:	f403 5380 	and.w	r3, r3, #4096	@ 0x1000
 80020f8:	f5b3 5f80 	cmp.w	r3, #4096	@ 0x1000
 80020fc:	f040 80b7 	bne.w	800226e <HAL_PCD_IRQHandler+0x6f2>
    {
      USBx_DEVICE->DCTL &= ~USB_OTG_DCTL_RWUSIG;
 8002100:	69fb      	ldr	r3, [r7, #28]
 8002102:	f503 6300 	add.w	r3, r3, #2048	@ 0x800
 8002106:	685b      	ldr	r3, [r3, #4]
 8002108:	69fa      	ldr	r2, [r7, #28]
 800210a:	f502 6200 	add.w	r2, r2, #2048	@ 0x800
 800210e:	f023 0301 	bic.w	r3, r3, #1
 8002112:	6053      	str	r3, [r2, #4]
      (void)USB_FlushTxFifo(hpcd->Instance, 0x10U);
 8002114:	687b      	ldr	r3, [r7, #4]
 8002116:	681b      	ldr	r3, [r3, #0]
 8002118:	2110      	movs	r1, #16
 800211a:	4618      	mov	r0, r3
 800211c:	f003 ff8a 	bl	8006034 <USB_FlushTxFifo>

      for (i = 0U; i < hpcd->Init.dev_endpoints; i++)
 8002120:	2300      	movs	r3, #0
 8002122:	62fb      	str	r3, [r7, #44]	@ 0x2c
 8002124:	e046      	b.n	80021b4 <HAL_PCD_IRQHandler+0x638>
      {
        USBx_INEP(i)->DIEPINT = 0xFB7FU;
 8002126:	6afb      	ldr	r3, [r7, #44]	@ 0x2c
 8002128:	015a      	lsls	r2, r3, #5
 800212a:	69fb      	ldr	r3, [r7, #28]
 800212c:	4413      	add	r3, r2
 800212e:	f503 6310 	add.w	r3, r3, #2304	@ 0x900
 8002132:	461a      	mov	r2, r3
 8002134:	f64f 337f 	movw	r3, #64383	@ 0xfb7f
 8002138:	6093      	str	r3, [r2, #8]
        USBx_INEP(i)->DIEPCTL &= ~USB_OTG_DIEPCTL_STALL;
 800213a:	6afb      	ldr	r3, [r7, #44]	@ 0x2c
 800213c:	015a      	lsls	r2, r3, #5
 800213e:	69fb      	ldr	r3, [r7, #28]
 8002140:	4413      	add	r3, r2
 8002142:	f503 6310 	add.w	r3, r3, #2304	@ 0x900
 8002146:	681b      	ldr	r3, [r3, #0]
 8002148:	6afa      	ldr	r2, [r7, #44]	@ 0x2c
 800214a:	0151      	lsls	r1, r2, #5
 800214c:	69fa      	ldr	r2, [r7, #28]
 800214e:	440a      	add	r2, r1
 8002150:	f502 6210 	add.w	r2, r2, #2304	@ 0x900
 8002154:	f423 1300 	bic.w	r3, r3, #2097152	@ 0x200000
 8002158:	6013      	str	r3, [r2, #0]
        USBx_OUTEP(i)->DOEPINT = 0xFB7FU;
 800215a:	6afb      	ldr	r3, [r7, #44]	@ 0x2c
 800215c:	015a      	lsls	r2, r3, #5
 800215e:	69fb      	ldr	r3, [r7, #28]
 8002160:	4413      	add	r3, r2
 8002162:	f503 6330 	add.w	r3, r3, #2816	@ 0xb00
 8002166:	461a      	mov	r2, r3
 8002168:	f64f 337f 	movw	r3, #64383	@ 0xfb7f
 800216c:	6093      	str	r3, [r2, #8]
        USBx_OUTEP(i)->DOEPCTL &= ~USB_OTG_DOEPCTL_STALL;
 800216e:	6afb      	ldr	r3, [r7, #44]	@ 0x2c
 8002170:	015a      	lsls	r2, r3, #5
 8002172:	69fb      	ldr	r3, [r7, #28]
 8002174:	4413      	add	r3, r2
 8002176:	f503 6330 	add.w	r3, r3, #2816	@ 0xb00
 800217a:	681b      	ldr	r3, [r3, #0]
 800217c:	6afa      	ldr	r2, [r7, #44]	@ 0x2c
 800217e:	0151      	lsls	r1, r2, #5
 8002180:	69fa      	ldr	r2, [r7, #28]
 8002182:	440a      	add	r2, r1
 8002184:	f502 6230 	add.w	r2, r2, #2816	@ 0xb00
 8002188:	f423 1300 	bic.w	r3, r3, #2097152	@ 0x200000
 800218c:	6013      	str	r3, [r2, #0]
        USBx_OUTEP(i)->DOEPCTL |= USB_OTG_DOEPCTL_SNAK;
 800218e:	6afb      	ldr	r3, [r7, #44]	@ 0x2c
 8002190:	015a      	lsls	r2, r3, #5
 8002192:	69fb      	ldr	r3, [r7, #28]
 8002194:	4413      	add	r3, r2
 8002196:	f503 6330 	add.w	r3, r3, #2816	@ 0xb00
 800219a:	681b      	ldr	r3, [r3, #0]
 800219c:	6afa      	ldr	r2, [r7, #44]	@ 0x2c
 800219e:	0151      	lsls	r1, r2, #5
 80021a0:	69fa      	ldr	r2, [r7, #28]
 80021a2:	440a      	add	r2, r1
 80021a4:	f502 6230 	add.w	r2, r2, #2816	@ 0xb00
 80021a8:	f043 6300 	orr.w	r3, r3, #134217728	@ 0x8000000
 80021ac:	6013      	str	r3, [r2, #0]
      for (i = 0U; i < hpcd->Init.dev_endpoints; i++)
 80021ae:	6afb      	ldr	r3, [r7, #44]	@ 0x2c
 80021b0:	3301      	adds	r3, #1
 80021b2:	62fb      	str	r3, [r7, #44]	@ 0x2c
 80021b4:	687b      	ldr	r3, [r7, #4]
 80021b6:	791b      	ldrb	r3, [r3, #4]
 80021b8:	461a      	mov	r2, r3
 80021ba:	6afb      	ldr	r3, [r7, #44]	@ 0x2c
 80021bc:	4293      	cmp	r3, r2
 80021be:	d3b2      	bcc.n	8002126 <HAL_PCD_IRQHandler+0x5aa>
      }
      USBx_DEVICE->DAINTMSK |= 0x10001U;
 80021c0:	69fb      	ldr	r3, [r7, #28]
 80021c2:	f503 6300 	add.w	r3, r3, #2048	@ 0x800
 80021c6:	69db      	ldr	r3, [r3, #28]
 80021c8:	69fa      	ldr	r2, [r7, #28]
 80021ca:	f502 6200 	add.w	r2, r2, #2048	@ 0x800
 80021ce:	f043 1301 	orr.w	r3, r3, #65537	@ 0x10001
 80021d2:	61d3      	str	r3, [r2, #28]

      if (hpcd->Init.use_dedicated_ep1 != 0U)
 80021d4:	687b      	ldr	r3, [r7, #4]
 80021d6:	7bdb      	ldrb	r3, [r3, #15]
 80021d8:	2b00      	cmp	r3, #0
 80021da:	d016      	beq.n	800220a <HAL_PCD_IRQHandler+0x68e>
      {
        USBx_DEVICE->DOUTEP1MSK |= USB_OTG_DOEPMSK_STUPM |
 80021dc:	69fb      	ldr	r3, [r7, #28]
 80021de:	f503 6300 	add.w	r3, r3, #2048	@ 0x800
 80021e2:	f8d3 3084 	ldr.w	r3, [r3, #132]	@ 0x84
 80021e6:	69fa      	ldr	r2, [r7, #28]
 80021e8:	f502 6200 	add.w	r2, r2, #2048	@ 0x800
 80021ec:	f043 030b 	orr.w	r3, r3, #11
 80021f0:	f8c2 3084 	str.w	r3, [r2, #132]	@ 0x84
                                   USB_OTG_DOEPMSK_XFRCM |
                                   USB_OTG_DOEPMSK_EPDM;

        USBx_DEVICE->DINEP1MSK |= USB_OTG_DIEPMSK_TOM |
 80021f4:	69fb      	ldr	r3, [r7, #28]
 80021f6:	f503 6300 	add.w	r3, r3, #2048	@ 0x800
 80021fa:	6c5b      	ldr	r3, [r3, #68]	@ 0x44
 80021fc:	69fa      	ldr	r2, [r7, #28]
 80021fe:	f502 6200 	add.w	r2, r2, #2048	@ 0x800
 8002202:	f043 030b 	orr.w	r3, r3, #11
 8002206:	6453      	str	r3, [r2, #68]	@ 0x44
 8002208:	e015      	b.n	8002236 <HAL_PCD_IRQHandler+0x6ba>
                                  USB_OTG_DIEPMSK_XFRCM |
                                  USB_OTG_DIEPMSK_EPDM;
      }
      else
      {
        USBx_DEVICE->DOEPMSK |= USB_OTG_DOEPMSK_STUPM |
 800220a:	69fb      	ldr	r3, [r7, #28]
 800220c:	f503 6300 	add.w	r3, r3, #2048	@ 0x800
 8002210:	695a      	ldr	r2, [r3, #20]
 8002212:	69fb      	ldr	r3, [r7, #28]
 8002214:	f503 6300 	add.w	r3, r3, #2048	@ 0x800
 8002218:	4619      	mov	r1, r3
 800221a:	f242 032b 	movw	r3, #8235	@ 0x202b
 800221e:	4313      	orrs	r3, r2
 8002220:	614b      	str	r3, [r1, #20]
                                USB_OTG_DOEPMSK_XFRCM |
                                USB_OTG_DOEPMSK_EPDM |
                                USB_OTG_DOEPMSK_OTEPSPRM |
                                USB_OTG_DOEPMSK_NAKM;

        USBx_DEVICE->DIEPMSK |= USB_OTG_DIEPMSK_TOM |
 8002222:	69fb      	ldr	r3, [r7, #28]
 8002224:	f503 6300 	add.w	r3, r3, #2048	@ 0x800
 8002228:	691b      	ldr	r3, [r3, #16]
 800222a:	69fa      	ldr	r2, [r7, #28]
 800222c:	f502 6200 	add.w	r2, r2, #2048	@ 0x800
 8002230:	f043 030b 	orr.w	r3, r3, #11
 8002234:	6113      	str	r3, [r2, #16]
                                USB_OTG_DIEPMSK_XFRCM |
                                USB_OTG_DIEPMSK_EPDM;
      }

      /* Set Default Address to 0 */
      USBx_DEVICE->DCFG &= ~USB_OTG_DCFG_DAD;
 8002236:	69fb      	ldr	r3, [r7, #28]
 8002238:	f503 6300 	add.w	r3, r3, #2048	@ 0x800
 800223c:	681b      	ldr	r3, [r3, #0]
 800223e:	69fa      	ldr	r2, [r7, #28]
 8002240:	f502 6200 	add.w	r2, r2, #2048	@ 0x800
 8002244:	f423 63fe 	bic.w	r3, r3, #2032	@ 0x7f0
 8002248:	6013      	str	r3, [r2, #0]

      /* setup EP0 to receive SETUP packets */
      (void)USB_EP0_OutStart(hpcd->Instance, (uint8_t)hpcd->Init.dma_enable,
 800224a:	687b      	ldr	r3, [r7, #4]
 800224c:	6818      	ldr	r0, [r3, #0]
 800224e:	687b      	ldr	r3, [r7, #4]
 8002250:	7999      	ldrb	r1, [r3, #6]
                             (uint8_t *)hpcd->Setup);
 8002252:	687b      	ldr	r3, [r7, #4]
 8002254:	f203 439c 	addw	r3, r3, #1180	@ 0x49c
      (void)USB_EP0_OutStart(hpcd->Instance, (uint8_t)hpcd->Init.dma_enable,
 8002258:	461a      	mov	r2, r3
 800225a:	f004 ff25 	bl	80070a8 <USB_EP0_OutStart>

      __HAL_PCD_CLEAR_FLAG(hpcd, USB_OTG_GINTSTS_USBRST);
 800225e:	687b      	ldr	r3, [r7, #4]
 8002260:	681b      	ldr	r3, [r3, #0]
 8002262:	695a      	ldr	r2, [r3, #20]
 8002264:	687b      	ldr	r3, [r7, #4]
 8002266:	681b      	ldr	r3, [r3, #0]
 8002268:	f402 5280 	and.w	r2, r2, #4096	@ 0x1000
 800226c:	615a      	str	r2, [r3, #20]
    }

    /* Handle Enumeration done Interrupt */
    if (__HAL_PCD_GET_FLAG(hpcd, USB_OTG_GINTSTS_ENUMDNE))
 800226e:	687b      	ldr	r3, [r7, #4]
 8002270:	681b      	ldr	r3, [r3, #0]
 8002272:	4618      	mov	r0, r3
 8002274:	f004 fe53 	bl	8006f1e <USB_ReadInterrupts>
 8002278:	4603      	mov	r3, r0
 800227a:	f403 5300 	and.w	r3, r3, #8192	@ 0x2000
 800227e:	f5b3 5f00 	cmp.w	r3, #8192	@ 0x2000
 8002282:	d123      	bne.n	80022cc <HAL_PCD_IRQHandler+0x750>
    {
      (void)USB_ActivateSetup(hpcd->Instance);
 8002284:	687b      	ldr	r3, [r7, #4]
 8002286:	681b      	ldr	r3, [r3, #0]
 8002288:	4618      	mov	r0, r3
 800228a:	f004 fee9 	bl	8007060 <USB_ActivateSetup>
      hpcd->Init.speed = USB_GetDevSpeed(hpcd->Instance);
 800228e:	687b      	ldr	r3, [r7, #4]
 8002290:	681b      	ldr	r3, [r3, #0]
 8002292:	4618      	mov	r0, r3
 8002294:	f003 ff47 	bl	8006126 <USB_GetDevSpeed>
 8002298:	4603      	mov	r3, r0
 800229a:	461a      	mov	r2, r3
 800229c:	687b      	ldr	r3, [r7, #4]
 800229e:	71da      	strb	r2, [r3, #7]

      /* Set USB Turnaround time */
      (void)USB_SetTurnaroundTime(hpcd->Instance,
 80022a0:	687b      	ldr	r3, [r7, #4]
 80022a2:	681c      	ldr	r4, [r3, #0]
 80022a4:	f001 fd38 	bl	8003d18 <HAL_RCC_GetHCLKFreq>
 80022a8:	4601      	mov	r1, r0
 80022aa:	687b      	ldr	r3, [r7, #4]
 80022ac:	79db      	ldrb	r3, [r3, #7]
 80022ae:	461a      	mov	r2, r3
 80022b0:	4620      	mov	r0, r4
 80022b2:	f003 fc51 	bl	8005b58 <USB_SetTurnaroundTime>
                                  (uint8_t)hpcd->Init.speed);

#if (USE_HAL_PCD_REGISTER_CALLBACKS == 1U)
      hpcd->ResetCallback(hpcd);
#else
      HAL_PCD_ResetCallback(hpcd);
 80022b6:	6878      	ldr	r0, [r7, #4]
 80022b8:	f007 fa4f 	bl	800975a <HAL_PCD_ResetCallback>
#endif /* USE_HAL_PCD_REGISTER_CALLBACKS */

      __HAL_PCD_CLEAR_FLAG(hpcd, USB_OTG_GINTSTS_ENUMDNE);
 80022bc:	687b      	ldr	r3, [r7, #4]
 80022be:	681b      	ldr	r3, [r3, #0]
 80022c0:	695a      	ldr	r2, [r3, #20]
 80022c2:	687b      	ldr	r3, [r7, #4]
 80022c4:	681b      	ldr	r3, [r3, #0]
 80022c6:	f402 5200 	and.w	r2, r2, #8192	@ 0x2000
 80022ca:	615a      	str	r2, [r3, #20]
    }

    /* Handle SOF Interrupt */
    if (__HAL_PCD_GET_FLAG(hpcd, USB_OTG_GINTSTS_SOF))
 80022cc:	687b      	ldr	r3, [r7, #4]
 80022ce:	681b      	ldr	r3, [r3, #0]
 80022d0:	4618      	mov	r0, r3
 80022d2:	f004 fe24 	bl	8006f1e <USB_ReadInterrupts>
 80022d6:	4603      	mov	r3, r0
 80022d8:	f003 0308 	and.w	r3, r3, #8
 80022dc:	2b08      	cmp	r3, #8
 80022de:	d10a      	bne.n	80022f6 <HAL_PCD_IRQHandler+0x77a>
    {
#if (USE_HAL_PCD_REGISTER_CALLBACKS == 1U)
      hpcd->SOFCallback(hpcd);
#else
      HAL_PCD_SOFCallback(hpcd);
 80022e0:	6878      	ldr	r0, [r7, #4]
 80022e2:	f007 fa2c 	bl	800973e <HAL_PCD_SOFCallback>
#endif /* USE_HAL_PCD_REGISTER_CALLBACKS */

      __HAL_PCD_CLEAR_FLAG(hpcd, USB_OTG_GINTSTS_SOF);
 80022e6:	687b      	ldr	r3, [r7, #4]
 80022e8:	681b      	ldr	r3, [r3, #0]
 80022ea:	695a      	ldr	r2, [r3, #20]
 80022ec:	687b      	ldr	r3, [r7, #4]
 80022ee:	681b      	ldr	r3, [r3, #0]
 80022f0:	f002 0208 	and.w	r2, r2, #8
 80022f4:	615a      	str	r2, [r3, #20]
    }

    /* Handle Global OUT NAK effective Interrupt */
    if (__HAL_PCD_GET_FLAG(hpcd, USB_OTG_GINTSTS_BOUTNAKEFF))
 80022f6:	687b      	ldr	r3, [r7, #4]
 80022f8:	681b      	ldr	r3, [r3, #0]
 80022fa:	4618      	mov	r0, r3
 80022fc:	f004 fe0f 	bl	8006f1e <USB_ReadInterrupts>
 8002300:	4603      	mov	r3, r0
 8002302:	f003 0380 	and.w	r3, r3, #128	@ 0x80
 8002306:	2b80      	cmp	r3, #128	@ 0x80
 8002308:	d13d      	bne.n	8002386 <HAL_PCD_IRQHandler+0x80a>
    {
      USBx->GINTMSK &= ~USB_OTG_GINTMSK_GONAKEFFM;
 800230a:	6a3b      	ldr	r3, [r7, #32]
 800230c:	699b      	ldr	r3, [r3, #24]
 800230e:	f023 0280 	bic.w	r2, r3, #128	@ 0x80
 8002312:	6a3b      	ldr	r3, [r7, #32]
 8002314:	619a      	str	r2, [r3, #24]

      for (epnum = 1U; epnum < hpcd->Init.dev_endpoints; epnum++)
 8002316:	2301      	movs	r3, #1
 8002318:	627b      	str	r3, [r7, #36]	@ 0x24
 800231a:	e02e      	b.n	800237a <HAL_PCD_IRQHandler+0x7fe>
      {
        if (hpcd->OUT_ep[epnum].is_iso_incomplete == 1U)
 800231c:	6879      	ldr	r1, [r7, #4]
 800231e:	6a7a      	ldr	r2, [r7, #36]	@ 0x24
 8002320:	4613      	mov	r3, r2
 8002322:	00db      	lsls	r3, r3, #3
 8002324:	4413      	add	r3, r2
 8002326:	009b      	lsls	r3, r3, #2
 8002328:	440b      	add	r3, r1
 800232a:	f203 2357 	addw	r3, r3, #599	@ 0x257
 800232e:	781b      	ldrb	r3, [r3, #0]
 8002330:	2b01      	cmp	r3, #1
 8002332:	d11f      	bne.n	8002374 <HAL_PCD_IRQHandler+0x7f8>
        {
          /* disable the EP */
          USBx_OUTEP(epnum)->DOEPCTL |= (USB_OTG_DOEPCTL_SNAK);
 8002334:	6a7b      	ldr	r3, [r7, #36]	@ 0x24
 8002336:	015a      	lsls	r2, r3, #5
 8002338:	69fb      	ldr	r3, [r7, #28]
 800233a:	4413      	add	r3, r2
 800233c:	f503 6330 	add.w	r3, r3, #2816	@ 0xb00
 8002340:	681b      	ldr	r3, [r3, #0]
 8002342:	6a7a      	ldr	r2, [r7, #36]	@ 0x24
 8002344:	0151      	lsls	r1, r2, #5
 8002346:	69fa      	ldr	r2, [r7, #28]
 8002348:	440a      	add	r2, r1
 800234a:	f502 6230 	add.w	r2, r2, #2816	@ 0xb00
 800234e:	f043 6300 	orr.w	r3, r3, #134217728	@ 0x8000000
 8002352:	6013      	str	r3, [r2, #0]
          USBx_OUTEP(epnum)->DOEPCTL |= (USB_OTG_DOEPCTL_EPDIS);
 8002354:	6a7b      	ldr	r3, [r7, #36]	@ 0x24
 8002356:	015a      	lsls	r2, r3, #5
 8002358:	69fb      	ldr	r3, [r7, #28]
 800235a:	4413      	add	r3, r2
 800235c:	f503 6330 	add.w	r3, r3, #2816	@ 0xb00
 8002360:	681b      	ldr	r3, [r3, #0]
 8002362:	6a7a      	ldr	r2, [r7, #36]	@ 0x24
 8002364:	0151      	lsls	r1, r2, #5
 8002366:	69fa      	ldr	r2, [r7, #28]
 8002368:	440a      	add	r2, r1
 800236a:	f502 6230 	add.w	r2, r2, #2816	@ 0xb00
 800236e:	f043 4380 	orr.w	r3, r3, #1073741824	@ 0x40000000
 8002372:	6013      	str	r3, [r2, #0]
      for (epnum = 1U; epnum < hpcd->Init.dev_endpoints; epnum++)
 8002374:	6a7b      	ldr	r3, [r7, #36]	@ 0x24
 8002376:	3301      	adds	r3, #1
 8002378:	627b      	str	r3, [r7, #36]	@ 0x24
 800237a:	687b      	ldr	r3, [r7, #4]
 800237c:	791b      	ldrb	r3, [r3, #4]
 800237e:	461a      	mov	r2, r3
 8002380:	6a7b      	ldr	r3, [r7, #36]	@ 0x24
 8002382:	4293      	cmp	r3, r2
 8002384:	d3ca      	bcc.n	800231c <HAL_PCD_IRQHandler+0x7a0>
        }
      }
    }

    /* Handle Incomplete ISO IN Interrupt */
    if (__HAL_PCD_GET_FLAG(hpcd, USB_OTG_GINTSTS_IISOIXFR))
 8002386:	687b      	ldr	r3, [r7, #4]
 8002388:	681b      	ldr	r3, [r3, #0]
 800238a:	4618      	mov	r0, r3
 800238c:	f004 fdc7 	bl	8006f1e <USB_ReadInterrupts>
 8002390:	4603      	mov	r3, r0
 8002392:	f403 1380 	and.w	r3, r3, #1048576	@ 0x100000
 8002396:	f5b3 1f80 	cmp.w	r3, #1048576	@ 0x100000
 800239a:	d13c      	bne.n	8002416 <HAL_PCD_IRQHandler+0x89a>
    {
      for (epnum = 1U; epnum < hpcd->Init.dev_endpoints; epnum++)
 800239c:	2301      	movs	r3, #1
 800239e:	627b      	str	r3, [r7, #36]	@ 0x24
 80023a0:	e02b      	b.n	80023fa <HAL_PCD_IRQHandler+0x87e>
      {
        RegVal = USBx_INEP(epnum)->DIEPCTL;
 80023a2:	6a7b      	ldr	r3, [r7, #36]	@ 0x24
 80023a4:	015a      	lsls	r2, r3, #5
 80023a6:	69fb      	ldr	r3, [r7, #28]
 80023a8:	4413      	add	r3, r2
 80023aa:	f503 6310 	add.w	r3, r3, #2304	@ 0x900
 80023ae:	681b      	ldr	r3, [r3, #0]
 80023b0:	61bb      	str	r3, [r7, #24]

        if ((hpcd->IN_ep[epnum].type == EP_TYPE_ISOC) &&
 80023b2:	6879      	ldr	r1, [r7, #4]
 80023b4:	6a7a      	ldr	r2, [r7, #36]	@ 0x24
 80023b6:	4613      	mov	r3, r2
 80023b8:	00db      	lsls	r3, r3, #3
 80023ba:	4413      	add	r3, r2
 80023bc:	009b      	lsls	r3, r3, #2
 80023be:	440b      	add	r3, r1
 80023c0:	3318      	adds	r3, #24
 80023c2:	781b      	ldrb	r3, [r3, #0]
 80023c4:	2b01      	cmp	r3, #1
 80023c6:	d115      	bne.n	80023f4 <HAL_PCD_IRQHandler+0x878>
            ((RegVal & USB_OTG_DIEPCTL_EPENA) == USB_OTG_DIEPCTL_EPENA))
 80023c8:	69bb      	ldr	r3, [r7, #24]
        if ((hpcd->IN_ep[epnum].type == EP_TYPE_ISOC) &&
 80023ca:	2b00      	cmp	r3, #0
 80023cc:	da12      	bge.n	80023f4 <HAL_PCD_IRQHandler+0x878>
        {
          hpcd->IN_ep[epnum].is_iso_incomplete = 1U;
 80023ce:	6879      	ldr	r1, [r7, #4]
 80023d0:	6a7a      	ldr	r2, [r7, #36]	@ 0x24
 80023d2:	4613      	mov	r3, r2
 80023d4:	00db      	lsls	r3, r3, #3
 80023d6:	4413      	add	r3, r2
 80023d8:	009b      	lsls	r3, r3, #2
 80023da:	440b      	add	r3, r1
 80023dc:	3317      	adds	r3, #23
 80023de:	2201      	movs	r2, #1
 80023e0:	701a      	strb	r2, [r3, #0]

          /* Abort current transaction and disable the EP */
          (void)HAL_PCD_EP_Abort(hpcd, (uint8_t)(epnum | 0x80U));
 80023e2:	6a7b      	ldr	r3, [r7, #36]	@ 0x24
 80023e4:	b2db      	uxtb	r3, r3
 80023e6:	f063 037f 	orn	r3, r3, #127	@ 0x7f
 80023ea:	b2db      	uxtb	r3, r3
 80023ec:	4619      	mov	r1, r3
 80023ee:	6878      	ldr	r0, [r7, #4]
 80023f0:	f000 faca 	bl	8002988 <HAL_PCD_EP_Abort>
      for (epnum = 1U; epnum < hpcd->Init.dev_endpoints; epnum++)
 80023f4:	6a7b      	ldr	r3, [r7, #36]	@ 0x24
 80023f6:	3301      	adds	r3, #1
 80023f8:	627b      	str	r3, [r7, #36]	@ 0x24
 80023fa:	687b      	ldr	r3, [r7, #4]
 80023fc:	791b      	ldrb	r3, [r3, #4]
 80023fe:	461a      	mov	r2, r3
 8002400:	6a7b      	ldr	r3, [r7, #36]	@ 0x24
 8002402:	4293      	cmp	r3, r2
 8002404:	d3cd      	bcc.n	80023a2 <HAL_PCD_IRQHandler+0x826>
        }
      }

      __HAL_PCD_CLEAR_FLAG(hpcd, USB_OTG_GINTSTS_IISOIXFR);
 8002406:	687b      	ldr	r3, [r7, #4]
 8002408:	681b      	ldr	r3, [r3, #0]
 800240a:	695a      	ldr	r2, [r3, #20]
 800240c:	687b      	ldr	r3, [r7, #4]
 800240e:	681b      	ldr	r3, [r3, #0]
 8002410:	f402 1280 	and.w	r2, r2, #1048576	@ 0x100000
 8002414:	615a      	str	r2, [r3, #20]
    }

    /* Handle Incomplete ISO OUT Interrupt */
    if (__HAL_PCD_GET_FLAG(hpcd, USB_OTG_GINTSTS_PXFR_INCOMPISOOUT))
 8002416:	687b      	ldr	r3, [r7, #4]
 8002418:	681b      	ldr	r3, [r3, #0]
 800241a:	4618      	mov	r0, r3
 800241c:	f004 fd7f 	bl	8006f1e <USB_ReadInterrupts>
 8002420:	4603      	mov	r3, r0
 8002422:	f403 1300 	and.w	r3, r3, #2097152	@ 0x200000
 8002426:	f5b3 1f00 	cmp.w	r3, #2097152	@ 0x200000
 800242a:	d156      	bne.n	80024da <HAL_PCD_IRQHandler+0x95e>
    {
      for (epnum = 1U; epnum < hpcd->Init.dev_endpoints; epnum++)
 800242c:	2301      	movs	r3, #1
 800242e:	627b      	str	r3, [r7, #36]	@ 0x24
 8002430:	e045      	b.n	80024be <HAL_PCD_IRQHandler+0x942>
      {
        RegVal = USBx_OUTEP(epnum)->DOEPCTL;
 8002432:	6a7b      	ldr	r3, [r7, #36]	@ 0x24
 8002434:	015a      	lsls	r2, r3, #5
 8002436:	69fb      	ldr	r3, [r7, #28]
 8002438:	4413      	add	r3, r2
 800243a:	f503 6330 	add.w	r3, r3, #2816	@ 0xb00
 800243e:	681b      	ldr	r3, [r3, #0]
 8002440:	61bb      	str	r3, [r7, #24]

        if ((hpcd->OUT_ep[epnum].type == EP_TYPE_ISOC) &&
 8002442:	6879      	ldr	r1, [r7, #4]
 8002444:	6a7a      	ldr	r2, [r7, #36]	@ 0x24
 8002446:	4613      	mov	r3, r2
 8002448:	00db      	lsls	r3, r3, #3
 800244a:	4413      	add	r3, r2
 800244c:	009b      	lsls	r3, r3, #2
 800244e:	440b      	add	r3, r1
 8002450:	f503 7316 	add.w	r3, r3, #600	@ 0x258
 8002454:	781b      	ldrb	r3, [r3, #0]
 8002456:	2b01      	cmp	r3, #1
 8002458:	d12e      	bne.n	80024b8 <HAL_PCD_IRQHandler+0x93c>
            ((RegVal & USB_OTG_DOEPCTL_EPENA) == USB_OTG_DOEPCTL_EPENA) &&
 800245a:	69bb      	ldr	r3, [r7, #24]
        if ((hpcd->OUT_ep[epnum].type == EP_TYPE_ISOC) &&
 800245c:	2b00      	cmp	r3, #0
 800245e:	da2b      	bge.n	80024b8 <HAL_PCD_IRQHandler+0x93c>
            (((RegVal & (0x1UL << 16)) >> 16U) == (hpcd->FrameNumber & 0x1U)))
 8002460:	69bb      	ldr	r3, [r7, #24]
 8002462:	0c1a      	lsrs	r2, r3, #16
 8002464:	687b      	ldr	r3, [r7, #4]
 8002466:	f8d3 34d4 	ldr.w	r3, [r3, #1236]	@ 0x4d4
 800246a:	4053      	eors	r3, r2
 800246c:	f003 0301 	and.w	r3, r3, #1
            ((RegVal & USB_OTG_DOEPCTL_EPENA) == USB_OTG_DOEPCTL_EPENA) &&
 8002470:	2b00      	cmp	r3, #0
 8002472:	d121      	bne.n	80024b8 <HAL_PCD_IRQHandler+0x93c>
        {
          hpcd->OUT_ep[epnum].is_iso_incomplete = 1U;
 8002474:	6879      	ldr	r1, [r7, #4]
 8002476:	6a7a      	ldr	r2, [r7, #36]	@ 0x24
 8002478:	4613      	mov	r3, r2
 800247a:	00db      	lsls	r3, r3, #3
 800247c:	4413      	add	r3, r2
 800247e:	009b      	lsls	r3, r3, #2
 8002480:	440b      	add	r3, r1
 8002482:	f203 2357 	addw	r3, r3, #599	@ 0x257
 8002486:	2201      	movs	r2, #1
 8002488:	701a      	strb	r2, [r3, #0]

          USBx->GINTMSK |= USB_OTG_GINTMSK_GONAKEFFM;
 800248a:	6a3b      	ldr	r3, [r7, #32]
 800248c:	699b      	ldr	r3, [r3, #24]
 800248e:	f043 0280 	orr.w	r2, r3, #128	@ 0x80
 8002492:	6a3b      	ldr	r3, [r7, #32]
 8002494:	619a      	str	r2, [r3, #24]

          if ((USBx->GINTSTS & USB_OTG_GINTSTS_BOUTNAKEFF) == 0U)
 8002496:	6a3b      	ldr	r3, [r7, #32]
 8002498:	695b      	ldr	r3, [r3, #20]
 800249a:	f003 0380 	and.w	r3, r3, #128	@ 0x80
 800249e:	2b00      	cmp	r3, #0
 80024a0:	d10a      	bne.n	80024b8 <HAL_PCD_IRQHandler+0x93c>
          {
            USBx_DEVICE->DCTL |= USB_OTG_DCTL_SGONAK;
 80024a2:	69fb      	ldr	r3, [r7, #28]
 80024a4:	f503 6300 	add.w	r3, r3, #2048	@ 0x800
 80024a8:	685b      	ldr	r3, [r3, #4]
 80024aa:	69fa      	ldr	r2, [r7, #28]
 80024ac:	f502 6200 	add.w	r2, r2, #2048	@ 0x800
 80024b0:	f443 7300 	orr.w	r3, r3, #512	@ 0x200
 80024b4:	6053      	str	r3, [r2, #4]
            break;
 80024b6:	e008      	b.n	80024ca <HAL_PCD_IRQHandler+0x94e>
      for (epnum = 1U; epnum < hpcd->Init.dev_endpoints; epnum++)
 80024b8:	6a7b      	ldr	r3, [r7, #36]	@ 0x24
 80024ba:	3301      	adds	r3, #1
 80024bc:	627b      	str	r3, [r7, #36]	@ 0x24
 80024be:	687b      	ldr	r3, [r7, #4]
 80024c0:	791b      	ldrb	r3, [r3, #4]
 80024c2:	461a      	mov	r2, r3
 80024c4:	6a7b      	ldr	r3, [r7, #36]	@ 0x24
 80024c6:	4293      	cmp	r3, r2
 80024c8:	d3b3      	bcc.n	8002432 <HAL_PCD_IRQHandler+0x8b6>
          }
        }
      }

      __HAL_PCD_CLEAR_FLAG(hpcd, USB_OTG_GINTSTS_PXFR_INCOMPISOOUT);
 80024ca:	687b      	ldr	r3, [r7, #4]
 80024cc:	681b      	ldr	r3, [r3, #0]
 80024ce:	695a      	ldr	r2, [r3, #20]
 80024d0:	687b      	ldr	r3, [r7, #4]
 80024d2:	681b      	ldr	r3, [r3, #0]
 80024d4:	f402 1200 	and.w	r2, r2, #2097152	@ 0x200000
 80024d8:	615a      	str	r2, [r3, #20]
    }

    /* Handle Connection event Interrupt */
    if (__HAL_PCD_GET_FLAG(hpcd, USB_OTG_GINTSTS_SRQINT))
 80024da:	687b      	ldr	r3, [r7, #4]
 80024dc:	681b      	ldr	r3, [r3, #0]
 80024de:	4618      	mov	r0, r3
 80024e0:	f004 fd1d 	bl	8006f1e <USB_ReadInterrupts>
 80024e4:	4603      	mov	r3, r0
 80024e6:	f003 4380 	and.w	r3, r3, #1073741824	@ 0x40000000
 80024ea:	f1b3 4f80 	cmp.w	r3, #1073741824	@ 0x40000000
 80024ee:	d10a      	bne.n	8002506 <HAL_PCD_IRQHandler+0x98a>
    {
#if (USE_HAL_PCD_REGISTER_CALLBACKS == 1U)
      hpcd->ConnectCallback(hpcd);
#else
      HAL_PCD_ConnectCallback(hpcd);
 80024f0:	6878      	ldr	r0, [r7, #4]
 80024f2:	f007 f9b3 	bl	800985c <HAL_PCD_ConnectCallback>
#endif /* USE_HAL_PCD_REGISTER_CALLBACKS */

      __HAL_PCD_CLEAR_FLAG(hpcd, USB_OTG_GINTSTS_SRQINT);
 80024f6:	687b      	ldr	r3, [r7, #4]
 80024f8:	681b      	ldr	r3, [r3, #0]
 80024fa:	695a      	ldr	r2, [r3, #20]
 80024fc:	687b      	ldr	r3, [r7, #4]
 80024fe:	681b      	ldr	r3, [r3, #0]
 8002500:	f002 4280 	and.w	r2, r2, #1073741824	@ 0x40000000
 8002504:	615a      	str	r2, [r3, #20]
    }

    /* Handle Disconnection event Interrupt */
    if (__HAL_PCD_GET_FLAG(hpcd, USB_OTG_GINTSTS_OTGINT))
 8002506:	687b      	ldr	r3, [r7, #4]
 8002508:	681b      	ldr	r3, [r3, #0]
 800250a:	4618      	mov	r0, r3
 800250c:	f004 fd07 	bl	8006f1e <USB_ReadInterrupts>
 8002510:	4603      	mov	r3, r0
 8002512:	f003 0304 	and.w	r3, r3, #4
 8002516:	2b04      	cmp	r3, #4
 8002518:	d115      	bne.n	8002546 <HAL_PCD_IRQHandler+0x9ca>
    {
      RegVal = hpcd->Instance->GOTGINT;
 800251a:	687b      	ldr	r3, [r7, #4]
 800251c:	681b      	ldr	r3, [r3, #0]
 800251e:	685b      	ldr	r3, [r3, #4]
 8002520:	61bb      	str	r3, [r7, #24]

      if ((RegVal & USB_OTG_GOTGINT_SEDET) == USB_OTG_GOTGINT_SEDET)
 8002522:	69bb      	ldr	r3, [r7, #24]
 8002524:	f003 0304 	and.w	r3, r3, #4
 8002528:	2b00      	cmp	r3, #0
 800252a:	d002      	beq.n	8002532 <HAL_PCD_IRQHandler+0x9b6>
      {
#if (USE_HAL_PCD_REGISTER_CALLBACKS == 1U)
        hpcd->DisconnectCallback(hpcd);
#else
        HAL_PCD_DisconnectCallback(hpcd);
 800252c:	6878      	ldr	r0, [r7, #4]
 800252e:	f007 f9a3 	bl	8009878 <HAL_PCD_DisconnectCallback>
#endif /* USE_HAL_PCD_REGISTER_CALLBACKS */
      }
      hpcd->Instance->GOTGINT |= RegVal;
 8002532:	687b      	ldr	r3, [r7, #4]
 8002534:	681b      	ldr	r3, [r3, #0]
 8002536:	6859      	ldr	r1, [r3, #4]
 8002538:	687b      	ldr	r3, [r7, #4]
 800253a:	681b      	ldr	r3, [r3, #0]
 800253c:	69ba      	ldr	r2, [r7, #24]
 800253e:	430a      	orrs	r2, r1
 8002540:	605a      	str	r2, [r3, #4]
 8002542:	e000      	b.n	8002546 <HAL_PCD_IRQHandler+0x9ca>
      return;
 8002544:	bf00      	nop
    }
  }
}
 8002546:	3734      	adds	r7, #52	@ 0x34
 8002548:	46bd      	mov	sp, r7
 800254a:	bd90      	pop	{r4, r7, pc}

0800254c <HAL_PCD_SetAddress>:
  * @param  hpcd PCD handle
  * @param  address new device address
  * @retval HAL status
  */
HAL_StatusTypeDef HAL_PCD_SetAddress(PCD_HandleTypeDef *hpcd, uint8_t address)
{
 800254c:	b580      	push	{r7, lr}
 800254e:	b082      	sub	sp, #8
 8002550:	af00      	add	r7, sp, #0
 8002552:	6078      	str	r0, [r7, #4]
 8002554:	460b      	mov	r3, r1
 8002556:	70fb      	strb	r3, [r7, #3]
  __HAL_LOCK(hpcd);
 8002558:	687b      	ldr	r3, [r7, #4]
 800255a:	f893 3494 	ldrb.w	r3, [r3, #1172]	@ 0x494
 800255e:	2b01      	cmp	r3, #1
 8002560:	d101      	bne.n	8002566 <HAL_PCD_SetAddress+0x1a>
 8002562:	2302      	movs	r3, #2
 8002564:	e012      	b.n	800258c <HAL_PCD_SetAddress+0x40>
 8002566:	687b      	ldr	r3, [r7, #4]
 8002568:	2201      	movs	r2, #1
 800256a:	f883 2494 	strb.w	r2, [r3, #1172]	@ 0x494
  hpcd->USB_Address = address;
 800256e:	687b      	ldr	r3, [r7, #4]
 8002570:	78fa      	ldrb	r2, [r7, #3]
 8002572:	745a      	strb	r2, [r3, #17]
  (void)USB_SetDevAddress(hpcd->Instance, address);
 8002574:	687b      	ldr	r3, [r7, #4]
 8002576:	681b      	ldr	r3, [r3, #0]
 8002578:	78fa      	ldrb	r2, [r7, #3]
 800257a:	4611      	mov	r1, r2
 800257c:	4618      	mov	r0, r3
 800257e:	f004 fc66 	bl	8006e4e <USB_SetDevAddress>
  __HAL_UNLOCK(hpcd);
 8002582:	687b      	ldr	r3, [r7, #4]
 8002584:	2200      	movs	r2, #0
 8002586:	f883 2494 	strb.w	r2, [r3, #1172]	@ 0x494

  return HAL_OK;
 800258a:	2300      	movs	r3, #0
}
 800258c:	4618      	mov	r0, r3
 800258e:	3708      	adds	r7, #8
 8002590:	46bd      	mov	sp, r7
 8002592:	bd80      	pop	{r7, pc}

08002594 <HAL_PCD_EP_Open>:
  * @param  ep_type endpoint type
  * @retval HAL status
  */
HAL_StatusTypeDef HAL_PCD_EP_Open(PCD_HandleTypeDef *hpcd, uint8_t ep_addr,
                                  uint16_t ep_mps, uint8_t ep_type)
{
 8002594:	b580      	push	{r7, lr}
 8002596:	b084      	sub	sp, #16
 8002598:	af00      	add	r7, sp, #0
 800259a:	6078      	str	r0, [r7, #4]
 800259c:	4608      	mov	r0, r1
 800259e:	4611      	mov	r1, r2
 80025a0:	461a      	mov	r2, r3
 80025a2:	4603      	mov	r3, r0
 80025a4:	70fb      	strb	r3, [r7, #3]
 80025a6:	460b      	mov	r3, r1
 80025a8:	803b      	strh	r3, [r7, #0]
 80025aa:	4613      	mov	r3, r2
 80025ac:	70bb      	strb	r3, [r7, #2]
  HAL_StatusTypeDef ret = HAL_OK;
 80025ae:	2300      	movs	r3, #0
 80025b0:	72fb      	strb	r3, [r7, #11]
  PCD_EPTypeDef *ep;

  if ((ep_addr & 0x80U) == 0x80U)
 80025b2:	f997 3003 	ldrsb.w	r3, [r7, #3]
 80025b6:	2b00      	cmp	r3, #0
 80025b8:	da0f      	bge.n	80025da <HAL_PCD_EP_Open+0x46>
  {
    ep = &hpcd->IN_ep[ep_addr & EP_ADDR_MSK];
 80025ba:	78fb      	ldrb	r3, [r7, #3]
 80025bc:	f003 020f 	and.w	r2, r3, #15
 80025c0:	4613      	mov	r3, r2
 80025c2:	00db      	lsls	r3, r3, #3
 80025c4:	4413      	add	r3, r2
 80025c6:	009b      	lsls	r3, r3, #2
 80025c8:	3310      	adds	r3, #16
 80025ca:	687a      	ldr	r2, [r7, #4]
 80025cc:	4413      	add	r3, r2
 80025ce:	3304      	adds	r3, #4
 80025d0:	60fb      	str	r3, [r7, #12]
    ep->is_in = 1U;
 80025d2:	68fb      	ldr	r3, [r7, #12]
 80025d4:	2201      	movs	r2, #1
 80025d6:	705a      	strb	r2, [r3, #1]
 80025d8:	e00f      	b.n	80025fa <HAL_PCD_EP_Open+0x66>
  }
  else
  {
    ep = &hpcd->OUT_ep[ep_addr & EP_ADDR_MSK];
 80025da:	78fb      	ldrb	r3, [r7, #3]
 80025dc:	f003 020f 	and.w	r2, r3, #15
 80025e0:	4613      	mov	r3, r2
 80025e2:	00db      	lsls	r3, r3, #3
 80025e4:	4413      	add	r3, r2
 80025e6:	009b      	lsls	r3, r3, #2
 80025e8:	f503 7314 	add.w	r3, r3, #592	@ 0x250
 80025ec:	687a      	ldr	r2, [r7, #4]
 80025ee:	4413      	add	r3, r2
 80025f0:	3304      	adds	r3, #4
 80025f2:	60fb      	str	r3, [r7, #12]
    ep->is_in = 0U;
 80025f4:	68fb      	ldr	r3, [r7, #12]
 80025f6:	2200      	movs	r2, #0
 80025f8:	705a      	strb	r2, [r3, #1]
  }

  ep->num = ep_addr & EP_ADDR_MSK;
 80025fa:	78fb      	ldrb	r3, [r7, #3]
 80025fc:	f003 030f 	and.w	r3, r3, #15
 8002600:	b2da      	uxtb	r2, r3
 8002602:	68fb      	ldr	r3, [r7, #12]
 8002604:	701a      	strb	r2, [r3, #0]
  ep->maxpacket = (uint32_t)ep_mps & 0x7FFU;
 8002606:	883b      	ldrh	r3, [r7, #0]
 8002608:	f3c3 020a 	ubfx	r2, r3, #0, #11
 800260c:	68fb      	ldr	r3, [r7, #12]
 800260e:	609a      	str	r2, [r3, #8]
  ep->type = ep_type;
 8002610:	68fb      	ldr	r3, [r7, #12]
 8002612:	78ba      	ldrb	r2, [r7, #2]
 8002614:	711a      	strb	r2, [r3, #4]

  if (ep->is_in != 0U)
 8002616:	68fb      	ldr	r3, [r7, #12]
 8002618:	785b      	ldrb	r3, [r3, #1]
 800261a:	2b00      	cmp	r3, #0
 800261c:	d004      	beq.n	8002628 <HAL_PCD_EP_Open+0x94>
  {
    /* Assign a Tx FIFO */
    ep->tx_fifo_num = ep->num;
 800261e:	68fb      	ldr	r3, [r7, #12]
 8002620:	781b      	ldrb	r3, [r3, #0]
 8002622:	461a      	mov	r2, r3
 8002624:	68fb      	ldr	r3, [r7, #12]
 8002626:	835a      	strh	r2, [r3, #26]
  }

  /* Set initial data PID. */
  if (ep_type == EP_TYPE_BULK)
 8002628:	78bb      	ldrb	r3, [r7, #2]
 800262a:	2b02      	cmp	r3, #2
 800262c:	d102      	bne.n	8002634 <HAL_PCD_EP_Open+0xa0>
  {
    ep->data_pid_start = 0U;
 800262e:	68fb      	ldr	r3, [r7, #12]
 8002630:	2200      	movs	r2, #0
 8002632:	715a      	strb	r2, [r3, #5]
  }

  __HAL_LOCK(hpcd);
 8002634:	687b      	ldr	r3, [r7, #4]
 8002636:	f893 3494 	ldrb.w	r3, [r3, #1172]	@ 0x494
 800263a:	2b01      	cmp	r3, #1
 800263c:	d101      	bne.n	8002642 <HAL_PCD_EP_Open+0xae>
 800263e:	2302      	movs	r3, #2
 8002640:	e00e      	b.n	8002660 <HAL_PCD_EP_Open+0xcc>
 8002642:	687b      	ldr	r3, [r7, #4]
 8002644:	2201      	movs	r2, #1
 8002646:	f883 2494 	strb.w	r2, [r3, #1172]	@ 0x494
  (void)USB_ActivateEndpoint(hpcd->Instance, ep);
 800264a:	687b      	ldr	r3, [r7, #4]
 800264c:	681b      	ldr	r3, [r3, #0]
 800264e:	68f9      	ldr	r1, [r7, #12]
 8002650:	4618      	mov	r0, r3
 8002652:	f003 fd8d 	bl	8006170 <USB_ActivateEndpoint>
  __HAL_UNLOCK(hpcd);
 8002656:	687b      	ldr	r3, [r7, #4]
 8002658:	2200      	movs	r2, #0
 800265a:	f883 2494 	strb.w	r2, [r3, #1172]	@ 0x494

  return ret;
 800265e:	7afb      	ldrb	r3, [r7, #11]
}
 8002660:	4618      	mov	r0, r3
 8002662:	3710      	adds	r7, #16
 8002664:	46bd      	mov	sp, r7
 8002666:	bd80      	pop	{r7, pc}

08002668 <HAL_PCD_EP_Close>:
  * @param  hpcd PCD handle
  * @param  ep_addr endpoint address
  * @retval HAL status
  */
HAL_StatusTypeDef HAL_PCD_EP_Close(PCD_HandleTypeDef *hpcd, uint8_t ep_addr)
{
 8002668:	b580      	push	{r7, lr}
 800266a:	b084      	sub	sp, #16
 800266c:	af00      	add	r7, sp, #0
 800266e:	6078      	str	r0, [r7, #4]
 8002670:	460b      	mov	r3, r1
 8002672:	70fb      	strb	r3, [r7, #3]
  PCD_EPTypeDef *ep;

  if ((ep_addr & 0x80U) == 0x80U)
 8002674:	f997 3003 	ldrsb.w	r3, [r7, #3]
 8002678:	2b00      	cmp	r3, #0
 800267a:	da0f      	bge.n	800269c <HAL_PCD_EP_Close+0x34>
  {
    ep = &hpcd->IN_ep[ep_addr & EP_ADDR_MSK];
 800267c:	78fb      	ldrb	r3, [r7, #3]
 800267e:	f003 020f 	and.w	r2, r3, #15
 8002682:	4613      	mov	r3, r2
 8002684:	00db      	lsls	r3, r3, #3
 8002686:	4413      	add	r3, r2
 8002688:	009b      	lsls	r3, r3, #2
 800268a:	3310      	adds	r3, #16
 800268c:	687a      	ldr	r2, [r7, #4]
 800268e:	4413      	add	r3, r2
 8002690:	3304      	adds	r3, #4
 8002692:	60fb      	str	r3, [r7, #12]
    ep->is_in = 1U;
 8002694:	68fb      	ldr	r3, [r7, #12]
 8002696:	2201      	movs	r2, #1
 8002698:	705a      	strb	r2, [r3, #1]
 800269a:	e00f      	b.n	80026bc <HAL_PCD_EP_Close+0x54>
  }
  else
  {
    ep = &hpcd->OUT_ep[ep_addr & EP_ADDR_MSK];
 800269c:	78fb      	ldrb	r3, [r7, #3]
 800269e:	f003 020f 	and.w	r2, r3, #15
 80026a2:	4613      	mov	r3, r2
 80026a4:	00db      	lsls	r3, r3, #3
 80026a6:	4413      	add	r3, r2
 80026a8:	009b      	lsls	r3, r3, #2
 80026aa:	f503 7314 	add.w	r3, r3, #592	@ 0x250
 80026ae:	687a      	ldr	r2, [r7, #4]
 80026b0:	4413      	add	r3, r2
 80026b2:	3304      	adds	r3, #4
 80026b4:	60fb      	str	r3, [r7, #12]
    ep->is_in = 0U;
 80026b6:	68fb      	ldr	r3, [r7, #12]
 80026b8:	2200      	movs	r2, #0
 80026ba:	705a      	strb	r2, [r3, #1]
  }
  ep->num = ep_addr & EP_ADDR_MSK;
 80026bc:	78fb      	ldrb	r3, [r7, #3]
 80026be:	f003 030f 	and.w	r3, r3, #15
 80026c2:	b2da      	uxtb	r2, r3
 80026c4:	68fb      	ldr	r3, [r7, #12]
 80026c6:	701a      	strb	r2, [r3, #0]

  __HAL_LOCK(hpcd);
 80026c8:	687b      	ldr	r3, [r7, #4]
 80026ca:	f893 3494 	ldrb.w	r3, [r3, #1172]	@ 0x494
 80026ce:	2b01      	cmp	r3, #1
 80026d0:	d101      	bne.n	80026d6 <HAL_PCD_EP_Close+0x6e>
 80026d2:	2302      	movs	r3, #2
 80026d4:	e00e      	b.n	80026f4 <HAL_PCD_EP_Close+0x8c>
 80026d6:	687b      	ldr	r3, [r7, #4]
 80026d8:	2201      	movs	r2, #1
 80026da:	f883 2494 	strb.w	r2, [r3, #1172]	@ 0x494
  (void)USB_DeactivateEndpoint(hpcd->Instance, ep);
 80026de:	687b      	ldr	r3, [r7, #4]
 80026e0:	681b      	ldr	r3, [r3, #0]
 80026e2:	68f9      	ldr	r1, [r7, #12]
 80026e4:	4618      	mov	r0, r3
 80026e6:	f003 fdcb 	bl	8006280 <USB_DeactivateEndpoint>
  __HAL_UNLOCK(hpcd);
 80026ea:	687b      	ldr	r3, [r7, #4]
 80026ec:	2200      	movs	r2, #0
 80026ee:	f883 2494 	strb.w	r2, [r3, #1172]	@ 0x494
  return HAL_OK;
 80026f2:	2300      	movs	r3, #0
}
 80026f4:	4618      	mov	r0, r3
 80026f6:	3710      	adds	r7, #16
 80026f8:	46bd      	mov	sp, r7
 80026fa:	bd80      	pop	{r7, pc}

080026fc <HAL_PCD_EP_Receive>:
  * @param  pBuf pointer to the reception buffer
  * @param  len amount of data to be received
  * @retval HAL status
  */
HAL_StatusTypeDef HAL_PCD_EP_Receive(PCD_HandleTypeDef *hpcd, uint8_t ep_addr, uint8_t *pBuf, uint32_t len)
{
 80026fc:	b580      	push	{r7, lr}
 80026fe:	b086      	sub	sp, #24
 8002700:	af00      	add	r7, sp, #0
 8002702:	60f8      	str	r0, [r7, #12]
 8002704:	607a      	str	r2, [r7, #4]
 8002706:	603b      	str	r3, [r7, #0]
 8002708:	460b      	mov	r3, r1
 800270a:	72fb      	strb	r3, [r7, #11]
  PCD_EPTypeDef *ep;

  ep = &hpcd->OUT_ep[ep_addr & EP_ADDR_MSK];
 800270c:	7afb      	ldrb	r3, [r7, #11]
 800270e:	f003 020f 	and.w	r2, r3, #15
 8002712:	4613      	mov	r3, r2
 8002714:	00db      	lsls	r3, r3, #3
 8002716:	4413      	add	r3, r2
 8002718:	009b      	lsls	r3, r3, #2
 800271a:	f503 7314 	add.w	r3, r3, #592	@ 0x250
 800271e:	68fa      	ldr	r2, [r7, #12]
 8002720:	4413      	add	r3, r2
 8002722:	3304      	adds	r3, #4
 8002724:	617b      	str	r3, [r7, #20]

  /*setup and start the Xfer */
  ep->xfer_buff = pBuf;
 8002726:	697b      	ldr	r3, [r7, #20]
 8002728:	687a      	ldr	r2, [r7, #4]
 800272a:	60da      	str	r2, [r3, #12]
  ep->xfer_len = len;
 800272c:	697b      	ldr	r3, [r7, #20]
 800272e:	683a      	ldr	r2, [r7, #0]
 8002730:	611a      	str	r2, [r3, #16]
  ep->xfer_count = 0U;
 8002732:	697b      	ldr	r3, [r7, #20]
 8002734:	2200      	movs	r2, #0
 8002736:	615a      	str	r2, [r3, #20]
  ep->is_in = 0U;
 8002738:	697b      	ldr	r3, [r7, #20]
 800273a:	2200      	movs	r2, #0
 800273c:	705a      	strb	r2, [r3, #1]
  ep->num = ep_addr & EP_ADDR_MSK;
 800273e:	7afb      	ldrb	r3, [r7, #11]
 8002740:	f003 030f 	and.w	r3, r3, #15
 8002744:	b2da      	uxtb	r2, r3
 8002746:	697b      	ldr	r3, [r7, #20]
 8002748:	701a      	strb	r2, [r3, #0]

  if (hpcd->Init.dma_enable == 1U)
 800274a:	68fb      	ldr	r3, [r7, #12]
 800274c:	799b      	ldrb	r3, [r3, #6]
 800274e:	2b01      	cmp	r3, #1
 8002750:	d102      	bne.n	8002758 <HAL_PCD_EP_Receive+0x5c>
  {
    ep->dma_addr = (uint32_t)pBuf;
 8002752:	687a      	ldr	r2, [r7, #4]
 8002754:	697b      	ldr	r3, [r7, #20]
 8002756:	61da      	str	r2, [r3, #28]
  }

  (void)USB_EPStartXfer(hpcd->Instance, ep, (uint8_t)hpcd->Init.dma_enable);
 8002758:	68fb      	ldr	r3, [r7, #12]
 800275a:	6818      	ldr	r0, [r3, #0]
 800275c:	68fb      	ldr	r3, [r7, #12]
 800275e:	799b      	ldrb	r3, [r3, #6]
 8002760:	461a      	mov	r2, r3
 8002762:	6979      	ldr	r1, [r7, #20]
 8002764:	f003 fe68 	bl	8006438 <USB_EPStartXfer>

  return HAL_OK;
 8002768:	2300      	movs	r3, #0
}
 800276a:	4618      	mov	r0, r3
 800276c:	3718      	adds	r7, #24
 800276e:	46bd      	mov	sp, r7
 8002770:	bd80      	pop	{r7, pc}

08002772 <HAL_PCD_EP_GetRxCount>:
  * @param  hpcd PCD handle
  * @param  ep_addr endpoint address
  * @retval Data Size
  */
uint32_t HAL_PCD_EP_GetRxCount(PCD_HandleTypeDef const *hpcd, uint8_t ep_addr)
{
 8002772:	b480      	push	{r7}
 8002774:	b083      	sub	sp, #12
 8002776:	af00      	add	r7, sp, #0
 8002778:	6078      	str	r0, [r7, #4]
 800277a:	460b      	mov	r3, r1
 800277c:	70fb      	strb	r3, [r7, #3]
  return hpcd->OUT_ep[ep_addr & EP_ADDR_MSK].xfer_count;
 800277e:	78fb      	ldrb	r3, [r7, #3]
 8002780:	f003 020f 	and.w	r2, r3, #15
 8002784:	6879      	ldr	r1, [r7, #4]
 8002786:	4613      	mov	r3, r2
 8002788:	00db      	lsls	r3, r3, #3
 800278a:	4413      	add	r3, r2
 800278c:	009b      	lsls	r3, r3, #2
 800278e:	440b      	add	r3, r1
 8002790:	f503 731a 	add.w	r3, r3, #616	@ 0x268
 8002794:	681b      	ldr	r3, [r3, #0]
}
 8002796:	4618      	mov	r0, r3
 8002798:	370c      	adds	r7, #12
 800279a:	46bd      	mov	sp, r7
 800279c:	f85d 7b04 	ldr.w	r7, [sp], #4
 80027a0:	4770      	bx	lr

080027a2 <HAL_PCD_EP_Transmit>:
  * @param  pBuf pointer to the transmission buffer
  * @param  len amount of data to be sent
  * @retval HAL status
  */
HAL_StatusTypeDef HAL_PCD_EP_Transmit(PCD_HandleTypeDef *hpcd, uint8_t ep_addr, uint8_t *pBuf, uint32_t len)
{
 80027a2:	b580      	push	{r7, lr}
 80027a4:	b086      	sub	sp, #24
 80027a6:	af00      	add	r7, sp, #0
 80027a8:	60f8      	str	r0, [r7, #12]
 80027aa:	607a      	str	r2, [r7, #4]
 80027ac:	603b      	str	r3, [r7, #0]
 80027ae:	460b      	mov	r3, r1
 80027b0:	72fb      	strb	r3, [r7, #11]
  PCD_EPTypeDef *ep;

  ep = &hpcd->IN_ep[ep_addr & EP_ADDR_MSK];
 80027b2:	7afb      	ldrb	r3, [r7, #11]
 80027b4:	f003 020f 	and.w	r2, r3, #15
 80027b8:	4613      	mov	r3, r2
 80027ba:	00db      	lsls	r3, r3, #3
 80027bc:	4413      	add	r3, r2
 80027be:	009b      	lsls	r3, r3, #2
 80027c0:	3310      	adds	r3, #16
 80027c2:	68fa      	ldr	r2, [r7, #12]
 80027c4:	4413      	add	r3, r2
 80027c6:	3304      	adds	r3, #4
 80027c8:	617b      	str	r3, [r7, #20]

  /*setup and start the Xfer */
  ep->xfer_buff = pBuf;
 80027ca:	697b      	ldr	r3, [r7, #20]
 80027cc:	687a      	ldr	r2, [r7, #4]
 80027ce:	60da      	str	r2, [r3, #12]
  ep->xfer_len = len;
 80027d0:	697b      	ldr	r3, [r7, #20]
 80027d2:	683a      	ldr	r2, [r7, #0]
 80027d4:	611a      	str	r2, [r3, #16]
  ep->xfer_count = 0U;
 80027d6:	697b      	ldr	r3, [r7, #20]
 80027d8:	2200      	movs	r2, #0
 80027da:	615a      	str	r2, [r3, #20]
  ep->is_in = 1U;
 80027dc:	697b      	ldr	r3, [r7, #20]
 80027de:	2201      	movs	r2, #1
 80027e0:	705a      	strb	r2, [r3, #1]
  ep->num = ep_addr & EP_ADDR_MSK;
 80027e2:	7afb      	ldrb	r3, [r7, #11]
 80027e4:	f003 030f 	and.w	r3, r3, #15
 80027e8:	b2da      	uxtb	r2, r3
 80027ea:	697b      	ldr	r3, [r7, #20]
 80027ec:	701a      	strb	r2, [r3, #0]

  if (hpcd->Init.dma_enable == 1U)
 80027ee:	68fb      	ldr	r3, [r7, #12]
 80027f0:	799b      	ldrb	r3, [r3, #6]
 80027f2:	2b01      	cmp	r3, #1
 80027f4:	d102      	bne.n	80027fc <HAL_PCD_EP_Transmit+0x5a>
  {
    ep->dma_addr = (uint32_t)pBuf;
 80027f6:	687a      	ldr	r2, [r7, #4]
 80027f8:	697b      	ldr	r3, [r7, #20]
 80027fa:	61da      	str	r2, [r3, #28]
  }

  (void)USB_EPStartXfer(hpcd->Instance, ep, (uint8_t)hpcd->Init.dma_enable);
 80027fc:	68fb      	ldr	r3, [r7, #12]
 80027fe:	6818      	ldr	r0, [r3, #0]
 8002800:	68fb      	ldr	r3, [r7, #12]
 8002802:	799b      	ldrb	r3, [r3, #6]
 8002804:	461a      	mov	r2, r3
 8002806:	6979      	ldr	r1, [r7, #20]
 8002808:	f003 fe16 	bl	8006438 <USB_EPStartXfer>

  return HAL_OK;
 800280c:	2300      	movs	r3, #0
}
 800280e:	4618      	mov	r0, r3
 8002810:	3718      	adds	r7, #24
 8002812:	46bd      	mov	sp, r7
 8002814:	bd80      	pop	{r7, pc}

08002816 <HAL_PCD_EP_SetStall>:
  * @param  hpcd PCD handle
  * @param  ep_addr endpoint address
  * @retval HAL status
  */
HAL_StatusTypeDef HAL_PCD_EP_SetStall(PCD_HandleTypeDef *hpcd, uint8_t ep_addr)
{
 8002816:	b580      	push	{r7, lr}
 8002818:	b084      	sub	sp, #16
 800281a:	af00      	add	r7, sp, #0
 800281c:	6078      	str	r0, [r7, #4]
 800281e:	460b      	mov	r3, r1
 8002820:	70fb      	strb	r3, [r7, #3]
  PCD_EPTypeDef *ep;

  if (((uint32_t)ep_addr & EP_ADDR_MSK) > hpcd->Init.dev_endpoints)
 8002822:	78fb      	ldrb	r3, [r7, #3]
 8002824:	f003 030f 	and.w	r3, r3, #15
 8002828:	687a      	ldr	r2, [r7, #4]
 800282a:	7912      	ldrb	r2, [r2, #4]
 800282c:	4293      	cmp	r3, r2
 800282e:	d901      	bls.n	8002834 <HAL_PCD_EP_SetStall+0x1e>
  {
    return HAL_ERROR;
 8002830:	2301      	movs	r3, #1
 8002832:	e04f      	b.n	80028d4 <HAL_PCD_EP_SetStall+0xbe>
  }

  if ((0x80U & ep_addr) == 0x80U)
 8002834:	f997 3003 	ldrsb.w	r3, [r7, #3]
 8002838:	2b00      	cmp	r3, #0
 800283a:	da0f      	bge.n	800285c <HAL_PCD_EP_SetStall+0x46>
  {
    ep = &hpcd->IN_ep[ep_addr & EP_ADDR_MSK];
 800283c:	78fb      	ldrb	r3, [r7, #3]
 800283e:	f003 020f 	and.w	r2, r3, #15
 8002842:	4613      	mov	r3, r2
 8002844:	00db      	lsls	r3, r3, #3
 8002846:	4413      	add	r3, r2
 8002848:	009b      	lsls	r3, r3, #2
 800284a:	3310      	adds	r3, #16
 800284c:	687a      	ldr	r2, [r7, #4]
 800284e:	4413      	add	r3, r2
 8002850:	3304      	adds	r3, #4
 8002852:	60fb      	str	r3, [r7, #12]
    ep->is_in = 1U;
 8002854:	68fb      	ldr	r3, [r7, #12]
 8002856:	2201      	movs	r2, #1
 8002858:	705a      	strb	r2, [r3, #1]
 800285a:	e00d      	b.n	8002878 <HAL_PCD_EP_SetStall+0x62>
  }
  else
  {
    ep = &hpcd->OUT_ep[ep_addr];
 800285c:	78fa      	ldrb	r2, [r7, #3]
 800285e:	4613      	mov	r3, r2
 8002860:	00db      	lsls	r3, r3, #3
 8002862:	4413      	add	r3, r2
 8002864:	009b      	lsls	r3, r3, #2
 8002866:	f503 7314 	add.w	r3, r3, #592	@ 0x250
 800286a:	687a      	ldr	r2, [r7, #4]
 800286c:	4413      	add	r3, r2
 800286e:	3304      	adds	r3, #4
 8002870:	60fb      	str	r3, [r7, #12]
    ep->is_in = 0U;
 8002872:	68fb      	ldr	r3, [r7, #12]
 8002874:	2200      	movs	r2, #0
 8002876:	705a      	strb	r2, [r3, #1]
  }

  ep->is_stall = 1U;
 8002878:	68fb      	ldr	r3, [r7, #12]
 800287a:	2201      	movs	r2, #1
 800287c:	709a      	strb	r2, [r3, #2]
  ep->num = ep_addr & EP_ADDR_MSK;
 800287e:	78fb      	ldrb	r3, [r7, #3]
 8002880:	f003 030f 	and.w	r3, r3, #15
 8002884:	b2da      	uxtb	r2, r3
 8002886:	68fb      	ldr	r3, [r7, #12]
 8002888:	701a      	strb	r2, [r3, #0]

  __HAL_LOCK(hpcd);
 800288a:	687b      	ldr	r3, [r7, #4]
 800288c:	f893 3494 	ldrb.w	r3, [r3, #1172]	@ 0x494
 8002890:	2b01      	cmp	r3, #1
 8002892:	d101      	bne.n	8002898 <HAL_PCD_EP_SetStall+0x82>
 8002894:	2302      	movs	r3, #2
 8002896:	e01d      	b.n	80028d4 <HAL_PCD_EP_SetStall+0xbe>
 8002898:	687b      	ldr	r3, [r7, #4]
 800289a:	2201      	movs	r2, #1
 800289c:	f883 2494 	strb.w	r2, [r3, #1172]	@ 0x494

  (void)USB_EPSetStall(hpcd->Instance, ep);
 80028a0:	687b      	ldr	r3, [r7, #4]
 80028a2:	681b      	ldr	r3, [r3, #0]
 80028a4:	68f9      	ldr	r1, [r7, #12]
 80028a6:	4618      	mov	r0, r3
 80028a8:	f004 f967 	bl	8006b7a <USB_EPSetStall>

  if ((ep_addr & EP_ADDR_MSK) == 0U)
 80028ac:	78fb      	ldrb	r3, [r7, #3]
 80028ae:	f003 030f 	and.w	r3, r3, #15
 80028b2:	2b00      	cmp	r3, #0
 80028b4:	d109      	bne.n	80028ca <HAL_PCD_EP_SetStall+0xb4>
  {
    (void)USB_EP0_OutStart(hpcd->Instance, (uint8_t)hpcd->Init.dma_enable, (uint8_t *)hpcd->Setup);
 80028b6:	687b      	ldr	r3, [r7, #4]
 80028b8:	6818      	ldr	r0, [r3, #0]
 80028ba:	687b      	ldr	r3, [r7, #4]
 80028bc:	7999      	ldrb	r1, [r3, #6]
 80028be:	687b      	ldr	r3, [r7, #4]
 80028c0:	f203 439c 	addw	r3, r3, #1180	@ 0x49c
 80028c4:	461a      	mov	r2, r3
 80028c6:	f004 fbef 	bl	80070a8 <USB_EP0_OutStart>
  }

  __HAL_UNLOCK(hpcd);
 80028ca:	687b      	ldr	r3, [r7, #4]
 80028cc:	2200      	movs	r2, #0
 80028ce:	f883 2494 	strb.w	r2, [r3, #1172]	@ 0x494

  return HAL_OK;
 80028d2:	2300      	movs	r3, #0
}
 80028d4:	4618      	mov	r0, r3
 80028d6:	3710      	adds	r7, #16
 80028d8:	46bd      	mov	sp, r7
 80028da:	bd80      	pop	{r7, pc}

080028dc <HAL_PCD_EP_ClrStall>:
  * @param  hpcd PCD handle
  * @param  ep_addr endpoint address
  * @retval HAL status
  */
HAL_StatusTypeDef HAL_PCD_EP_ClrStall(PCD_HandleTypeDef *hpcd, uint8_t ep_addr)
{
 80028dc:	b580      	push	{r7, lr}
 80028de:	b084      	sub	sp, #16
 80028e0:	af00      	add	r7, sp, #0
 80028e2:	6078      	str	r0, [r7, #4]
 80028e4:	460b      	mov	r3, r1
 80028e6:	70fb      	strb	r3, [r7, #3]
  PCD_EPTypeDef *ep;

  if (((uint32_t)ep_addr & 0x0FU) > hpcd->Init.dev_endpoints)
 80028e8:	78fb      	ldrb	r3, [r7, #3]
 80028ea:	f003 030f 	and.w	r3, r3, #15
 80028ee:	687a      	ldr	r2, [r7, #4]
 80028f0:	7912      	ldrb	r2, [r2, #4]
 80028f2:	4293      	cmp	r3, r2
 80028f4:	d901      	bls.n	80028fa <HAL_PCD_EP_ClrStall+0x1e>
  {
    return HAL_ERROR;
 80028f6:	2301      	movs	r3, #1
 80028f8:	e042      	b.n	8002980 <HAL_PCD_EP_ClrStall+0xa4>
  }

  if ((0x80U & ep_addr) == 0x80U)
 80028fa:	f997 3003 	ldrsb.w	r3, [r7, #3]
 80028fe:	2b00      	cmp	r3, #0
 8002900:	da0f      	bge.n	8002922 <HAL_PCD_EP_ClrStall+0x46>
  {
    ep = &hpcd->IN_ep[ep_addr & EP_ADDR_MSK];
 8002902:	78fb      	ldrb	r3, [r7, #3]
 8002904:	f003 020f 	and.w	r2, r3, #15
 8002908:	4613      	mov	r3, r2
 800290a:	00db      	lsls	r3, r3, #3
 800290c:	4413      	add	r3, r2
 800290e:	009b      	lsls	r3, r3, #2
 8002910:	3310      	adds	r3, #16
 8002912:	687a      	ldr	r2, [r7, #4]
 8002914:	4413      	add	r3, r2
 8002916:	3304      	adds	r3, #4
 8002918:	60fb      	str	r3, [r7, #12]
    ep->is_in = 1U;
 800291a:	68fb      	ldr	r3, [r7, #12]
 800291c:	2201      	movs	r2, #1
 800291e:	705a      	strb	r2, [r3, #1]
 8002920:	e00f      	b.n	8002942 <HAL_PCD_EP_ClrStall+0x66>
  }
  else
  {
    ep = &hpcd->OUT_ep[ep_addr & EP_ADDR_MSK];
 8002922:	78fb      	ldrb	r3, [r7, #3]
 8002924:	f003 020f 	and.w	r2, r3, #15
 8002928:	4613      	mov	r3, r2
 800292a:	00db      	lsls	r3, r3, #3
 800292c:	4413      	add	r3, r2
 800292e:	009b      	lsls	r3, r3, #2
 8002930:	f503 7314 	add.w	r3, r3, #592	@ 0x250
 8002934:	687a      	ldr	r2, [r7, #4]
 8002936:	4413      	add	r3, r2
 8002938:	3304      	adds	r3, #4
 800293a:	60fb      	str	r3, [r7, #12]
    ep->is_in = 0U;
 800293c:	68fb      	ldr	r3, [r7, #12]
 800293e:	2200      	movs	r2, #0
 8002940:	705a      	strb	r2, [r3, #1]
  }

  ep->is_stall = 0U;
 8002942:	68fb      	ldr	r3, [r7, #12]
 8002944:	2200      	movs	r2, #0
 8002946:	709a      	strb	r2, [r3, #2]
  ep->num = ep_addr & EP_ADDR_MSK;
 8002948:	78fb      	ldrb	r3, [r7, #3]
 800294a:	f003 030f 	and.w	r3, r3, #15
 800294e:	b2da      	uxtb	r2, r3
 8002950:	68fb      	ldr	r3, [r7, #12]
 8002952:	701a      	strb	r2, [r3, #0]

  __HAL_LOCK(hpcd);
 8002954:	687b      	ldr	r3, [r7, #4]
 8002956:	f893 3494 	ldrb.w	r3, [r3, #1172]	@ 0x494
 800295a:	2b01      	cmp	r3, #1
 800295c:	d101      	bne.n	8002962 <HAL_PCD_EP_ClrStall+0x86>
 800295e:	2302      	movs	r3, #2
 8002960:	e00e      	b.n	8002980 <HAL_PCD_EP_ClrStall+0xa4>
 8002962:	687b      	ldr	r3, [r7, #4]
 8002964:	2201      	movs	r2, #1
 8002966:	f883 2494 	strb.w	r2, [r3, #1172]	@ 0x494
  (void)USB_EPClearStall(hpcd->Instance, ep);
 800296a:	687b      	ldr	r3, [r7, #4]
 800296c:	681b      	ldr	r3, [r3, #0]
 800296e:	68f9      	ldr	r1, [r7, #12]
 8002970:	4618      	mov	r0, r3
 8002972:	f004 f970 	bl	8006c56 <USB_EPClearStall>
  __HAL_UNLOCK(hpcd);
 8002976:	687b      	ldr	r3, [r7, #4]
 8002978:	2200      	movs	r2, #0
 800297a:	f883 2494 	strb.w	r2, [r3, #1172]	@ 0x494

  return HAL_OK;
 800297e:	2300      	movs	r3, #0
}
 8002980:	4618      	mov	r0, r3
 8002982:	3710      	adds	r7, #16
 8002984:	46bd      	mov	sp, r7
 8002986:	bd80      	pop	{r7, pc}

08002988 <HAL_PCD_EP_Abort>:
   * @param  hpcd PCD handle
   * @param  ep_addr endpoint address
   * @retval HAL status
   */
HAL_StatusTypeDef HAL_PCD_EP_Abort(PCD_HandleTypeDef *hpcd, uint8_t ep_addr)
{
 8002988:	b580      	push	{r7, lr}
 800298a:	b084      	sub	sp, #16
 800298c:	af00      	add	r7, sp, #0
 800298e:	6078      	str	r0, [r7, #4]
 8002990:	460b      	mov	r3, r1
 8002992:	70fb      	strb	r3, [r7, #3]
  HAL_StatusTypeDef ret;
  PCD_EPTypeDef *ep;

  if ((0x80U & ep_addr) == 0x80U)
 8002994:	f997 3003 	ldrsb.w	r3, [r7, #3]
 8002998:	2b00      	cmp	r3, #0
 800299a:	da0c      	bge.n	80029b6 <HAL_PCD_EP_Abort+0x2e>
  {
    ep = &hpcd->IN_ep[ep_addr & EP_ADDR_MSK];
 800299c:	78fb      	ldrb	r3, [r7, #3]
 800299e:	f003 020f 	and.w	r2, r3, #15
 80029a2:	4613      	mov	r3, r2
 80029a4:	00db      	lsls	r3, r3, #3
 80029a6:	4413      	add	r3, r2
 80029a8:	009b      	lsls	r3, r3, #2
 80029aa:	3310      	adds	r3, #16
 80029ac:	687a      	ldr	r2, [r7, #4]
 80029ae:	4413      	add	r3, r2
 80029b0:	3304      	adds	r3, #4
 80029b2:	60fb      	str	r3, [r7, #12]
 80029b4:	e00c      	b.n	80029d0 <HAL_PCD_EP_Abort+0x48>
  }
  else
  {
    ep = &hpcd->OUT_ep[ep_addr & EP_ADDR_MSK];
 80029b6:	78fb      	ldrb	r3, [r7, #3]
 80029b8:	f003 020f 	and.w	r2, r3, #15
 80029bc:	4613      	mov	r3, r2
 80029be:	00db      	lsls	r3, r3, #3
 80029c0:	4413      	add	r3, r2
 80029c2:	009b      	lsls	r3, r3, #2
 80029c4:	f503 7314 	add.w	r3, r3, #592	@ 0x250
 80029c8:	687a      	ldr	r2, [r7, #4]
 80029ca:	4413      	add	r3, r2
 80029cc:	3304      	adds	r3, #4
 80029ce:	60fb      	str	r3, [r7, #12]
  }

  /* Stop Xfer */
  ret = USB_EPStopXfer(hpcd->Instance, ep);
 80029d0:	687b      	ldr	r3, [r7, #4]
 80029d2:	681b      	ldr	r3, [r3, #0]
 80029d4:	68f9      	ldr	r1, [r7, #12]
 80029d6:	4618      	mov	r0, r3
 80029d8:	f003 ffd2 	bl	8006980 <USB_EPStopXfer>
 80029dc:	4603      	mov	r3, r0
 80029de:	72fb      	strb	r3, [r7, #11]

  return ret;
 80029e0:	7afb      	ldrb	r3, [r7, #11]
}
 80029e2:	4618      	mov	r0, r3
 80029e4:	3710      	adds	r7, #16
 80029e6:	46bd      	mov	sp, r7
 80029e8:	bd80      	pop	{r7, pc}

080029ea <PCD_WriteEmptyTxFifo>:
  * @param  hpcd PCD handle
  * @param  epnum endpoint number
  * @retval HAL status
  */
static HAL_StatusTypeDef PCD_WriteEmptyTxFifo(PCD_HandleTypeDef *hpcd, uint32_t epnum)
{
 80029ea:	b580      	push	{r7, lr}
 80029ec:	b08a      	sub	sp, #40	@ 0x28
 80029ee:	af02      	add	r7, sp, #8
 80029f0:	6078      	str	r0, [r7, #4]
 80029f2:	6039      	str	r1, [r7, #0]
  USB_OTG_GlobalTypeDef *USBx = hpcd->Instance;
 80029f4:	687b      	ldr	r3, [r7, #4]
 80029f6:	681b      	ldr	r3, [r3, #0]
 80029f8:	617b      	str	r3, [r7, #20]
  uint32_t USBx_BASE = (uint32_t)USBx;
 80029fa:	697b      	ldr	r3, [r7, #20]
 80029fc:	613b      	str	r3, [r7, #16]
  USB_OTG_EPTypeDef *ep;
  uint32_t len;
  uint32_t len32b;
  uint32_t fifoemptymsk;

  ep = &hpcd->IN_ep[epnum];
 80029fe:	683a      	ldr	r2, [r7, #0]
 8002a00:	4613      	mov	r3, r2
 8002a02:	00db      	lsls	r3, r3, #3
 8002a04:	4413      	add	r3, r2
 8002a06:	009b      	lsls	r3, r3, #2
 8002a08:	3310      	adds	r3, #16
 8002a0a:	687a      	ldr	r2, [r7, #4]
 8002a0c:	4413      	add	r3, r2
 8002a0e:	3304      	adds	r3, #4
 8002a10:	60fb      	str	r3, [r7, #12]

  if (ep->xfer_count > ep->xfer_len)
 8002a12:	68fb      	ldr	r3, [r7, #12]
 8002a14:	695a      	ldr	r2, [r3, #20]
 8002a16:	68fb      	ldr	r3, [r7, #12]
 8002a18:	691b      	ldr	r3, [r3, #16]
 8002a1a:	429a      	cmp	r2, r3
 8002a1c:	d901      	bls.n	8002a22 <PCD_WriteEmptyTxFifo+0x38>
  {
    return HAL_ERROR;
 8002a1e:	2301      	movs	r3, #1
 8002a20:	e06b      	b.n	8002afa <PCD_WriteEmptyTxFifo+0x110>
  }

  len = ep->xfer_len - ep->xfer_count;
 8002a22:	68fb      	ldr	r3, [r7, #12]
 8002a24:	691a      	ldr	r2, [r3, #16]
 8002a26:	68fb      	ldr	r3, [r7, #12]
 8002a28:	695b      	ldr	r3, [r3, #20]
 8002a2a:	1ad3      	subs	r3, r2, r3
 8002a2c:	61fb      	str	r3, [r7, #28]

  if (len > ep->maxpacket)
 8002a2e:	68fb      	ldr	r3, [r7, #12]
 8002a30:	689b      	ldr	r3, [r3, #8]
 8002a32:	69fa      	ldr	r2, [r7, #28]
 8002a34:	429a      	cmp	r2, r3
 8002a36:	d902      	bls.n	8002a3e <PCD_WriteEmptyTxFifo+0x54>
  {
    len = ep->maxpacket;
 8002a38:	68fb      	ldr	r3, [r7, #12]
 8002a3a:	689b      	ldr	r3, [r3, #8]
 8002a3c:	61fb      	str	r3, [r7, #28]
  }

  len32b = (len + 3U) / 4U;
 8002a3e:	69fb      	ldr	r3, [r7, #28]
 8002a40:	3303      	adds	r3, #3
 8002a42:	089b      	lsrs	r3, r3, #2
 8002a44:	61bb      	str	r3, [r7, #24]

  while (((USBx_INEP(epnum)->DTXFSTS & USB_OTG_DTXFSTS_INEPTFSAV) >= len32b) &&
 8002a46:	e02a      	b.n	8002a9e <PCD_WriteEmptyTxFifo+0xb4>
         (ep->xfer_count < ep->xfer_len) && (ep->xfer_len != 0U))
  {
    /* Write the FIFO */
    len = ep->xfer_len - ep->xfer_count;
 8002a48:	68fb      	ldr	r3, [r7, #12]
 8002a4a:	691a      	ldr	r2, [r3, #16]
 8002a4c:	68fb      	ldr	r3, [r7, #12]
 8002a4e:	695b      	ldr	r3, [r3, #20]
 8002a50:	1ad3      	subs	r3, r2, r3
 8002a52:	61fb      	str	r3, [r7, #28]

    if (len > ep->maxpacket)
 8002a54:	68fb      	ldr	r3, [r7, #12]
 8002a56:	689b      	ldr	r3, [r3, #8]
 8002a58:	69fa      	ldr	r2, [r7, #28]
 8002a5a:	429a      	cmp	r2, r3
 8002a5c:	d902      	bls.n	8002a64 <PCD_WriteEmptyTxFifo+0x7a>
    {
      len = ep->maxpacket;
 8002a5e:	68fb      	ldr	r3, [r7, #12]
 8002a60:	689b      	ldr	r3, [r3, #8]
 8002a62:	61fb      	str	r3, [r7, #28]
    }
    len32b = (len + 3U) / 4U;
 8002a64:	69fb      	ldr	r3, [r7, #28]
 8002a66:	3303      	adds	r3, #3
 8002a68:	089b      	lsrs	r3, r3, #2
 8002a6a:	61bb      	str	r3, [r7, #24]

    (void)USB_WritePacket(USBx, ep->xfer_buff, (uint8_t)epnum, (uint16_t)len,
 8002a6c:	68fb      	ldr	r3, [r7, #12]
 8002a6e:	68d9      	ldr	r1, [r3, #12]
 8002a70:	683b      	ldr	r3, [r7, #0]
 8002a72:	b2da      	uxtb	r2, r3
 8002a74:	69fb      	ldr	r3, [r7, #28]
 8002a76:	b298      	uxth	r0, r3
 8002a78:	687b      	ldr	r3, [r7, #4]
 8002a7a:	799b      	ldrb	r3, [r3, #6]
 8002a7c:	9300      	str	r3, [sp, #0]
 8002a7e:	4603      	mov	r3, r0
 8002a80:	6978      	ldr	r0, [r7, #20]
 8002a82:	f004 f94e 	bl	8006d22 <USB_WritePacket>
                          (uint8_t)hpcd->Init.dma_enable);

    ep->xfer_buff  += len;
 8002a86:	68fb      	ldr	r3, [r7, #12]
 8002a88:	68da      	ldr	r2, [r3, #12]
 8002a8a:	69fb      	ldr	r3, [r7, #28]
 8002a8c:	441a      	add	r2, r3
 8002a8e:	68fb      	ldr	r3, [r7, #12]
 8002a90:	60da      	str	r2, [r3, #12]
    ep->xfer_count += len;
 8002a92:	68fb      	ldr	r3, [r7, #12]
 8002a94:	695a      	ldr	r2, [r3, #20]
 8002a96:	69fb      	ldr	r3, [r7, #28]
 8002a98:	441a      	add	r2, r3
 8002a9a:	68fb      	ldr	r3, [r7, #12]
 8002a9c:	615a      	str	r2, [r3, #20]
  while (((USBx_INEP(epnum)->DTXFSTS & USB_OTG_DTXFSTS_INEPTFSAV) >= len32b) &&
 8002a9e:	683b      	ldr	r3, [r7, #0]
 8002aa0:	015a      	lsls	r2, r3, #5
 8002aa2:	693b      	ldr	r3, [r7, #16]
 8002aa4:	4413      	add	r3, r2
 8002aa6:	f503 6310 	add.w	r3, r3, #2304	@ 0x900
 8002aaa:	699b      	ldr	r3, [r3, #24]
 8002aac:	b29b      	uxth	r3, r3
         (ep->xfer_count < ep->xfer_len) && (ep->xfer_len != 0U))
 8002aae:	69ba      	ldr	r2, [r7, #24]
 8002ab0:	429a      	cmp	r2, r3
 8002ab2:	d809      	bhi.n	8002ac8 <PCD_WriteEmptyTxFifo+0xde>
 8002ab4:	68fb      	ldr	r3, [r7, #12]
 8002ab6:	695a      	ldr	r2, [r3, #20]
 8002ab8:	68fb      	ldr	r3, [r7, #12]
 8002aba:	691b      	ldr	r3, [r3, #16]
  while (((USBx_INEP(epnum)->DTXFSTS & USB_OTG_DTXFSTS_INEPTFSAV) >= len32b) &&
 8002abc:	429a      	cmp	r2, r3
 8002abe:	d203      	bcs.n	8002ac8 <PCD_WriteEmptyTxFifo+0xde>
         (ep->xfer_count < ep->xfer_len) && (ep->xfer_len != 0U))
 8002ac0:	68fb      	ldr	r3, [r7, #12]
 8002ac2:	691b      	ldr	r3, [r3, #16]
 8002ac4:	2b00      	cmp	r3, #0
 8002ac6:	d1bf      	bne.n	8002a48 <PCD_WriteEmptyTxFifo+0x5e>
  }

  if (ep->xfer_len <= ep->xfer_count)
 8002ac8:	68fb      	ldr	r3, [r7, #12]
 8002aca:	691a      	ldr	r2, [r3, #16]
 8002acc:	68fb      	ldr	r3, [r7, #12]
 8002ace:	695b      	ldr	r3, [r3, #20]
 8002ad0:	429a      	cmp	r2, r3
 8002ad2:	d811      	bhi.n	8002af8 <PCD_WriteEmptyTxFifo+0x10e>
  {
    fifoemptymsk = (uint32_t)(0x1UL << (epnum & EP_ADDR_MSK));
 8002ad4:	683b      	ldr	r3, [r7, #0]
 8002ad6:	f003 030f 	and.w	r3, r3, #15
 8002ada:	2201      	movs	r2, #1
 8002adc:	fa02 f303 	lsl.w	r3, r2, r3
 8002ae0:	60bb      	str	r3, [r7, #8]
    USBx_DEVICE->DIEPEMPMSK &= ~fifoemptymsk;
 8002ae2:	693b      	ldr	r3, [r7, #16]
 8002ae4:	f503 6300 	add.w	r3, r3, #2048	@ 0x800
 8002ae8:	6b5a      	ldr	r2, [r3, #52]	@ 0x34
 8002aea:	68bb      	ldr	r3, [r7, #8]
 8002aec:	43db      	mvns	r3, r3
 8002aee:	6939      	ldr	r1, [r7, #16]
 8002af0:	f501 6100 	add.w	r1, r1, #2048	@ 0x800
 8002af4:	4013      	ands	r3, r2
 8002af6:	634b      	str	r3, [r1, #52]	@ 0x34
  }

  return HAL_OK;
 8002af8:	2300      	movs	r3, #0
}
 8002afa:	4618      	mov	r0, r3
 8002afc:	3720      	adds	r7, #32
 8002afe:	46bd      	mov	sp, r7
 8002b00:	bd80      	pop	{r7, pc}
	...

08002b04 <PCD_EP_OutXfrComplete_int>:
  * @param  hpcd PCD handle
  * @param  epnum endpoint number
  * @retval HAL status
  */
static HAL_StatusTypeDef PCD_EP_OutXfrComplete_int(PCD_HandleTypeDef *hpcd, uint32_t epnum)
{
 8002b04:	b580      	push	{r7, lr}
 8002b06:	b088      	sub	sp, #32
 8002b08:	af00      	add	r7, sp, #0
 8002b0a:	6078      	str	r0, [r7, #4]
 8002b0c:	6039      	str	r1, [r7, #0]
  USB_OTG_EPTypeDef *ep;
  const USB_OTG_GlobalTypeDef *USBx = hpcd->Instance;
 8002b0e:	687b      	ldr	r3, [r7, #4]
 8002b10:	681b      	ldr	r3, [r3, #0]
 8002b12:	61fb      	str	r3, [r7, #28]
  uint32_t USBx_BASE = (uint32_t)USBx;
 8002b14:	69fb      	ldr	r3, [r7, #28]
 8002b16:	61bb      	str	r3, [r7, #24]
  uint32_t gSNPSiD = *(__IO const uint32_t *)(&USBx->CID + 0x1U);
 8002b18:	69fb      	ldr	r3, [r7, #28]
 8002b1a:	333c      	adds	r3, #60	@ 0x3c
 8002b1c:	3304      	adds	r3, #4
 8002b1e:	681b      	ldr	r3, [r3, #0]
 8002b20:	617b      	str	r3, [r7, #20]
  uint32_t DoepintReg = USBx_OUTEP(epnum)->DOEPINT;
 8002b22:	683b      	ldr	r3, [r7, #0]
 8002b24:	015a      	lsls	r2, r3, #5
 8002b26:	69bb      	ldr	r3, [r7, #24]
 8002b28:	4413      	add	r3, r2
 8002b2a:	f503 6330 	add.w	r3, r3, #2816	@ 0xb00
 8002b2e:	689b      	ldr	r3, [r3, #8]
 8002b30:	613b      	str	r3, [r7, #16]

  if (hpcd->Init.dma_enable == 1U)
 8002b32:	687b      	ldr	r3, [r7, #4]
 8002b34:	799b      	ldrb	r3, [r3, #6]
 8002b36:	2b01      	cmp	r3, #1
 8002b38:	d17b      	bne.n	8002c32 <PCD_EP_OutXfrComplete_int+0x12e>
  {
    if ((DoepintReg & USB_OTG_DOEPINT_STUP) == USB_OTG_DOEPINT_STUP) /* Class C */
 8002b3a:	693b      	ldr	r3, [r7, #16]
 8002b3c:	f003 0308 	and.w	r3, r3, #8
 8002b40:	2b00      	cmp	r3, #0
 8002b42:	d015      	beq.n	8002b70 <PCD_EP_OutXfrComplete_int+0x6c>
    {
      /* StupPktRcvd = 1 this is a setup packet */
      if ((gSNPSiD > USB_OTG_CORE_ID_300A) &&
 8002b44:	697b      	ldr	r3, [r7, #20]
 8002b46:	4a61      	ldr	r2, [pc, #388]	@ (8002ccc <PCD_EP_OutXfrComplete_int+0x1c8>)
 8002b48:	4293      	cmp	r3, r2
 8002b4a:	f240 80b9 	bls.w	8002cc0 <PCD_EP_OutXfrComplete_int+0x1bc>
          ((DoepintReg & USB_OTG_DOEPINT_STPKTRX) == USB_OTG_DOEPINT_STPKTRX))
 8002b4e:	693b      	ldr	r3, [r7, #16]
 8002b50:	f403 4300 	and.w	r3, r3, #32768	@ 0x8000
      if ((gSNPSiD > USB_OTG_CORE_ID_300A) &&
 8002b54:	2b00      	cmp	r3, #0
 8002b56:	f000 80b3 	beq.w	8002cc0 <PCD_EP_OutXfrComplete_int+0x1bc>
      {
        CLEAR_OUT_EP_INTR(epnum, USB_OTG_DOEPINT_STPKTRX);
 8002b5a:	683b      	ldr	r3, [r7, #0]
 8002b5c:	015a      	lsls	r2, r3, #5
 8002b5e:	69bb      	ldr	r3, [r7, #24]
 8002b60:	4413      	add	r3, r2
 8002b62:	f503 6330 	add.w	r3, r3, #2816	@ 0xb00
 8002b66:	461a      	mov	r2, r3
 8002b68:	f44f 4300 	mov.w	r3, #32768	@ 0x8000
 8002b6c:	6093      	str	r3, [r2, #8]
 8002b6e:	e0a7      	b.n	8002cc0 <PCD_EP_OutXfrComplete_int+0x1bc>
      }
    }
    else if ((DoepintReg & USB_OTG_DOEPINT_OTEPSPR) == USB_OTG_DOEPINT_OTEPSPR) /* Class E */
 8002b70:	693b      	ldr	r3, [r7, #16]
 8002b72:	f003 0320 	and.w	r3, r3, #32
 8002b76:	2b00      	cmp	r3, #0
 8002b78:	d009      	beq.n	8002b8e <PCD_EP_OutXfrComplete_int+0x8a>
    {
      CLEAR_OUT_EP_INTR(epnum, USB_OTG_DOEPINT_OTEPSPR);
 8002b7a:	683b      	ldr	r3, [r7, #0]
 8002b7c:	015a      	lsls	r2, r3, #5
 8002b7e:	69bb      	ldr	r3, [r7, #24]
 8002b80:	4413      	add	r3, r2
 8002b82:	f503 6330 	add.w	r3, r3, #2816	@ 0xb00
 8002b86:	461a      	mov	r2, r3
 8002b88:	2320      	movs	r3, #32
 8002b8a:	6093      	str	r3, [r2, #8]
 8002b8c:	e098      	b.n	8002cc0 <PCD_EP_OutXfrComplete_int+0x1bc>
    }
    else if ((DoepintReg & (USB_OTG_DOEPINT_STUP | USB_OTG_DOEPINT_OTEPSPR)) == 0U)
 8002b8e:	693b      	ldr	r3, [r7, #16]
 8002b90:	f003 0328 	and.w	r3, r3, #40	@ 0x28
 8002b94:	2b00      	cmp	r3, #0
 8002b96:	f040 8093 	bne.w	8002cc0 <PCD_EP_OutXfrComplete_int+0x1bc>
    {
      /* StupPktRcvd = 1 this is a setup packet */
      if ((gSNPSiD > USB_OTG_CORE_ID_300A) &&
 8002b9a:	697b      	ldr	r3, [r7, #20]
 8002b9c:	4a4b      	ldr	r2, [pc, #300]	@ (8002ccc <PCD_EP_OutXfrComplete_int+0x1c8>)
 8002b9e:	4293      	cmp	r3, r2
 8002ba0:	d90f      	bls.n	8002bc2 <PCD_EP_OutXfrComplete_int+0xbe>
          ((DoepintReg & USB_OTG_DOEPINT_STPKTRX) == USB_OTG_DOEPINT_STPKTRX))
 8002ba2:	693b      	ldr	r3, [r7, #16]
 8002ba4:	f403 4300 	and.w	r3, r3, #32768	@ 0x8000
      if ((gSNPSiD > USB_OTG_CORE_ID_300A) &&
 8002ba8:	2b00      	cmp	r3, #0
 8002baa:	d00a      	beq.n	8002bc2 <PCD_EP_OutXfrComplete_int+0xbe>
      {
        CLEAR_OUT_EP_INTR(epnum, USB_OTG_DOEPINT_STPKTRX);
 8002bac:	683b      	ldr	r3, [r7, #0]
 8002bae:	015a      	lsls	r2, r3, #5
 8002bb0:	69bb      	ldr	r3, [r7, #24]
 8002bb2:	4413      	add	r3, r2
 8002bb4:	f503 6330 	add.w	r3, r3, #2816	@ 0xb00
 8002bb8:	461a      	mov	r2, r3
 8002bba:	f44f 4300 	mov.w	r3, #32768	@ 0x8000
 8002bbe:	6093      	str	r3, [r2, #8]
 8002bc0:	e07e      	b.n	8002cc0 <PCD_EP_OutXfrComplete_int+0x1bc>
      }
      else
      {
        ep = &hpcd->OUT_ep[epnum];
 8002bc2:	683a      	ldr	r2, [r7, #0]
 8002bc4:	4613      	mov	r3, r2
 8002bc6:	00db      	lsls	r3, r3, #3
 8002bc8:	4413      	add	r3, r2
 8002bca:	009b      	lsls	r3, r3, #2
 8002bcc:	f503 7314 	add.w	r3, r3, #592	@ 0x250
 8002bd0:	687a      	ldr	r2, [r7, #4]
 8002bd2:	4413      	add	r3, r2
 8002bd4:	3304      	adds	r3, #4
 8002bd6:	60fb      	str	r3, [r7, #12]

        /* out data packet received over EP */
        ep->xfer_count = ep->xfer_size - (USBx_OUTEP(epnum)->DOEPTSIZ & USB_OTG_DOEPTSIZ_XFRSIZ);
 8002bd8:	68fb      	ldr	r3, [r7, #12]
 8002bda:	6a1a      	ldr	r2, [r3, #32]
 8002bdc:	683b      	ldr	r3, [r7, #0]
 8002bde:	0159      	lsls	r1, r3, #5
 8002be0:	69bb      	ldr	r3, [r7, #24]
 8002be2:	440b      	add	r3, r1
 8002be4:	f503 6330 	add.w	r3, r3, #2816	@ 0xb00
 8002be8:	691b      	ldr	r3, [r3, #16]
 8002bea:	f3c3 0312 	ubfx	r3, r3, #0, #19
 8002bee:	1ad2      	subs	r2, r2, r3
 8002bf0:	68fb      	ldr	r3, [r7, #12]
 8002bf2:	615a      	str	r2, [r3, #20]

        if (epnum == 0U)
 8002bf4:	683b      	ldr	r3, [r7, #0]
 8002bf6:	2b00      	cmp	r3, #0
 8002bf8:	d114      	bne.n	8002c24 <PCD_EP_OutXfrComplete_int+0x120>
        {
          if (ep->xfer_len == 0U)
 8002bfa:	68fb      	ldr	r3, [r7, #12]
 8002bfc:	691b      	ldr	r3, [r3, #16]
 8002bfe:	2b00      	cmp	r3, #0
 8002c00:	d109      	bne.n	8002c16 <PCD_EP_OutXfrComplete_int+0x112>
          {
            /* this is ZLP, so prepare EP0 for next setup */
            (void)USB_EP0_OutStart(hpcd->Instance, 1U, (uint8_t *)hpcd->Setup);
 8002c02:	687b      	ldr	r3, [r7, #4]
 8002c04:	6818      	ldr	r0, [r3, #0]
 8002c06:	687b      	ldr	r3, [r7, #4]
 8002c08:	f203 439c 	addw	r3, r3, #1180	@ 0x49c
 8002c0c:	461a      	mov	r2, r3
 8002c0e:	2101      	movs	r1, #1
 8002c10:	f004 fa4a 	bl	80070a8 <USB_EP0_OutStart>
 8002c14:	e006      	b.n	8002c24 <PCD_EP_OutXfrComplete_int+0x120>
          }
          else
          {
            ep->xfer_buff += ep->xfer_count;
 8002c16:	68fb      	ldr	r3, [r7, #12]
 8002c18:	68da      	ldr	r2, [r3, #12]
 8002c1a:	68fb      	ldr	r3, [r7, #12]
 8002c1c:	695b      	ldr	r3, [r3, #20]
 8002c1e:	441a      	add	r2, r3
 8002c20:	68fb      	ldr	r3, [r7, #12]
 8002c22:	60da      	str	r2, [r3, #12]
        }

#if (USE_HAL_PCD_REGISTER_CALLBACKS == 1U)
        hpcd->DataOutStageCallback(hpcd, (uint8_t)epnum);
#else
        HAL_PCD_DataOutStageCallback(hpcd, (uint8_t)epnum);
 8002c24:	683b      	ldr	r3, [r7, #0]
 8002c26:	b2db      	uxtb	r3, r3
 8002c28:	4619      	mov	r1, r3
 8002c2a:	6878      	ldr	r0, [r7, #4]
 8002c2c:	f006 fd52 	bl	80096d4 <HAL_PCD_DataOutStageCallback>
 8002c30:	e046      	b.n	8002cc0 <PCD_EP_OutXfrComplete_int+0x1bc>
      /* ... */
    }
  }
  else
  {
    if (gSNPSiD == USB_OTG_CORE_ID_310A)
 8002c32:	697b      	ldr	r3, [r7, #20]
 8002c34:	4a26      	ldr	r2, [pc, #152]	@ (8002cd0 <PCD_EP_OutXfrComplete_int+0x1cc>)
 8002c36:	4293      	cmp	r3, r2
 8002c38:	d124      	bne.n	8002c84 <PCD_EP_OutXfrComplete_int+0x180>
    {
      /* StupPktRcvd = 1 this is a setup packet */
      if ((DoepintReg & USB_OTG_DOEPINT_STPKTRX) == USB_OTG_DOEPINT_STPKTRX)
 8002c3a:	693b      	ldr	r3, [r7, #16]
 8002c3c:	f403 4300 	and.w	r3, r3, #32768	@ 0x8000
 8002c40:	2b00      	cmp	r3, #0
 8002c42:	d00a      	beq.n	8002c5a <PCD_EP_OutXfrComplete_int+0x156>
      {
        CLEAR_OUT_EP_INTR(epnum, USB_OTG_DOEPINT_STPKTRX);
 8002c44:	683b      	ldr	r3, [r7, #0]
 8002c46:	015a      	lsls	r2, r3, #5
 8002c48:	69bb      	ldr	r3, [r7, #24]
 8002c4a:	4413      	add	r3, r2
 8002c4c:	f503 6330 	add.w	r3, r3, #2816	@ 0xb00
 8002c50:	461a      	mov	r2, r3
 8002c52:	f44f 4300 	mov.w	r3, #32768	@ 0x8000
 8002c56:	6093      	str	r3, [r2, #8]
 8002c58:	e032      	b.n	8002cc0 <PCD_EP_OutXfrComplete_int+0x1bc>
      }
      else
      {
        if ((DoepintReg & USB_OTG_DOEPINT_OTEPSPR) == USB_OTG_DOEPINT_OTEPSPR)
 8002c5a:	693b      	ldr	r3, [r7, #16]
 8002c5c:	f003 0320 	and.w	r3, r3, #32
 8002c60:	2b00      	cmp	r3, #0
 8002c62:	d008      	beq.n	8002c76 <PCD_EP_OutXfrComplete_int+0x172>
        {
          CLEAR_OUT_EP_INTR(epnum, USB_OTG_DOEPINT_OTEPSPR);
 8002c64:	683b      	ldr	r3, [r7, #0]
 8002c66:	015a      	lsls	r2, r3, #5
 8002c68:	69bb      	ldr	r3, [r7, #24]
 8002c6a:	4413      	add	r3, r2
 8002c6c:	f503 6330 	add.w	r3, r3, #2816	@ 0xb00
 8002c70:	461a      	mov	r2, r3
 8002c72:	2320      	movs	r3, #32
 8002c74:	6093      	str	r3, [r2, #8]
        }

#if (USE_HAL_PCD_REGISTER_CALLBACKS == 1U)
        hpcd->DataOutStageCallback(hpcd, (uint8_t)epnum);
#else
        HAL_PCD_DataOutStageCallback(hpcd, (uint8_t)epnum);
 8002c76:	683b      	ldr	r3, [r7, #0]
 8002c78:	b2db      	uxtb	r3, r3
 8002c7a:	4619      	mov	r1, r3
 8002c7c:	6878      	ldr	r0, [r7, #4]
 8002c7e:	f006 fd29 	bl	80096d4 <HAL_PCD_DataOutStageCallback>
 8002c82:	e01d      	b.n	8002cc0 <PCD_EP_OutXfrComplete_int+0x1bc>
#endif /* USE_HAL_PCD_REGISTER_CALLBACKS */
      }
    }
    else
    {
      if ((epnum == 0U) && (hpcd->OUT_ep[epnum].xfer_len == 0U))
 8002c84:	683b      	ldr	r3, [r7, #0]
 8002c86:	2b00      	cmp	r3, #0
 8002c88:	d114      	bne.n	8002cb4 <PCD_EP_OutXfrComplete_int+0x1b0>
 8002c8a:	6879      	ldr	r1, [r7, #4]
 8002c8c:	683a      	ldr	r2, [r7, #0]
 8002c8e:	4613      	mov	r3, r2
 8002c90:	00db      	lsls	r3, r3, #3
 8002c92:	4413      	add	r3, r2
 8002c94:	009b      	lsls	r3, r3, #2
 8002c96:	440b      	add	r3, r1
 8002c98:	f503 7319 	add.w	r3, r3, #612	@ 0x264
 8002c9c:	681b      	ldr	r3, [r3, #0]
 8002c9e:	2b00      	cmp	r3, #0
 8002ca0:	d108      	bne.n	8002cb4 <PCD_EP_OutXfrComplete_int+0x1b0>
      {
        /* this is ZLP, so prepare EP0 for next setup */
        (void)USB_EP0_OutStart(hpcd->Instance, 0U, (uint8_t *)hpcd->Setup);
 8002ca2:	687b      	ldr	r3, [r7, #4]
 8002ca4:	6818      	ldr	r0, [r3, #0]
 8002ca6:	687b      	ldr	r3, [r7, #4]
 8002ca8:	f203 439c 	addw	r3, r3, #1180	@ 0x49c
 8002cac:	461a      	mov	r2, r3
 8002cae:	2100      	movs	r1, #0
 8002cb0:	f004 f9fa 	bl	80070a8 <USB_EP0_OutStart>
      }

#if (USE_HAL_PCD_REGISTER_CALLBACKS == 1U)
      hpcd->DataOutStageCallback(hpcd, (uint8_t)epnum);
#else
      HAL_PCD_DataOutStageCallback(hpcd, (uint8_t)epnum);
 8002cb4:	683b      	ldr	r3, [r7, #0]
 8002cb6:	b2db      	uxtb	r3, r3
 8002cb8:	4619      	mov	r1, r3
 8002cba:	6878      	ldr	r0, [r7, #4]
 8002cbc:	f006 fd0a 	bl	80096d4 <HAL_PCD_DataOutStageCallback>
#endif /* USE_HAL_PCD_REGISTER_CALLBACKS */
    }
  }

  return HAL_OK;
 8002cc0:	2300      	movs	r3, #0
}
 8002cc2:	4618      	mov	r0, r3
 8002cc4:	3720      	adds	r7, #32
 8002cc6:	46bd      	mov	sp, r7
 8002cc8:	bd80      	pop	{r7, pc}
 8002cca:	bf00      	nop
 8002ccc:	4f54300a 	.word	0x4f54300a
 8002cd0:	4f54310a 	.word	0x4f54310a

08002cd4 <PCD_EP_OutSetupPacket_int>:
  * @param  hpcd PCD handle
  * @param  epnum endpoint number
  * @retval HAL status
  */
static HAL_StatusTypeDef PCD_EP_OutSetupPacket_int(PCD_HandleTypeDef *hpcd, uint32_t epnum)
{
 8002cd4:	b580      	push	{r7, lr}
 8002cd6:	b086      	sub	sp, #24
 8002cd8:	af00      	add	r7, sp, #0
 8002cda:	6078      	str	r0, [r7, #4]
 8002cdc:	6039      	str	r1, [r7, #0]
  const USB_OTG_GlobalTypeDef *USBx = hpcd->Instance;
 8002cde:	687b      	ldr	r3, [r7, #4]
 8002ce0:	681b      	ldr	r3, [r3, #0]
 8002ce2:	617b      	str	r3, [r7, #20]
  uint32_t USBx_BASE = (uint32_t)USBx;
 8002ce4:	697b      	ldr	r3, [r7, #20]
 8002ce6:	613b      	str	r3, [r7, #16]
  uint32_t gSNPSiD = *(__IO const uint32_t *)(&USBx->CID + 0x1U);
 8002ce8:	697b      	ldr	r3, [r7, #20]
 8002cea:	333c      	adds	r3, #60	@ 0x3c
 8002cec:	3304      	adds	r3, #4
 8002cee:	681b      	ldr	r3, [r3, #0]
 8002cf0:	60fb      	str	r3, [r7, #12]
  uint32_t DoepintReg = USBx_OUTEP(epnum)->DOEPINT;
 8002cf2:	683b      	ldr	r3, [r7, #0]
 8002cf4:	015a      	lsls	r2, r3, #5
 8002cf6:	693b      	ldr	r3, [r7, #16]
 8002cf8:	4413      	add	r3, r2
 8002cfa:	f503 6330 	add.w	r3, r3, #2816	@ 0xb00
 8002cfe:	689b      	ldr	r3, [r3, #8]
 8002d00:	60bb      	str	r3, [r7, #8]

  if ((gSNPSiD > USB_OTG_CORE_ID_300A) &&
 8002d02:	68fb      	ldr	r3, [r7, #12]
 8002d04:	4a15      	ldr	r2, [pc, #84]	@ (8002d5c <PCD_EP_OutSetupPacket_int+0x88>)
 8002d06:	4293      	cmp	r3, r2
 8002d08:	d90e      	bls.n	8002d28 <PCD_EP_OutSetupPacket_int+0x54>
      ((DoepintReg & USB_OTG_DOEPINT_STPKTRX) == USB_OTG_DOEPINT_STPKTRX))
 8002d0a:	68bb      	ldr	r3, [r7, #8]
 8002d0c:	f403 4300 	and.w	r3, r3, #32768	@ 0x8000
  if ((gSNPSiD > USB_OTG_CORE_ID_300A) &&
 8002d10:	2b00      	cmp	r3, #0
 8002d12:	d009      	beq.n	8002d28 <PCD_EP_OutSetupPacket_int+0x54>
  {
    CLEAR_OUT_EP_INTR(epnum, USB_OTG_DOEPINT_STPKTRX);
 8002d14:	683b      	ldr	r3, [r7, #0]
 8002d16:	015a      	lsls	r2, r3, #5
 8002d18:	693b      	ldr	r3, [r7, #16]
 8002d1a:	4413      	add	r3, r2
 8002d1c:	f503 6330 	add.w	r3, r3, #2816	@ 0xb00
 8002d20:	461a      	mov	r2, r3
 8002d22:	f44f 4300 	mov.w	r3, #32768	@ 0x8000
 8002d26:	6093      	str	r3, [r2, #8]

  /* Inform the upper layer that a setup packet is available */
#if (USE_HAL_PCD_REGISTER_CALLBACKS == 1U)
  hpcd->SetupStageCallback(hpcd);
#else
  HAL_PCD_SetupStageCallback(hpcd);
 8002d28:	6878      	ldr	r0, [r7, #4]
 8002d2a:	f006 fcc1 	bl	80096b0 <HAL_PCD_SetupStageCallback>
#endif /* USE_HAL_PCD_REGISTER_CALLBACKS */

  if ((gSNPSiD > USB_OTG_CORE_ID_300A) && (hpcd->Init.dma_enable == 1U))
 8002d2e:	68fb      	ldr	r3, [r7, #12]
 8002d30:	4a0a      	ldr	r2, [pc, #40]	@ (8002d5c <PCD_EP_OutSetupPacket_int+0x88>)
 8002d32:	4293      	cmp	r3, r2
 8002d34:	d90c      	bls.n	8002d50 <PCD_EP_OutSetupPacket_int+0x7c>
 8002d36:	687b      	ldr	r3, [r7, #4]
 8002d38:	799b      	ldrb	r3, [r3, #6]
 8002d3a:	2b01      	cmp	r3, #1
 8002d3c:	d108      	bne.n	8002d50 <PCD_EP_OutSetupPacket_int+0x7c>
  {
    (void)USB_EP0_OutStart(hpcd->Instance, 1U, (uint8_t *)hpcd->Setup);
 8002d3e:	687b      	ldr	r3, [r7, #4]
 8002d40:	6818      	ldr	r0, [r3, #0]
 8002d42:	687b      	ldr	r3, [r7, #4]
 8002d44:	f203 439c 	addw	r3, r3, #1180	@ 0x49c
 8002d48:	461a      	mov	r2, r3
 8002d4a:	2101      	movs	r1, #1
 8002d4c:	f004 f9ac 	bl	80070a8 <USB_EP0_OutStart>
  }

  return HAL_OK;
 8002d50:	2300      	movs	r3, #0
}
 8002d52:	4618      	mov	r0, r3
 8002d54:	3718      	adds	r7, #24
 8002d56:	46bd      	mov	sp, r7
 8002d58:	bd80      	pop	{r7, pc}
 8002d5a:	bf00      	nop
 8002d5c:	4f54300a 	.word	0x4f54300a

08002d60 <HAL_PCDEx_SetTxFiFo>:
  * @param  fifo The number of Tx fifo
  * @param  size Fifo size
  * @retval HAL status
  */
HAL_StatusTypeDef HAL_PCDEx_SetTxFiFo(PCD_HandleTypeDef *hpcd, uint8_t fifo, uint16_t size)
{
 8002d60:	b480      	push	{r7}
 8002d62:	b085      	sub	sp, #20
 8002d64:	af00      	add	r7, sp, #0
 8002d66:	6078      	str	r0, [r7, #4]
 8002d68:	460b      	mov	r3, r1
 8002d6a:	70fb      	strb	r3, [r7, #3]
 8002d6c:	4613      	mov	r3, r2
 8002d6e:	803b      	strh	r3, [r7, #0]
         --> Txn should be configured with the minimum space of 16 words
     The FIFO is used optimally when used TxFIFOs are allocated in the top
         of the FIFO.Ex: use EP1 and EP2 as IN instead of EP1 and EP3 as IN ones.
     When DMA is used 3n * FIFO locations should be reserved for internal DMA registers */

  Tx_Offset = hpcd->Instance->GRXFSIZ;
 8002d70:	687b      	ldr	r3, [r7, #4]
 8002d72:	681b      	ldr	r3, [r3, #0]
 8002d74:	6a5b      	ldr	r3, [r3, #36]	@ 0x24
 8002d76:	60bb      	str	r3, [r7, #8]

  if (fifo == 0U)
 8002d78:	78fb      	ldrb	r3, [r7, #3]
 8002d7a:	2b00      	cmp	r3, #0
 8002d7c:	d107      	bne.n	8002d8e <HAL_PCDEx_SetTxFiFo+0x2e>
  {
    hpcd->Instance->DIEPTXF0_HNPTXFSIZ = ((uint32_t)size << 16) | Tx_Offset;
 8002d7e:	883b      	ldrh	r3, [r7, #0]
 8002d80:	0419      	lsls	r1, r3, #16
 8002d82:	687b      	ldr	r3, [r7, #4]
 8002d84:	681b      	ldr	r3, [r3, #0]
 8002d86:	68ba      	ldr	r2, [r7, #8]
 8002d88:	430a      	orrs	r2, r1
 8002d8a:	629a      	str	r2, [r3, #40]	@ 0x28
 8002d8c:	e028      	b.n	8002de0 <HAL_PCDEx_SetTxFiFo+0x80>
  }
  else
  {
    Tx_Offset += (hpcd->Instance->DIEPTXF0_HNPTXFSIZ) >> 16;
 8002d8e:	687b      	ldr	r3, [r7, #4]
 8002d90:	681b      	ldr	r3, [r3, #0]
 8002d92:	6a9b      	ldr	r3, [r3, #40]	@ 0x28
 8002d94:	0c1b      	lsrs	r3, r3, #16
 8002d96:	68ba      	ldr	r2, [r7, #8]
 8002d98:	4413      	add	r3, r2
 8002d9a:	60bb      	str	r3, [r7, #8]
    for (i = 0U; i < (fifo - 1U); i++)
 8002d9c:	2300      	movs	r3, #0
 8002d9e:	73fb      	strb	r3, [r7, #15]
 8002da0:	e00d      	b.n	8002dbe <HAL_PCDEx_SetTxFiFo+0x5e>
    {
      Tx_Offset += (hpcd->Instance->DIEPTXF[i] >> 16);
 8002da2:	687b      	ldr	r3, [r7, #4]
 8002da4:	681a      	ldr	r2, [r3, #0]
 8002da6:	7bfb      	ldrb	r3, [r7, #15]
 8002da8:	3340      	adds	r3, #64	@ 0x40
 8002daa:	009b      	lsls	r3, r3, #2
 8002dac:	4413      	add	r3, r2
 8002dae:	685b      	ldr	r3, [r3, #4]
 8002db0:	0c1b      	lsrs	r3, r3, #16
 8002db2:	68ba      	ldr	r2, [r7, #8]
 8002db4:	4413      	add	r3, r2
 8002db6:	60bb      	str	r3, [r7, #8]
    for (i = 0U; i < (fifo - 1U); i++)
 8002db8:	7bfb      	ldrb	r3, [r7, #15]
 8002dba:	3301      	adds	r3, #1
 8002dbc:	73fb      	strb	r3, [r7, #15]
 8002dbe:	7bfa      	ldrb	r2, [r7, #15]
 8002dc0:	78fb      	ldrb	r3, [r7, #3]
 8002dc2:	3b01      	subs	r3, #1
 8002dc4:	429a      	cmp	r2, r3
 8002dc6:	d3ec      	bcc.n	8002da2 <HAL_PCDEx_SetTxFiFo+0x42>
    }

    /* Multiply Tx_Size by 2 to get higher performance */
    hpcd->Instance->DIEPTXF[fifo - 1U] = ((uint32_t)size << 16) | Tx_Offset;
 8002dc8:	883b      	ldrh	r3, [r7, #0]
 8002dca:	0418      	lsls	r0, r3, #16
 8002dcc:	687b      	ldr	r3, [r7, #4]
 8002dce:	6819      	ldr	r1, [r3, #0]
 8002dd0:	78fb      	ldrb	r3, [r7, #3]
 8002dd2:	3b01      	subs	r3, #1
 8002dd4:	68ba      	ldr	r2, [r7, #8]
 8002dd6:	4302      	orrs	r2, r0
 8002dd8:	3340      	adds	r3, #64	@ 0x40
 8002dda:	009b      	lsls	r3, r3, #2
 8002ddc:	440b      	add	r3, r1
 8002dde:	605a      	str	r2, [r3, #4]
  }

  return HAL_OK;
 8002de0:	2300      	movs	r3, #0
}
 8002de2:	4618      	mov	r0, r3
 8002de4:	3714      	adds	r7, #20
 8002de6:	46bd      	mov	sp, r7
 8002de8:	f85d 7b04 	ldr.w	r7, [sp], #4
 8002dec:	4770      	bx	lr

08002dee <HAL_PCDEx_SetRxFiFo>:
  * @param  hpcd PCD handle
  * @param  size Size of Rx fifo
  * @retval HAL status
  */
HAL_StatusTypeDef HAL_PCDEx_SetRxFiFo(PCD_HandleTypeDef *hpcd, uint16_t size)
{
 8002dee:	b480      	push	{r7}
 8002df0:	b083      	sub	sp, #12
 8002df2:	af00      	add	r7, sp, #0
 8002df4:	6078      	str	r0, [r7, #4]
 8002df6:	460b      	mov	r3, r1
 8002df8:	807b      	strh	r3, [r7, #2]
  hpcd->Instance->GRXFSIZ = size;
 8002dfa:	687b      	ldr	r3, [r7, #4]
 8002dfc:	681b      	ldr	r3, [r3, #0]
 8002dfe:	887a      	ldrh	r2, [r7, #2]
 8002e00:	625a      	str	r2, [r3, #36]	@ 0x24

  return HAL_OK;
 8002e02:	2300      	movs	r3, #0
}
 8002e04:	4618      	mov	r0, r3
 8002e06:	370c      	adds	r7, #12
 8002e08:	46bd      	mov	sp, r7
 8002e0a:	f85d 7b04 	ldr.w	r7, [sp], #4
 8002e0e:	4770      	bx	lr

08002e10 <HAL_PCDEx_ActivateLPM>:
  * @brief  Activate LPM feature.
  * @param  hpcd PCD handle
  * @retval HAL status
  */
HAL_StatusTypeDef HAL_PCDEx_ActivateLPM(PCD_HandleTypeDef *hpcd)
{
 8002e10:	b480      	push	{r7}
 8002e12:	b085      	sub	sp, #20
 8002e14:	af00      	add	r7, sp, #0
 8002e16:	6078      	str	r0, [r7, #4]
  USB_OTG_GlobalTypeDef *USBx = hpcd->Instance;
 8002e18:	687b      	ldr	r3, [r7, #4]
 8002e1a:	681b      	ldr	r3, [r3, #0]
 8002e1c:	60fb      	str	r3, [r7, #12]

  hpcd->lpm_active = 1U;
 8002e1e:	687b      	ldr	r3, [r7, #4]
 8002e20:	2201      	movs	r2, #1
 8002e22:	f8c3 24d8 	str.w	r2, [r3, #1240]	@ 0x4d8
  hpcd->LPM_State = LPM_L0;
 8002e26:	687b      	ldr	r3, [r7, #4]
 8002e28:	2200      	movs	r2, #0
 8002e2a:	f883 24cc 	strb.w	r2, [r3, #1228]	@ 0x4cc
  USBx->GINTMSK |= USB_OTG_GINTMSK_LPMINTM;
 8002e2e:	68fb      	ldr	r3, [r7, #12]
 8002e30:	699b      	ldr	r3, [r3, #24]
 8002e32:	f043 6200 	orr.w	r2, r3, #134217728	@ 0x8000000
 8002e36:	68fb      	ldr	r3, [r7, #12]
 8002e38:	619a      	str	r2, [r3, #24]
  USBx->GLPMCFG |= (USB_OTG_GLPMCFG_LPMEN | USB_OTG_GLPMCFG_LPMACK | USB_OTG_GLPMCFG_ENBESL);
 8002e3a:	68fb      	ldr	r3, [r7, #12]
 8002e3c:	6d5a      	ldr	r2, [r3, #84]	@ 0x54
 8002e3e:	4b05      	ldr	r3, [pc, #20]	@ (8002e54 <HAL_PCDEx_ActivateLPM+0x44>)
 8002e40:	4313      	orrs	r3, r2
 8002e42:	68fa      	ldr	r2, [r7, #12]
 8002e44:	6553      	str	r3, [r2, #84]	@ 0x54

  return HAL_OK;
 8002e46:	2300      	movs	r3, #0
}
 8002e48:	4618      	mov	r0, r3
 8002e4a:	3714      	adds	r7, #20
 8002e4c:	46bd      	mov	sp, r7
 8002e4e:	f85d 7b04 	ldr.w	r7, [sp], #4
 8002e52:	4770      	bx	lr
 8002e54:	10000003 	.word	0x10000003

08002e58 <HAL_PCDEx_LPM_Callback>:
  * @param  hpcd PCD handle
  * @param  msg LPM message
  * @retval HAL status
  */
__weak void HAL_PCDEx_LPM_Callback(PCD_HandleTypeDef *hpcd, PCD_LPM_MsgTypeDef msg)
{
 8002e58:	b480      	push	{r7}
 8002e5a:	b083      	sub	sp, #12
 8002e5c:	af00      	add	r7, sp, #0
 8002e5e:	6078      	str	r0, [r7, #4]
 8002e60:	460b      	mov	r3, r1
 8002e62:	70fb      	strb	r3, [r7, #3]
  UNUSED(msg);

  /* NOTE : This function should not be modified, when the callback is needed,
            the HAL_PCDEx_LPM_Callback could be implemented in the user file
   */
}
 8002e64:	bf00      	nop
 8002e66:	370c      	adds	r7, #12
 8002e68:	46bd      	mov	sp, r7
 8002e6a:	f85d 7b04 	ldr.w	r7, [sp], #4
 8002e6e:	4770      	bx	lr

08002e70 <HAL_PWREx_ConfigSupply>:
  *         process during startup.
  *         For more details, please refer to the power control chapter in the reference manual
  * @retval HAL status.
  */
HAL_StatusTypeDef HAL_PWREx_ConfigSupply (uint32_t SupplySource)
{
 8002e70:	b580      	push	{r7, lr}
 8002e72:	b084      	sub	sp, #16
 8002e74:	af00      	add	r7, sp, #0
 8002e76:	6078      	str	r0, [r7, #4]
  /* Check the parameters */
  assert_param (IS_PWR_SUPPLY (SupplySource));

  /* Check if supply source was configured */
#if defined (PWR_FLAG_SCUEN)
  if (__HAL_PWR_GET_FLAG (PWR_FLAG_SCUEN) == 0U)
 8002e78:	4b19      	ldr	r3, [pc, #100]	@ (8002ee0 <HAL_PWREx_ConfigSupply+0x70>)
 8002e7a:	68db      	ldr	r3, [r3, #12]
 8002e7c:	f003 0304 	and.w	r3, r3, #4
 8002e80:	2b04      	cmp	r3, #4
 8002e82:	d00a      	beq.n	8002e9a <HAL_PWREx_ConfigSupply+0x2a>
#else
  if ((PWR->CR3 & (PWR_CR3_SMPSEN | PWR_CR3_LDOEN | PWR_CR3_BYPASS)) != (PWR_CR3_SMPSEN | PWR_CR3_LDOEN))
#endif /* defined (PWR_FLAG_SCUEN) */
  {
    /* Check supply configuration */
    if ((PWR->CR3 & PWR_SUPPLY_CONFIG_MASK) != SupplySource)
 8002e84:	4b16      	ldr	r3, [pc, #88]	@ (8002ee0 <HAL_PWREx_ConfigSupply+0x70>)
 8002e86:	68db      	ldr	r3, [r3, #12]
 8002e88:	f003 0307 	and.w	r3, r3, #7
 8002e8c:	687a      	ldr	r2, [r7, #4]
 8002e8e:	429a      	cmp	r2, r3
 8002e90:	d001      	beq.n	8002e96 <HAL_PWREx_ConfigSupply+0x26>
    {
      /* Supply configuration update locked, can't apply a new supply config */
      return HAL_ERROR;
 8002e92:	2301      	movs	r3, #1
 8002e94:	e01f      	b.n	8002ed6 <HAL_PWREx_ConfigSupply+0x66>
    else
    {
      /* Supply configuration update locked, but new supply configuration
         matches with old supply configuration : nothing to do
      */
      return HAL_OK;
 8002e96:	2300      	movs	r3, #0
 8002e98:	e01d      	b.n	8002ed6 <HAL_PWREx_ConfigSupply+0x66>
    }
  }

  /* Set the power supply configuration */
  MODIFY_REG (PWR->CR3, PWR_SUPPLY_CONFIG_MASK, SupplySource);
 8002e9a:	4b11      	ldr	r3, [pc, #68]	@ (8002ee0 <HAL_PWREx_ConfigSupply+0x70>)
 8002e9c:	68db      	ldr	r3, [r3, #12]
 8002e9e:	f023 0207 	bic.w	r2, r3, #7
 8002ea2:	490f      	ldr	r1, [pc, #60]	@ (8002ee0 <HAL_PWREx_ConfigSupply+0x70>)
 8002ea4:	687b      	ldr	r3, [r7, #4]
 8002ea6:	4313      	orrs	r3, r2
 8002ea8:	60cb      	str	r3, [r1, #12]

  /* Get tick */
  tickstart = HAL_GetTick ();
 8002eaa:	f7fe f9a3 	bl	80011f4 <HAL_GetTick>
 8002eae:	60f8      	str	r0, [r7, #12]

  /* Wait till voltage level flag is set */
  while (__HAL_PWR_GET_FLAG (PWR_FLAG_ACTVOSRDY) == 0U)
 8002eb0:	e009      	b.n	8002ec6 <HAL_PWREx_ConfigSupply+0x56>
  {
    if ((HAL_GetTick () - tickstart) > PWR_FLAG_SETTING_DELAY)
 8002eb2:	f7fe f99f 	bl	80011f4 <HAL_GetTick>
 8002eb6:	4602      	mov	r2, r0
 8002eb8:	68fb      	ldr	r3, [r7, #12]
 8002eba:	1ad3      	subs	r3, r2, r3
 8002ebc:	f5b3 7f7a 	cmp.w	r3, #1000	@ 0x3e8
 8002ec0:	d901      	bls.n	8002ec6 <HAL_PWREx_ConfigSupply+0x56>
    {
      return HAL_ERROR;
 8002ec2:	2301      	movs	r3, #1
 8002ec4:	e007      	b.n	8002ed6 <HAL_PWREx_ConfigSupply+0x66>
  while (__HAL_PWR_GET_FLAG (PWR_FLAG_ACTVOSRDY) == 0U)
 8002ec6:	4b06      	ldr	r3, [pc, #24]	@ (8002ee0 <HAL_PWREx_ConfigSupply+0x70>)
 8002ec8:	685b      	ldr	r3, [r3, #4]
 8002eca:	f403 5300 	and.w	r3, r3, #8192	@ 0x2000
 8002ece:	f5b3 5f00 	cmp.w	r3, #8192	@ 0x2000
 8002ed2:	d1ee      	bne.n	8002eb2 <HAL_PWREx_ConfigSupply+0x42>
      }
    }
  }
#endif /* defined (SMPS) */

  return HAL_OK;
 8002ed4:	2300      	movs	r3, #0
}
 8002ed6:	4618      	mov	r0, r3
 8002ed8:	3710      	adds	r7, #16
 8002eda:	46bd      	mov	sp, r7
 8002edc:	bd80      	pop	{r7, pc}
 8002ede:	bf00      	nop
 8002ee0:	58024800 	.word	0x58024800

08002ee4 <HAL_PWREx_EnableUSBVoltageDetector>:
/**
  * @brief Enable the USB voltage level detector.
  * @retval None.
  */
void HAL_PWREx_EnableUSBVoltageDetector (void)
{
 8002ee4:	b480      	push	{r7}
 8002ee6:	af00      	add	r7, sp, #0
  /* Enable the USB voltage detector */
  SET_BIT (PWR->CR3, PWR_CR3_USB33DEN);
 8002ee8:	4b05      	ldr	r3, [pc, #20]	@ (8002f00 <HAL_PWREx_EnableUSBVoltageDetector+0x1c>)
 8002eea:	68db      	ldr	r3, [r3, #12]
 8002eec:	4a04      	ldr	r2, [pc, #16]	@ (8002f00 <HAL_PWREx_EnableUSBVoltageDetector+0x1c>)
 8002eee:	f043 7380 	orr.w	r3, r3, #16777216	@ 0x1000000
 8002ef2:	60d3      	str	r3, [r2, #12]
}
 8002ef4:	bf00      	nop
 8002ef6:	46bd      	mov	sp, r7
 8002ef8:	f85d 7b04 	ldr.w	r7, [sp], #4
 8002efc:	4770      	bx	lr
 8002efe:	bf00      	nop
 8002f00:	58024800 	.word	0x58024800

08002f04 <HAL_RCC_OscConfig>:
  *         supported by this function. User should request a transition to HSE Off
  *         first and then HSE On or HSE Bypass.
  * @retval HAL status
  */
__weak HAL_StatusTypeDef HAL_RCC_OscConfig(const RCC_OscInitTypeDef  *RCC_OscInitStruct)
{
 8002f04:	b580      	push	{r7, lr}
 8002f06:	b08c      	sub	sp, #48	@ 0x30
 8002f08:	af00      	add	r7, sp, #0
 8002f0a:	6078      	str	r0, [r7, #4]
  uint32_t tickstart;
  uint32_t temp1_pllckcfg, temp2_pllckcfg;

  /* Check Null pointer */
  if (RCC_OscInitStruct == NULL)
 8002f0c:	687b      	ldr	r3, [r7, #4]
 8002f0e:	2b00      	cmp	r3, #0
 8002f10:	d101      	bne.n	8002f16 <HAL_RCC_OscConfig+0x12>
  {
    return HAL_ERROR;
 8002f12:	2301      	movs	r3, #1
 8002f14:	e3c8      	b.n	80036a8 <HAL_RCC_OscConfig+0x7a4>
  }

  /* Check the parameters */
  assert_param(IS_RCC_OSCILLATORTYPE(RCC_OscInitStruct->OscillatorType));
  /*------------------------------- HSE Configuration ------------------------*/
  if (((RCC_OscInitStruct->OscillatorType) & RCC_OSCILLATORTYPE_HSE) == RCC_OSCILLATORTYPE_HSE)
 8002f16:	687b      	ldr	r3, [r7, #4]
 8002f18:	681b      	ldr	r3, [r3, #0]
 8002f1a:	f003 0301 	and.w	r3, r3, #1
 8002f1e:	2b00      	cmp	r3, #0
 8002f20:	f000 8087 	beq.w	8003032 <HAL_RCC_OscConfig+0x12e>
  {
    /* Check the parameters */
    assert_param(IS_RCC_HSE(RCC_OscInitStruct->HSEState));

    const uint32_t temp_sysclksrc = __HAL_RCC_GET_SYSCLK_SOURCE();
 8002f24:	4b88      	ldr	r3, [pc, #544]	@ (8003148 <HAL_RCC_OscConfig+0x244>)
 8002f26:	691b      	ldr	r3, [r3, #16]
 8002f28:	f003 0338 	and.w	r3, r3, #56	@ 0x38
 8002f2c:	62fb      	str	r3, [r7, #44]	@ 0x2c
    const uint32_t temp_pllckselr = RCC->PLLCKSELR;
 8002f2e:	4b86      	ldr	r3, [pc, #536]	@ (8003148 <HAL_RCC_OscConfig+0x244>)
 8002f30:	6a9b      	ldr	r3, [r3, #40]	@ 0x28
 8002f32:	62bb      	str	r3, [r7, #40]	@ 0x28
    /* When the HSE is used as system clock or clock source for PLL in these cases HSE will not disabled */
    if ((temp_sysclksrc == RCC_CFGR_SWS_HSE) || ((temp_sysclksrc == RCC_CFGR_SWS_PLL1) && ((temp_pllckselr & RCC_PLLCKSELR_PLLSRC) == RCC_PLLCKSELR_PLLSRC_HSE)))
 8002f34:	6afb      	ldr	r3, [r7, #44]	@ 0x2c
 8002f36:	2b10      	cmp	r3, #16
 8002f38:	d007      	beq.n	8002f4a <HAL_RCC_OscConfig+0x46>
 8002f3a:	6afb      	ldr	r3, [r7, #44]	@ 0x2c
 8002f3c:	2b18      	cmp	r3, #24
 8002f3e:	d110      	bne.n	8002f62 <HAL_RCC_OscConfig+0x5e>
 8002f40:	6abb      	ldr	r3, [r7, #40]	@ 0x28
 8002f42:	f003 0303 	and.w	r3, r3, #3
 8002f46:	2b02      	cmp	r3, #2
 8002f48:	d10b      	bne.n	8002f62 <HAL_RCC_OscConfig+0x5e>
    {
      if ((__HAL_RCC_GET_FLAG(RCC_FLAG_HSERDY) != 0U) && (RCC_OscInitStruct->HSEState == RCC_HSE_OFF))
 8002f4a:	4b7f      	ldr	r3, [pc, #508]	@ (8003148 <HAL_RCC_OscConfig+0x244>)
 8002f4c:	681b      	ldr	r3, [r3, #0]
 8002f4e:	f403 3300 	and.w	r3, r3, #131072	@ 0x20000
 8002f52:	2b00      	cmp	r3, #0
 8002f54:	d06c      	beq.n	8003030 <HAL_RCC_OscConfig+0x12c>
 8002f56:	687b      	ldr	r3, [r7, #4]
 8002f58:	685b      	ldr	r3, [r3, #4]
 8002f5a:	2b00      	cmp	r3, #0
 8002f5c:	d168      	bne.n	8003030 <HAL_RCC_OscConfig+0x12c>
      {
        return HAL_ERROR;
 8002f5e:	2301      	movs	r3, #1
 8002f60:	e3a2      	b.n	80036a8 <HAL_RCC_OscConfig+0x7a4>
      }
    }
    else
    {
      /* Set the new HSE configuration ---------------------------------------*/
      __HAL_RCC_HSE_CONFIG(RCC_OscInitStruct->HSEState);
 8002f62:	687b      	ldr	r3, [r7, #4]
 8002f64:	685b      	ldr	r3, [r3, #4]
 8002f66:	f5b3 3f80 	cmp.w	r3, #65536	@ 0x10000
 8002f6a:	d106      	bne.n	8002f7a <HAL_RCC_OscConfig+0x76>
 8002f6c:	4b76      	ldr	r3, [pc, #472]	@ (8003148 <HAL_RCC_OscConfig+0x244>)
 8002f6e:	681b      	ldr	r3, [r3, #0]
 8002f70:	4a75      	ldr	r2, [pc, #468]	@ (8003148 <HAL_RCC_OscConfig+0x244>)
 8002f72:	f443 3380 	orr.w	r3, r3, #65536	@ 0x10000
 8002f76:	6013      	str	r3, [r2, #0]
 8002f78:	e02e      	b.n	8002fd8 <HAL_RCC_OscConfig+0xd4>
 8002f7a:	687b      	ldr	r3, [r7, #4]
 8002f7c:	685b      	ldr	r3, [r3, #4]
 8002f7e:	2b00      	cmp	r3, #0
 8002f80:	d10c      	bne.n	8002f9c <HAL_RCC_OscConfig+0x98>
 8002f82:	4b71      	ldr	r3, [pc, #452]	@ (8003148 <HAL_RCC_OscConfig+0x244>)
 8002f84:	681b      	ldr	r3, [r3, #0]
 8002f86:	4a70      	ldr	r2, [pc, #448]	@ (8003148 <HAL_RCC_OscConfig+0x244>)
 8002f88:	f423 3380 	bic.w	r3, r3, #65536	@ 0x10000
 8002f8c:	6013      	str	r3, [r2, #0]
 8002f8e:	4b6e      	ldr	r3, [pc, #440]	@ (8003148 <HAL_RCC_OscConfig+0x244>)
 8002f90:	681b      	ldr	r3, [r3, #0]
 8002f92:	4a6d      	ldr	r2, [pc, #436]	@ (8003148 <HAL_RCC_OscConfig+0x244>)
 8002f94:	f423 2380 	bic.w	r3, r3, #262144	@ 0x40000
 8002f98:	6013      	str	r3, [r2, #0]
 8002f9a:	e01d      	b.n	8002fd8 <HAL_RCC_OscConfig+0xd4>
 8002f9c:	687b      	ldr	r3, [r7, #4]
 8002f9e:	685b      	ldr	r3, [r3, #4]
 8002fa0:	f5b3 2fa0 	cmp.w	r3, #327680	@ 0x50000
 8002fa4:	d10c      	bne.n	8002fc0 <HAL_RCC_OscConfig+0xbc>
 8002fa6:	4b68      	ldr	r3, [pc, #416]	@ (8003148 <HAL_RCC_OscConfig+0x244>)
 8002fa8:	681b      	ldr	r3, [r3, #0]
 8002faa:	4a67      	ldr	r2, [pc, #412]	@ (8003148 <HAL_RCC_OscConfig+0x244>)
 8002fac:	f443 2380 	orr.w	r3, r3, #262144	@ 0x40000
 8002fb0:	6013      	str	r3, [r2, #0]
 8002fb2:	4b65      	ldr	r3, [pc, #404]	@ (8003148 <HAL_RCC_OscConfig+0x244>)
 8002fb4:	681b      	ldr	r3, [r3, #0]
 8002fb6:	4a64      	ldr	r2, [pc, #400]	@ (8003148 <HAL_RCC_OscConfig+0x244>)
 8002fb8:	f443 3380 	orr.w	r3, r3, #65536	@ 0x10000
 8002fbc:	6013      	str	r3, [r2, #0]
 8002fbe:	e00b      	b.n	8002fd8 <HAL_RCC_OscConfig+0xd4>
 8002fc0:	4b61      	ldr	r3, [pc, #388]	@ (8003148 <HAL_RCC_OscConfig+0x244>)
 8002fc2:	681b      	ldr	r3, [r3, #0]
 8002fc4:	4a60      	ldr	r2, [pc, #384]	@ (8003148 <HAL_RCC_OscConfig+0x244>)
 8002fc6:	f423 3380 	bic.w	r3, r3, #65536	@ 0x10000
 8002fca:	6013      	str	r3, [r2, #0]
 8002fcc:	4b5e      	ldr	r3, [pc, #376]	@ (8003148 <HAL_RCC_OscConfig+0x244>)
 8002fce:	681b      	ldr	r3, [r3, #0]
 8002fd0:	4a5d      	ldr	r2, [pc, #372]	@ (8003148 <HAL_RCC_OscConfig+0x244>)
 8002fd2:	f423 2380 	bic.w	r3, r3, #262144	@ 0x40000
 8002fd6:	6013      	str	r3, [r2, #0]

      /* Check the HSE State */
      if (RCC_OscInitStruct->HSEState != RCC_HSE_OFF)
 8002fd8:	687b      	ldr	r3, [r7, #4]
 8002fda:	685b      	ldr	r3, [r3, #4]
 8002fdc:	2b00      	cmp	r3, #0
 8002fde:	d013      	beq.n	8003008 <HAL_RCC_OscConfig+0x104>
      {
        /* Get Start Tick*/
        tickstart = HAL_GetTick();
 8002fe0:	f7fe f908 	bl	80011f4 <HAL_GetTick>
 8002fe4:	6278      	str	r0, [r7, #36]	@ 0x24

        /* Wait till HSE is ready */
        while (__HAL_RCC_GET_FLAG(RCC_FLAG_HSERDY) == 0U)
 8002fe6:	e008      	b.n	8002ffa <HAL_RCC_OscConfig+0xf6>
        {
          if ((uint32_t)(HAL_GetTick() - tickstart) > HSE_TIMEOUT_VALUE)
 8002fe8:	f7fe f904 	bl	80011f4 <HAL_GetTick>
 8002fec:	4602      	mov	r2, r0
 8002fee:	6a7b      	ldr	r3, [r7, #36]	@ 0x24
 8002ff0:	1ad3      	subs	r3, r2, r3
 8002ff2:	2b64      	cmp	r3, #100	@ 0x64
 8002ff4:	d901      	bls.n	8002ffa <HAL_RCC_OscConfig+0xf6>
          {
            return HAL_TIMEOUT;
 8002ff6:	2303      	movs	r3, #3
 8002ff8:	e356      	b.n	80036a8 <HAL_RCC_OscConfig+0x7a4>
        while (__HAL_RCC_GET_FLAG(RCC_FLAG_HSERDY) == 0U)
 8002ffa:	4b53      	ldr	r3, [pc, #332]	@ (8003148 <HAL_RCC_OscConfig+0x244>)
 8002ffc:	681b      	ldr	r3, [r3, #0]
 8002ffe:	f403 3300 	and.w	r3, r3, #131072	@ 0x20000
 8003002:	2b00      	cmp	r3, #0
 8003004:	d0f0      	beq.n	8002fe8 <HAL_RCC_OscConfig+0xe4>
 8003006:	e014      	b.n	8003032 <HAL_RCC_OscConfig+0x12e>
        }
      }
      else
      {
        /* Get Start Tick*/
        tickstart = HAL_GetTick();
 8003008:	f7fe f8f4 	bl	80011f4 <HAL_GetTick>
 800300c:	6278      	str	r0, [r7, #36]	@ 0x24

        /* Wait till HSE is disabled */
        while (__HAL_RCC_GET_FLAG(RCC_FLAG_HSERDY) != 0U)
 800300e:	e008      	b.n	8003022 <HAL_RCC_OscConfig+0x11e>
        {
          if ((uint32_t)(HAL_GetTick() - tickstart) > HSE_TIMEOUT_VALUE)
 8003010:	f7fe f8f0 	bl	80011f4 <HAL_GetTick>
 8003014:	4602      	mov	r2, r0
 8003016:	6a7b      	ldr	r3, [r7, #36]	@ 0x24
 8003018:	1ad3      	subs	r3, r2, r3
 800301a:	2b64      	cmp	r3, #100	@ 0x64
 800301c:	d901      	bls.n	8003022 <HAL_RCC_OscConfig+0x11e>
          {
            return HAL_TIMEOUT;
 800301e:	2303      	movs	r3, #3
 8003020:	e342      	b.n	80036a8 <HAL_RCC_OscConfig+0x7a4>
        while (__HAL_RCC_GET_FLAG(RCC_FLAG_HSERDY) != 0U)
 8003022:	4b49      	ldr	r3, [pc, #292]	@ (8003148 <HAL_RCC_OscConfig+0x244>)
 8003024:	681b      	ldr	r3, [r3, #0]
 8003026:	f403 3300 	and.w	r3, r3, #131072	@ 0x20000
 800302a:	2b00      	cmp	r3, #0
 800302c:	d1f0      	bne.n	8003010 <HAL_RCC_OscConfig+0x10c>
 800302e:	e000      	b.n	8003032 <HAL_RCC_OscConfig+0x12e>
      if ((__HAL_RCC_GET_FLAG(RCC_FLAG_HSERDY) != 0U) && (RCC_OscInitStruct->HSEState == RCC_HSE_OFF))
 8003030:	bf00      	nop
        }
      }
    }
  }
  /*----------------------------- HSI Configuration --------------------------*/
  if (((RCC_OscInitStruct->OscillatorType) & RCC_OSCILLATORTYPE_HSI) == RCC_OSCILLATORTYPE_HSI)
 8003032:	687b      	ldr	r3, [r7, #4]
 8003034:	681b      	ldr	r3, [r3, #0]
 8003036:	f003 0302 	and.w	r3, r3, #2
 800303a:	2b00      	cmp	r3, #0
 800303c:	f000 808c 	beq.w	8003158 <HAL_RCC_OscConfig+0x254>
    /* Check the parameters */
    assert_param(IS_RCC_HSI(RCC_OscInitStruct->HSIState));
    assert_param(IS_RCC_HSICALIBRATION_VALUE(RCC_OscInitStruct->HSICalibrationValue));

    /* When the HSI is used as system clock it will not be disabled */
    const uint32_t temp_sysclksrc = __HAL_RCC_GET_SYSCLK_SOURCE();
 8003040:	4b41      	ldr	r3, [pc, #260]	@ (8003148 <HAL_RCC_OscConfig+0x244>)
 8003042:	691b      	ldr	r3, [r3, #16]
 8003044:	f003 0338 	and.w	r3, r3, #56	@ 0x38
 8003048:	623b      	str	r3, [r7, #32]
    const uint32_t temp_pllckselr = RCC->PLLCKSELR;
 800304a:	4b3f      	ldr	r3, [pc, #252]	@ (8003148 <HAL_RCC_OscConfig+0x244>)
 800304c:	6a9b      	ldr	r3, [r3, #40]	@ 0x28
 800304e:	61fb      	str	r3, [r7, #28]
    if ((temp_sysclksrc == RCC_CFGR_SWS_HSI) || ((temp_sysclksrc == RCC_CFGR_SWS_PLL1) && ((temp_pllckselr & RCC_PLLCKSELR_PLLSRC) == RCC_PLLCKSELR_PLLSRC_HSI)))
 8003050:	6a3b      	ldr	r3, [r7, #32]
 8003052:	2b00      	cmp	r3, #0
 8003054:	d007      	beq.n	8003066 <HAL_RCC_OscConfig+0x162>
 8003056:	6a3b      	ldr	r3, [r7, #32]
 8003058:	2b18      	cmp	r3, #24
 800305a:	d137      	bne.n	80030cc <HAL_RCC_OscConfig+0x1c8>
 800305c:	69fb      	ldr	r3, [r7, #28]
 800305e:	f003 0303 	and.w	r3, r3, #3
 8003062:	2b00      	cmp	r3, #0
 8003064:	d132      	bne.n	80030cc <HAL_RCC_OscConfig+0x1c8>
    {
      /* When HSI is used as system clock it will not be disabled */
      if ((__HAL_RCC_GET_FLAG(RCC_FLAG_HSIRDY) != 0U) && (RCC_OscInitStruct->HSIState == RCC_HSI_OFF))
 8003066:	4b38      	ldr	r3, [pc, #224]	@ (8003148 <HAL_RCC_OscConfig+0x244>)
 8003068:	681b      	ldr	r3, [r3, #0]
 800306a:	f003 0304 	and.w	r3, r3, #4
 800306e:	2b00      	cmp	r3, #0
 8003070:	d005      	beq.n	800307e <HAL_RCC_OscConfig+0x17a>
 8003072:	687b      	ldr	r3, [r7, #4]
 8003074:	68db      	ldr	r3, [r3, #12]
 8003076:	2b00      	cmp	r3, #0
 8003078:	d101      	bne.n	800307e <HAL_RCC_OscConfig+0x17a>
      {
        return HAL_ERROR;
 800307a:	2301      	movs	r3, #1
 800307c:	e314      	b.n	80036a8 <HAL_RCC_OscConfig+0x7a4>
      }
      /* Otherwise, only HSI division and calibration are allowed */
      else
      {
        /* Enable the Internal High Speed oscillator (HSI, HSIDIV2, HSIDIV4, or HSIDIV8) */
        __HAL_RCC_HSI_CONFIG(RCC_OscInitStruct->HSIState);
 800307e:	4b32      	ldr	r3, [pc, #200]	@ (8003148 <HAL_RCC_OscConfig+0x244>)
 8003080:	681b      	ldr	r3, [r3, #0]
 8003082:	f023 0219 	bic.w	r2, r3, #25
 8003086:	687b      	ldr	r3, [r7, #4]
 8003088:	68db      	ldr	r3, [r3, #12]
 800308a:	492f      	ldr	r1, [pc, #188]	@ (8003148 <HAL_RCC_OscConfig+0x244>)
 800308c:	4313      	orrs	r3, r2
 800308e:	600b      	str	r3, [r1, #0]

        /* Get Start Tick*/
        tickstart = HAL_GetTick();
 8003090:	f7fe f8b0 	bl	80011f4 <HAL_GetTick>
 8003094:	6278      	str	r0, [r7, #36]	@ 0x24

        /* Wait till HSI is ready */
        while (__HAL_RCC_GET_FLAG(RCC_FLAG_HSIRDY) == 0U)
 8003096:	e008      	b.n	80030aa <HAL_RCC_OscConfig+0x1a6>
        {
          if ((uint32_t)(HAL_GetTick() - tickstart) > HSI_TIMEOUT_VALUE)
 8003098:	f7fe f8ac 	bl	80011f4 <HAL_GetTick>
 800309c:	4602      	mov	r2, r0
 800309e:	6a7b      	ldr	r3, [r7, #36]	@ 0x24
 80030a0:	1ad3      	subs	r3, r2, r3
 80030a2:	2b02      	cmp	r3, #2
 80030a4:	d901      	bls.n	80030aa <HAL_RCC_OscConfig+0x1a6>
          {
            return HAL_TIMEOUT;
 80030a6:	2303      	movs	r3, #3
 80030a8:	e2fe      	b.n	80036a8 <HAL_RCC_OscConfig+0x7a4>
        while (__HAL_RCC_GET_FLAG(RCC_FLAG_HSIRDY) == 0U)
 80030aa:	4b27      	ldr	r3, [pc, #156]	@ (8003148 <HAL_RCC_OscConfig+0x244>)
 80030ac:	681b      	ldr	r3, [r3, #0]
 80030ae:	f003 0304 	and.w	r3, r3, #4
 80030b2:	2b00      	cmp	r3, #0
 80030b4:	d0f0      	beq.n	8003098 <HAL_RCC_OscConfig+0x194>
          }
        }
        /* Adjusts the Internal High Speed oscillator (HSI) calibration value.*/
        __HAL_RCC_HSI_CALIBRATIONVALUE_ADJUST(RCC_OscInitStruct->HSICalibrationValue);
 80030b6:	4b24      	ldr	r3, [pc, #144]	@ (8003148 <HAL_RCC_OscConfig+0x244>)
 80030b8:	685b      	ldr	r3, [r3, #4]
 80030ba:	f023 42fe 	bic.w	r2, r3, #2130706432	@ 0x7f000000
 80030be:	687b      	ldr	r3, [r7, #4]
 80030c0:	691b      	ldr	r3, [r3, #16]
 80030c2:	061b      	lsls	r3, r3, #24
 80030c4:	4920      	ldr	r1, [pc, #128]	@ (8003148 <HAL_RCC_OscConfig+0x244>)
 80030c6:	4313      	orrs	r3, r2
 80030c8:	604b      	str	r3, [r1, #4]
      if ((__HAL_RCC_GET_FLAG(RCC_FLAG_HSIRDY) != 0U) && (RCC_OscInitStruct->HSIState == RCC_HSI_OFF))
 80030ca:	e045      	b.n	8003158 <HAL_RCC_OscConfig+0x254>
    }

    else
    {
      /* Check the HSI State */
      if ((RCC_OscInitStruct->HSIState) != RCC_HSI_OFF)
 80030cc:	687b      	ldr	r3, [r7, #4]
 80030ce:	68db      	ldr	r3, [r3, #12]
 80030d0:	2b00      	cmp	r3, #0
 80030d2:	d026      	beq.n	8003122 <HAL_RCC_OscConfig+0x21e>
      {
        /* Enable the Internal High Speed oscillator (HSI, HSIDIV2,HSIDIV4, or HSIDIV8) */
        __HAL_RCC_HSI_CONFIG(RCC_OscInitStruct->HSIState);
 80030d4:	4b1c      	ldr	r3, [pc, #112]	@ (8003148 <HAL_RCC_OscConfig+0x244>)
 80030d6:	681b      	ldr	r3, [r3, #0]
 80030d8:	f023 0219 	bic.w	r2, r3, #25
 80030dc:	687b      	ldr	r3, [r7, #4]
 80030de:	68db      	ldr	r3, [r3, #12]
 80030e0:	4919      	ldr	r1, [pc, #100]	@ (8003148 <HAL_RCC_OscConfig+0x244>)
 80030e2:	4313      	orrs	r3, r2
 80030e4:	600b      	str	r3, [r1, #0]

        /* Get Start Tick*/
        tickstart = HAL_GetTick();
 80030e6:	f7fe f885 	bl	80011f4 <HAL_GetTick>
 80030ea:	6278      	str	r0, [r7, #36]	@ 0x24

        /* Wait till HSI is ready */
        while (__HAL_RCC_GET_FLAG(RCC_FLAG_HSIRDY) == 0U)
 80030ec:	e008      	b.n	8003100 <HAL_RCC_OscConfig+0x1fc>
        {
          if ((HAL_GetTick() - tickstart) > HSI_TIMEOUT_VALUE)
 80030ee:	f7fe f881 	bl	80011f4 <HAL_GetTick>
 80030f2:	4602      	mov	r2, r0
 80030f4:	6a7b      	ldr	r3, [r7, #36]	@ 0x24
 80030f6:	1ad3      	subs	r3, r2, r3
 80030f8:	2b02      	cmp	r3, #2
 80030fa:	d901      	bls.n	8003100 <HAL_RCC_OscConfig+0x1fc>
          {
            return HAL_TIMEOUT;
 80030fc:	2303      	movs	r3, #3
 80030fe:	e2d3      	b.n	80036a8 <HAL_RCC_OscConfig+0x7a4>
        while (__HAL_RCC_GET_FLAG(RCC_FLAG_HSIRDY) == 0U)
 8003100:	4b11      	ldr	r3, [pc, #68]	@ (8003148 <HAL_RCC_OscConfig+0x244>)
 8003102:	681b      	ldr	r3, [r3, #0]
 8003104:	f003 0304 	and.w	r3, r3, #4
 8003108:	2b00      	cmp	r3, #0
 800310a:	d0f0      	beq.n	80030ee <HAL_RCC_OscConfig+0x1ea>
          }
        }

        /* Adjusts the Internal High Speed oscillator (HSI) calibration value.*/
        __HAL_RCC_HSI_CALIBRATIONVALUE_ADJUST(RCC_OscInitStruct->HSICalibrationValue);
 800310c:	4b0e      	ldr	r3, [pc, #56]	@ (8003148 <HAL_RCC_OscConfig+0x244>)
 800310e:	685b      	ldr	r3, [r3, #4]
 8003110:	f023 42fe 	bic.w	r2, r3, #2130706432	@ 0x7f000000
 8003114:	687b      	ldr	r3, [r7, #4]
 8003116:	691b      	ldr	r3, [r3, #16]
 8003118:	061b      	lsls	r3, r3, #24
 800311a:	490b      	ldr	r1, [pc, #44]	@ (8003148 <HAL_RCC_OscConfig+0x244>)
 800311c:	4313      	orrs	r3, r2
 800311e:	604b      	str	r3, [r1, #4]
 8003120:	e01a      	b.n	8003158 <HAL_RCC_OscConfig+0x254>
      }
      else
      {
        /* Disable the Internal High Speed oscillator (HSI). */
        __HAL_RCC_HSI_DISABLE();
 8003122:	4b09      	ldr	r3, [pc, #36]	@ (8003148 <HAL_RCC_OscConfig+0x244>)
 8003124:	681b      	ldr	r3, [r3, #0]
 8003126:	4a08      	ldr	r2, [pc, #32]	@ (8003148 <HAL_RCC_OscConfig+0x244>)
 8003128:	f023 0301 	bic.w	r3, r3, #1
 800312c:	6013      	str	r3, [r2, #0]

        /* Get Start Tick*/
        tickstart = HAL_GetTick();
 800312e:	f7fe f861 	bl	80011f4 <HAL_GetTick>
 8003132:	6278      	str	r0, [r7, #36]	@ 0x24

        /* Wait till HSI is disabled */
        while (__HAL_RCC_GET_FLAG(RCC_FLAG_HSIRDY) != 0U)
 8003134:	e00a      	b.n	800314c <HAL_RCC_OscConfig+0x248>
        {
          if ((HAL_GetTick() - tickstart) > HSI_TIMEOUT_VALUE)
 8003136:	f7fe f85d 	bl	80011f4 <HAL_GetTick>
 800313a:	4602      	mov	r2, r0
 800313c:	6a7b      	ldr	r3, [r7, #36]	@ 0x24
 800313e:	1ad3      	subs	r3, r2, r3
 8003140:	2b02      	cmp	r3, #2
 8003142:	d903      	bls.n	800314c <HAL_RCC_OscConfig+0x248>
          {
            return HAL_TIMEOUT;
 8003144:	2303      	movs	r3, #3
 8003146:	e2af      	b.n	80036a8 <HAL_RCC_OscConfig+0x7a4>
 8003148:	58024400 	.word	0x58024400
        while (__HAL_RCC_GET_FLAG(RCC_FLAG_HSIRDY) != 0U)
 800314c:	4b96      	ldr	r3, [pc, #600]	@ (80033a8 <HAL_RCC_OscConfig+0x4a4>)
 800314e:	681b      	ldr	r3, [r3, #0]
 8003150:	f003 0304 	and.w	r3, r3, #4
 8003154:	2b00      	cmp	r3, #0
 8003156:	d1ee      	bne.n	8003136 <HAL_RCC_OscConfig+0x232>
        }
      }
    }
  }
  /*----------------------------- CSI Configuration --------------------------*/
  if (((RCC_OscInitStruct->OscillatorType) & RCC_OSCILLATORTYPE_CSI) == RCC_OSCILLATORTYPE_CSI)
 8003158:	687b      	ldr	r3, [r7, #4]
 800315a:	681b      	ldr	r3, [r3, #0]
 800315c:	f003 0310 	and.w	r3, r3, #16
 8003160:	2b00      	cmp	r3, #0
 8003162:	d06a      	beq.n	800323a <HAL_RCC_OscConfig+0x336>
    /* Check the parameters */
    assert_param(IS_RCC_CSI(RCC_OscInitStruct->CSIState));
    assert_param(IS_RCC_CSICALIBRATION_VALUE(RCC_OscInitStruct->CSICalibrationValue));

    /* When the CSI is used as system clock it will not disabled */
    const uint32_t temp_sysclksrc = __HAL_RCC_GET_SYSCLK_SOURCE();
 8003164:	4b90      	ldr	r3, [pc, #576]	@ (80033a8 <HAL_RCC_OscConfig+0x4a4>)
 8003166:	691b      	ldr	r3, [r3, #16]
 8003168:	f003 0338 	and.w	r3, r3, #56	@ 0x38
 800316c:	61bb      	str	r3, [r7, #24]
    const uint32_t temp_pllckselr = RCC->PLLCKSELR;
 800316e:	4b8e      	ldr	r3, [pc, #568]	@ (80033a8 <HAL_RCC_OscConfig+0x4a4>)
 8003170:	6a9b      	ldr	r3, [r3, #40]	@ 0x28
 8003172:	617b      	str	r3, [r7, #20]
    if ((temp_sysclksrc == RCC_CFGR_SWS_CSI) || ((temp_sysclksrc == RCC_CFGR_SWS_PLL1) && ((temp_pllckselr & RCC_PLLCKSELR_PLLSRC) == RCC_PLLCKSELR_PLLSRC_CSI)))
 8003174:	69bb      	ldr	r3, [r7, #24]
 8003176:	2b08      	cmp	r3, #8
 8003178:	d007      	beq.n	800318a <HAL_RCC_OscConfig+0x286>
 800317a:	69bb      	ldr	r3, [r7, #24]
 800317c:	2b18      	cmp	r3, #24
 800317e:	d11b      	bne.n	80031b8 <HAL_RCC_OscConfig+0x2b4>
 8003180:	697b      	ldr	r3, [r7, #20]
 8003182:	f003 0303 	and.w	r3, r3, #3
 8003186:	2b01      	cmp	r3, #1
 8003188:	d116      	bne.n	80031b8 <HAL_RCC_OscConfig+0x2b4>
    {
      /* When CSI is used as system clock it will not disabled */
      if ((__HAL_RCC_GET_FLAG(RCC_FLAG_CSIRDY) != 0U) && (RCC_OscInitStruct->CSIState != RCC_CSI_ON))
 800318a:	4b87      	ldr	r3, [pc, #540]	@ (80033a8 <HAL_RCC_OscConfig+0x4a4>)
 800318c:	681b      	ldr	r3, [r3, #0]
 800318e:	f403 7380 	and.w	r3, r3, #256	@ 0x100
 8003192:	2b00      	cmp	r3, #0
 8003194:	d005      	beq.n	80031a2 <HAL_RCC_OscConfig+0x29e>
 8003196:	687b      	ldr	r3, [r7, #4]
 8003198:	69db      	ldr	r3, [r3, #28]
 800319a:	2b80      	cmp	r3, #128	@ 0x80
 800319c:	d001      	beq.n	80031a2 <HAL_RCC_OscConfig+0x29e>
      {
        return HAL_ERROR;
 800319e:	2301      	movs	r3, #1
 80031a0:	e282      	b.n	80036a8 <HAL_RCC_OscConfig+0x7a4>
      }
      /* Otherwise, just the calibration is allowed */
      else
      {
        /* Adjusts the Internal High Speed oscillator (CSI) calibration value.*/
        __HAL_RCC_CSI_CALIBRATIONVALUE_ADJUST(RCC_OscInitStruct->CSICalibrationValue);
 80031a2:	4b81      	ldr	r3, [pc, #516]	@ (80033a8 <HAL_RCC_OscConfig+0x4a4>)
 80031a4:	68db      	ldr	r3, [r3, #12]
 80031a6:	f023 527c 	bic.w	r2, r3, #1056964608	@ 0x3f000000
 80031aa:	687b      	ldr	r3, [r7, #4]
 80031ac:	6a1b      	ldr	r3, [r3, #32]
 80031ae:	061b      	lsls	r3, r3, #24
 80031b0:	497d      	ldr	r1, [pc, #500]	@ (80033a8 <HAL_RCC_OscConfig+0x4a4>)
 80031b2:	4313      	orrs	r3, r2
 80031b4:	60cb      	str	r3, [r1, #12]
      if ((__HAL_RCC_GET_FLAG(RCC_FLAG_CSIRDY) != 0U) && (RCC_OscInitStruct->CSIState != RCC_CSI_ON))
 80031b6:	e040      	b.n	800323a <HAL_RCC_OscConfig+0x336>
      }
    }
    else
    {
      /* Check the CSI State */
      if ((RCC_OscInitStruct->CSIState) != RCC_CSI_OFF)
 80031b8:	687b      	ldr	r3, [r7, #4]
 80031ba:	69db      	ldr	r3, [r3, #28]
 80031bc:	2b00      	cmp	r3, #0
 80031be:	d023      	beq.n	8003208 <HAL_RCC_OscConfig+0x304>
      {
        /* Enable the Internal High Speed oscillator (CSI). */
        __HAL_RCC_CSI_ENABLE();
 80031c0:	4b79      	ldr	r3, [pc, #484]	@ (80033a8 <HAL_RCC_OscConfig+0x4a4>)
 80031c2:	681b      	ldr	r3, [r3, #0]
 80031c4:	4a78      	ldr	r2, [pc, #480]	@ (80033a8 <HAL_RCC_OscConfig+0x4a4>)
 80031c6:	f043 0380 	orr.w	r3, r3, #128	@ 0x80
 80031ca:	6013      	str	r3, [r2, #0]

        /* Get Start Tick*/
        tickstart = HAL_GetTick();
 80031cc:	f7fe f812 	bl	80011f4 <HAL_GetTick>
 80031d0:	6278      	str	r0, [r7, #36]	@ 0x24

        /* Wait till CSI is ready */
        while (__HAL_RCC_GET_FLAG(RCC_FLAG_CSIRDY) == 0U)
 80031d2:	e008      	b.n	80031e6 <HAL_RCC_OscConfig+0x2e2>
        {
          if ((HAL_GetTick() - tickstart) > CSI_TIMEOUT_VALUE)
 80031d4:	f7fe f80e 	bl	80011f4 <HAL_GetTick>
 80031d8:	4602      	mov	r2, r0
 80031da:	6a7b      	ldr	r3, [r7, #36]	@ 0x24
 80031dc:	1ad3      	subs	r3, r2, r3
 80031de:	2b02      	cmp	r3, #2
 80031e0:	d901      	bls.n	80031e6 <HAL_RCC_OscConfig+0x2e2>
          {
            return HAL_TIMEOUT;
 80031e2:	2303      	movs	r3, #3
 80031e4:	e260      	b.n	80036a8 <HAL_RCC_OscConfig+0x7a4>
        while (__HAL_RCC_GET_FLAG(RCC_FLAG_CSIRDY) == 0U)
 80031e6:	4b70      	ldr	r3, [pc, #448]	@ (80033a8 <HAL_RCC_OscConfig+0x4a4>)
 80031e8:	681b      	ldr	r3, [r3, #0]
 80031ea:	f403 7380 	and.w	r3, r3, #256	@ 0x100
 80031ee:	2b00      	cmp	r3, #0
 80031f0:	d0f0      	beq.n	80031d4 <HAL_RCC_OscConfig+0x2d0>
          }
        }

        /* Adjusts the Internal High Speed oscillator (CSI) calibration value.*/
        __HAL_RCC_CSI_CALIBRATIONVALUE_ADJUST(RCC_OscInitStruct->CSICalibrationValue);
 80031f2:	4b6d      	ldr	r3, [pc, #436]	@ (80033a8 <HAL_RCC_OscConfig+0x4a4>)
 80031f4:	68db      	ldr	r3, [r3, #12]
 80031f6:	f023 527c 	bic.w	r2, r3, #1056964608	@ 0x3f000000
 80031fa:	687b      	ldr	r3, [r7, #4]
 80031fc:	6a1b      	ldr	r3, [r3, #32]
 80031fe:	061b      	lsls	r3, r3, #24
 8003200:	4969      	ldr	r1, [pc, #420]	@ (80033a8 <HAL_RCC_OscConfig+0x4a4>)
 8003202:	4313      	orrs	r3, r2
 8003204:	60cb      	str	r3, [r1, #12]
 8003206:	e018      	b.n	800323a <HAL_RCC_OscConfig+0x336>
      }
      else
      {
        /* Disable the Internal High Speed oscillator (CSI). */
        __HAL_RCC_CSI_DISABLE();
 8003208:	4b67      	ldr	r3, [pc, #412]	@ (80033a8 <HAL_RCC_OscConfig+0x4a4>)
 800320a:	681b      	ldr	r3, [r3, #0]
 800320c:	4a66      	ldr	r2, [pc, #408]	@ (80033a8 <HAL_RCC_OscConfig+0x4a4>)
 800320e:	f023 0380 	bic.w	r3, r3, #128	@ 0x80
 8003212:	6013      	str	r3, [r2, #0]

        /* Get Start Tick*/
        tickstart = HAL_GetTick();
 8003214:	f7fd ffee 	bl	80011f4 <HAL_GetTick>
 8003218:	6278      	str	r0, [r7, #36]	@ 0x24

        /* Wait till CSI is disabled */
        while (__HAL_RCC_GET_FLAG(RCC_FLAG_CSIRDY) != 0U)
 800321a:	e008      	b.n	800322e <HAL_RCC_OscConfig+0x32a>
        {
          if ((HAL_GetTick() - tickstart) > CSI_TIMEOUT_VALUE)
 800321c:	f7fd ffea 	bl	80011f4 <HAL_GetTick>
 8003220:	4602      	mov	r2, r0
 8003222:	6a7b      	ldr	r3, [r7, #36]	@ 0x24
 8003224:	1ad3      	subs	r3, r2, r3
 8003226:	2b02      	cmp	r3, #2
 8003228:	d901      	bls.n	800322e <HAL_RCC_OscConfig+0x32a>
          {
            return HAL_TIMEOUT;
 800322a:	2303      	movs	r3, #3
 800322c:	e23c      	b.n	80036a8 <HAL_RCC_OscConfig+0x7a4>
        while (__HAL_RCC_GET_FLAG(RCC_FLAG_CSIRDY) != 0U)
 800322e:	4b5e      	ldr	r3, [pc, #376]	@ (80033a8 <HAL_RCC_OscConfig+0x4a4>)
 8003230:	681b      	ldr	r3, [r3, #0]
 8003232:	f403 7380 	and.w	r3, r3, #256	@ 0x100
 8003236:	2b00      	cmp	r3, #0
 8003238:	d1f0      	bne.n	800321c <HAL_RCC_OscConfig+0x318>
        }
      }
    }
  }
  /*------------------------------ LSI Configuration -------------------------*/
  if (((RCC_OscInitStruct->OscillatorType) & RCC_OSCILLATORTYPE_LSI) == RCC_OSCILLATORTYPE_LSI)
 800323a:	687b      	ldr	r3, [r7, #4]
 800323c:	681b      	ldr	r3, [r3, #0]
 800323e:	f003 0308 	and.w	r3, r3, #8
 8003242:	2b00      	cmp	r3, #0
 8003244:	d036      	beq.n	80032b4 <HAL_RCC_OscConfig+0x3b0>
  {
    /* Check the parameters */
    assert_param(IS_RCC_LSI(RCC_OscInitStruct->LSIState));

    /* Check the LSI State */
    if ((RCC_OscInitStruct->LSIState) != RCC_LSI_OFF)
 8003246:	687b      	ldr	r3, [r7, #4]
 8003248:	695b      	ldr	r3, [r3, #20]
 800324a:	2b00      	cmp	r3, #0
 800324c:	d019      	beq.n	8003282 <HAL_RCC_OscConfig+0x37e>
    {
      /* Enable the Internal Low Speed oscillator (LSI). */
      __HAL_RCC_LSI_ENABLE();
 800324e:	4b56      	ldr	r3, [pc, #344]	@ (80033a8 <HAL_RCC_OscConfig+0x4a4>)
 8003250:	6f5b      	ldr	r3, [r3, #116]	@ 0x74
 8003252:	4a55      	ldr	r2, [pc, #340]	@ (80033a8 <HAL_RCC_OscConfig+0x4a4>)
 8003254:	f043 0301 	orr.w	r3, r3, #1
 8003258:	6753      	str	r3, [r2, #116]	@ 0x74

      /* Get Start Tick*/
      tickstart = HAL_GetTick();
 800325a:	f7fd ffcb 	bl	80011f4 <HAL_GetTick>
 800325e:	6278      	str	r0, [r7, #36]	@ 0x24

      /* Wait till LSI is ready */
      while (__HAL_RCC_GET_FLAG(RCC_FLAG_LSIRDY) == 0U)
 8003260:	e008      	b.n	8003274 <HAL_RCC_OscConfig+0x370>
      {
        if ((HAL_GetTick() - tickstart) > LSI_TIMEOUT_VALUE)
 8003262:	f7fd ffc7 	bl	80011f4 <HAL_GetTick>
 8003266:	4602      	mov	r2, r0
 8003268:	6a7b      	ldr	r3, [r7, #36]	@ 0x24
 800326a:	1ad3      	subs	r3, r2, r3
 800326c:	2b02      	cmp	r3, #2
 800326e:	d901      	bls.n	8003274 <HAL_RCC_OscConfig+0x370>
        {
          return HAL_TIMEOUT;
 8003270:	2303      	movs	r3, #3
 8003272:	e219      	b.n	80036a8 <HAL_RCC_OscConfig+0x7a4>
      while (__HAL_RCC_GET_FLAG(RCC_FLAG_LSIRDY) == 0U)
 8003274:	4b4c      	ldr	r3, [pc, #304]	@ (80033a8 <HAL_RCC_OscConfig+0x4a4>)
 8003276:	6f5b      	ldr	r3, [r3, #116]	@ 0x74
 8003278:	f003 0302 	and.w	r3, r3, #2
 800327c:	2b00      	cmp	r3, #0
 800327e:	d0f0      	beq.n	8003262 <HAL_RCC_OscConfig+0x35e>
 8003280:	e018      	b.n	80032b4 <HAL_RCC_OscConfig+0x3b0>
      }
    }
    else
    {
      /* Disable the Internal Low Speed oscillator (LSI). */
      __HAL_RCC_LSI_DISABLE();
 8003282:	4b49      	ldr	r3, [pc, #292]	@ (80033a8 <HAL_RCC_OscConfig+0x4a4>)
 8003284:	6f5b      	ldr	r3, [r3, #116]	@ 0x74
 8003286:	4a48      	ldr	r2, [pc, #288]	@ (80033a8 <HAL_RCC_OscConfig+0x4a4>)
 8003288:	f023 0301 	bic.w	r3, r3, #1
 800328c:	6753      	str	r3, [r2, #116]	@ 0x74

      /* Get Start Tick*/
      tickstart = HAL_GetTick();
 800328e:	f7fd ffb1 	bl	80011f4 <HAL_GetTick>
 8003292:	6278      	str	r0, [r7, #36]	@ 0x24

      /* Wait till LSI is ready */
      while (__HAL_RCC_GET_FLAG(RCC_FLAG_LSIRDY) != 0U)
 8003294:	e008      	b.n	80032a8 <HAL_RCC_OscConfig+0x3a4>
      {
        if ((HAL_GetTick() - tickstart) > LSI_TIMEOUT_VALUE)
 8003296:	f7fd ffad 	bl	80011f4 <HAL_GetTick>
 800329a:	4602      	mov	r2, r0
 800329c:	6a7b      	ldr	r3, [r7, #36]	@ 0x24
 800329e:	1ad3      	subs	r3, r2, r3
 80032a0:	2b02      	cmp	r3, #2
 80032a2:	d901      	bls.n	80032a8 <HAL_RCC_OscConfig+0x3a4>
        {
          return HAL_TIMEOUT;
 80032a4:	2303      	movs	r3, #3
 80032a6:	e1ff      	b.n	80036a8 <HAL_RCC_OscConfig+0x7a4>
      while (__HAL_RCC_GET_FLAG(RCC_FLAG_LSIRDY) != 0U)
 80032a8:	4b3f      	ldr	r3, [pc, #252]	@ (80033a8 <HAL_RCC_OscConfig+0x4a4>)
 80032aa:	6f5b      	ldr	r3, [r3, #116]	@ 0x74
 80032ac:	f003 0302 	and.w	r3, r3, #2
 80032b0:	2b00      	cmp	r3, #0
 80032b2:	d1f0      	bne.n	8003296 <HAL_RCC_OscConfig+0x392>
      }
    }
  }

  /*------------------------------ HSI48 Configuration -------------------------*/
  if (((RCC_OscInitStruct->OscillatorType) & RCC_OSCILLATORTYPE_HSI48) == RCC_OSCILLATORTYPE_HSI48)
 80032b4:	687b      	ldr	r3, [r7, #4]
 80032b6:	681b      	ldr	r3, [r3, #0]
 80032b8:	f003 0320 	and.w	r3, r3, #32
 80032bc:	2b00      	cmp	r3, #0
 80032be:	d036      	beq.n	800332e <HAL_RCC_OscConfig+0x42a>
  {
    /* Check the parameters */
    assert_param(IS_RCC_HSI48(RCC_OscInitStruct->HSI48State));

    /* Check the HSI48 State */
    if ((RCC_OscInitStruct->HSI48State) != RCC_HSI48_OFF)
 80032c0:	687b      	ldr	r3, [r7, #4]
 80032c2:	699b      	ldr	r3, [r3, #24]
 80032c4:	2b00      	cmp	r3, #0
 80032c6:	d019      	beq.n	80032fc <HAL_RCC_OscConfig+0x3f8>
    {
      /* Enable the Internal Low Speed oscillator (HSI48). */
      __HAL_RCC_HSI48_ENABLE();
 80032c8:	4b37      	ldr	r3, [pc, #220]	@ (80033a8 <HAL_RCC_OscConfig+0x4a4>)
 80032ca:	681b      	ldr	r3, [r3, #0]
 80032cc:	4a36      	ldr	r2, [pc, #216]	@ (80033a8 <HAL_RCC_OscConfig+0x4a4>)
 80032ce:	f443 5380 	orr.w	r3, r3, #4096	@ 0x1000
 80032d2:	6013      	str	r3, [r2, #0]

      /* Get time-out */
      tickstart = HAL_GetTick();
 80032d4:	f7fd ff8e 	bl	80011f4 <HAL_GetTick>
 80032d8:	6278      	str	r0, [r7, #36]	@ 0x24

      /* Wait till HSI48 is ready */
      while (__HAL_RCC_GET_FLAG(RCC_FLAG_HSI48RDY) == 0U)
 80032da:	e008      	b.n	80032ee <HAL_RCC_OscConfig+0x3ea>
      {
        if ((HAL_GetTick() - tickstart) > HSI48_TIMEOUT_VALUE)
 80032dc:	f7fd ff8a 	bl	80011f4 <HAL_GetTick>
 80032e0:	4602      	mov	r2, r0
 80032e2:	6a7b      	ldr	r3, [r7, #36]	@ 0x24
 80032e4:	1ad3      	subs	r3, r2, r3
 80032e6:	2b02      	cmp	r3, #2
 80032e8:	d901      	bls.n	80032ee <HAL_RCC_OscConfig+0x3ea>
        {
          return HAL_TIMEOUT;
 80032ea:	2303      	movs	r3, #3
 80032ec:	e1dc      	b.n	80036a8 <HAL_RCC_OscConfig+0x7a4>
      while (__HAL_RCC_GET_FLAG(RCC_FLAG_HSI48RDY) == 0U)
 80032ee:	4b2e      	ldr	r3, [pc, #184]	@ (80033a8 <HAL_RCC_OscConfig+0x4a4>)
 80032f0:	681b      	ldr	r3, [r3, #0]
 80032f2:	f403 5300 	and.w	r3, r3, #8192	@ 0x2000
 80032f6:	2b00      	cmp	r3, #0
 80032f8:	d0f0      	beq.n	80032dc <HAL_RCC_OscConfig+0x3d8>
 80032fa:	e018      	b.n	800332e <HAL_RCC_OscConfig+0x42a>
      }
    }
    else
    {
      /* Disable the Internal Low Speed oscillator (HSI48). */
      __HAL_RCC_HSI48_DISABLE();
 80032fc:	4b2a      	ldr	r3, [pc, #168]	@ (80033a8 <HAL_RCC_OscConfig+0x4a4>)
 80032fe:	681b      	ldr	r3, [r3, #0]
 8003300:	4a29      	ldr	r2, [pc, #164]	@ (80033a8 <HAL_RCC_OscConfig+0x4a4>)
 8003302:	f423 5380 	bic.w	r3, r3, #4096	@ 0x1000
 8003306:	6013      	str	r3, [r2, #0]

      /* Get time-out */
      tickstart = HAL_GetTick();
 8003308:	f7fd ff74 	bl	80011f4 <HAL_GetTick>
 800330c:	6278      	str	r0, [r7, #36]	@ 0x24

      /* Wait till HSI48 is ready */
      while (__HAL_RCC_GET_FLAG(RCC_FLAG_HSI48RDY) != 0U)
 800330e:	e008      	b.n	8003322 <HAL_RCC_OscConfig+0x41e>
      {
        if ((HAL_GetTick() - tickstart) > HSI48_TIMEOUT_VALUE)
 8003310:	f7fd ff70 	bl	80011f4 <HAL_GetTick>
 8003314:	4602      	mov	r2, r0
 8003316:	6a7b      	ldr	r3, [r7, #36]	@ 0x24
 8003318:	1ad3      	subs	r3, r2, r3
 800331a:	2b02      	cmp	r3, #2
 800331c:	d901      	bls.n	8003322 <HAL_RCC_OscConfig+0x41e>
        {
          return HAL_TIMEOUT;
 800331e:	2303      	movs	r3, #3
 8003320:	e1c2      	b.n	80036a8 <HAL_RCC_OscConfig+0x7a4>
      while (__HAL_RCC_GET_FLAG(RCC_FLAG_HSI48RDY) != 0U)
 8003322:	4b21      	ldr	r3, [pc, #132]	@ (80033a8 <HAL_RCC_OscConfig+0x4a4>)
 8003324:	681b      	ldr	r3, [r3, #0]
 8003326:	f403 5300 	and.w	r3, r3, #8192	@ 0x2000
 800332a:	2b00      	cmp	r3, #0
 800332c:	d1f0      	bne.n	8003310 <HAL_RCC_OscConfig+0x40c>
        }
      }
    }
  }
  /*------------------------------ LSE Configuration -------------------------*/
  if (((RCC_OscInitStruct->OscillatorType) & RCC_OSCILLATORTYPE_LSE) == RCC_OSCILLATORTYPE_LSE)
 800332e:	687b      	ldr	r3, [r7, #4]
 8003330:	681b      	ldr	r3, [r3, #0]
 8003332:	f003 0304 	and.w	r3, r3, #4
 8003336:	2b00      	cmp	r3, #0
 8003338:	f000 8086 	beq.w	8003448 <HAL_RCC_OscConfig+0x544>
  {
    /* Check the parameters */
    assert_param(IS_RCC_LSE(RCC_OscInitStruct->LSEState));

    /* Enable write access to Backup domain */
    PWR->CR1 |= PWR_CR1_DBP;
 800333c:	4b1b      	ldr	r3, [pc, #108]	@ (80033ac <HAL_RCC_OscConfig+0x4a8>)
 800333e:	681b      	ldr	r3, [r3, #0]
 8003340:	4a1a      	ldr	r2, [pc, #104]	@ (80033ac <HAL_RCC_OscConfig+0x4a8>)
 8003342:	f443 7380 	orr.w	r3, r3, #256	@ 0x100
 8003346:	6013      	str	r3, [r2, #0]

    /* Wait for Backup domain Write protection disable */
    tickstart = HAL_GetTick();
 8003348:	f7fd ff54 	bl	80011f4 <HAL_GetTick>
 800334c:	6278      	str	r0, [r7, #36]	@ 0x24

    while ((PWR->CR1 & PWR_CR1_DBP) == 0U)
 800334e:	e008      	b.n	8003362 <HAL_RCC_OscConfig+0x45e>
    {
      if ((HAL_GetTick() - tickstart) > RCC_DBP_TIMEOUT_VALUE)
 8003350:	f7fd ff50 	bl	80011f4 <HAL_GetTick>
 8003354:	4602      	mov	r2, r0
 8003356:	6a7b      	ldr	r3, [r7, #36]	@ 0x24
 8003358:	1ad3      	subs	r3, r2, r3
 800335a:	2b64      	cmp	r3, #100	@ 0x64
 800335c:	d901      	bls.n	8003362 <HAL_RCC_OscConfig+0x45e>
      {
        return HAL_TIMEOUT;
 800335e:	2303      	movs	r3, #3
 8003360:	e1a2      	b.n	80036a8 <HAL_RCC_OscConfig+0x7a4>
    while ((PWR->CR1 & PWR_CR1_DBP) == 0U)
 8003362:	4b12      	ldr	r3, [pc, #72]	@ (80033ac <HAL_RCC_OscConfig+0x4a8>)
 8003364:	681b      	ldr	r3, [r3, #0]
 8003366:	f403 7380 	and.w	r3, r3, #256	@ 0x100
 800336a:	2b00      	cmp	r3, #0
 800336c:	d0f0      	beq.n	8003350 <HAL_RCC_OscConfig+0x44c>
      }
    }

    /* Set the new LSE configuration -----------------------------------------*/
    __HAL_RCC_LSE_CONFIG(RCC_OscInitStruct->LSEState);
 800336e:	687b      	ldr	r3, [r7, #4]
 8003370:	689b      	ldr	r3, [r3, #8]
 8003372:	2b01      	cmp	r3, #1
 8003374:	d106      	bne.n	8003384 <HAL_RCC_OscConfig+0x480>
 8003376:	4b0c      	ldr	r3, [pc, #48]	@ (80033a8 <HAL_RCC_OscConfig+0x4a4>)
 8003378:	6f1b      	ldr	r3, [r3, #112]	@ 0x70
 800337a:	4a0b      	ldr	r2, [pc, #44]	@ (80033a8 <HAL_RCC_OscConfig+0x4a4>)
 800337c:	f043 0301 	orr.w	r3, r3, #1
 8003380:	6713      	str	r3, [r2, #112]	@ 0x70
 8003382:	e032      	b.n	80033ea <HAL_RCC_OscConfig+0x4e6>
 8003384:	687b      	ldr	r3, [r7, #4]
 8003386:	689b      	ldr	r3, [r3, #8]
 8003388:	2b00      	cmp	r3, #0
 800338a:	d111      	bne.n	80033b0 <HAL_RCC_OscConfig+0x4ac>
 800338c:	4b06      	ldr	r3, [pc, #24]	@ (80033a8 <HAL_RCC_OscConfig+0x4a4>)
 800338e:	6f1b      	ldr	r3, [r3, #112]	@ 0x70
 8003390:	4a05      	ldr	r2, [pc, #20]	@ (80033a8 <HAL_RCC_OscConfig+0x4a4>)
 8003392:	f023 0301 	bic.w	r3, r3, #1
 8003396:	6713      	str	r3, [r2, #112]	@ 0x70
 8003398:	4b03      	ldr	r3, [pc, #12]	@ (80033a8 <HAL_RCC_OscConfig+0x4a4>)
 800339a:	6f1b      	ldr	r3, [r3, #112]	@ 0x70
 800339c:	4a02      	ldr	r2, [pc, #8]	@ (80033a8 <HAL_RCC_OscConfig+0x4a4>)
 800339e:	f023 0304 	bic.w	r3, r3, #4
 80033a2:	6713      	str	r3, [r2, #112]	@ 0x70
 80033a4:	e021      	b.n	80033ea <HAL_RCC_OscConfig+0x4e6>
 80033a6:	bf00      	nop
 80033a8:	58024400 	.word	0x58024400
 80033ac:	58024800 	.word	0x58024800
 80033b0:	687b      	ldr	r3, [r7, #4]
 80033b2:	689b      	ldr	r3, [r3, #8]
 80033b4:	2b05      	cmp	r3, #5
 80033b6:	d10c      	bne.n	80033d2 <HAL_RCC_OscConfig+0x4ce>
 80033b8:	4b83      	ldr	r3, [pc, #524]	@ (80035c8 <HAL_RCC_OscConfig+0x6c4>)
 80033ba:	6f1b      	ldr	r3, [r3, #112]	@ 0x70
 80033bc:	4a82      	ldr	r2, [pc, #520]	@ (80035c8 <HAL_RCC_OscConfig+0x6c4>)
 80033be:	f043 0304 	orr.w	r3, r3, #4
 80033c2:	6713      	str	r3, [r2, #112]	@ 0x70
 80033c4:	4b80      	ldr	r3, [pc, #512]	@ (80035c8 <HAL_RCC_OscConfig+0x6c4>)
 80033c6:	6f1b      	ldr	r3, [r3, #112]	@ 0x70
 80033c8:	4a7f      	ldr	r2, [pc, #508]	@ (80035c8 <HAL_RCC_OscConfig+0x6c4>)
 80033ca:	f043 0301 	orr.w	r3, r3, #1
 80033ce:	6713      	str	r3, [r2, #112]	@ 0x70
 80033d0:	e00b      	b.n	80033ea <HAL_RCC_OscConfig+0x4e6>
 80033d2:	4b7d      	ldr	r3, [pc, #500]	@ (80035c8 <HAL_RCC_OscConfig+0x6c4>)
 80033d4:	6f1b      	ldr	r3, [r3, #112]	@ 0x70
 80033d6:	4a7c      	ldr	r2, [pc, #496]	@ (80035c8 <HAL_RCC_OscConfig+0x6c4>)
 80033d8:	f023 0301 	bic.w	r3, r3, #1
 80033dc:	6713      	str	r3, [r2, #112]	@ 0x70
 80033de:	4b7a      	ldr	r3, [pc, #488]	@ (80035c8 <HAL_RCC_OscConfig+0x6c4>)
 80033e0:	6f1b      	ldr	r3, [r3, #112]	@ 0x70
 80033e2:	4a79      	ldr	r2, [pc, #484]	@ (80035c8 <HAL_RCC_OscConfig+0x6c4>)
 80033e4:	f023 0304 	bic.w	r3, r3, #4
 80033e8:	6713      	str	r3, [r2, #112]	@ 0x70
    /* Check the LSE State */
    if ((RCC_OscInitStruct->LSEState) != RCC_LSE_OFF)
 80033ea:	687b      	ldr	r3, [r7, #4]
 80033ec:	689b      	ldr	r3, [r3, #8]
 80033ee:	2b00      	cmp	r3, #0
 80033f0:	d015      	beq.n	800341e <HAL_RCC_OscConfig+0x51a>
    {
      /* Get Start Tick*/
      tickstart = HAL_GetTick();
 80033f2:	f7fd feff 	bl	80011f4 <HAL_GetTick>
 80033f6:	6278      	str	r0, [r7, #36]	@ 0x24

      /* Wait till LSE is ready */
      while (__HAL_RCC_GET_FLAG(RCC_FLAG_LSERDY) == 0U)
 80033f8:	e00a      	b.n	8003410 <HAL_RCC_OscConfig+0x50c>
      {
        if ((HAL_GetTick() - tickstart) > RCC_LSE_TIMEOUT_VALUE)
 80033fa:	f7fd fefb 	bl	80011f4 <HAL_GetTick>
 80033fe:	4602      	mov	r2, r0
 8003400:	6a7b      	ldr	r3, [r7, #36]	@ 0x24
 8003402:	1ad3      	subs	r3, r2, r3
 8003404:	f241 3288 	movw	r2, #5000	@ 0x1388
 8003408:	4293      	cmp	r3, r2
 800340a:	d901      	bls.n	8003410 <HAL_RCC_OscConfig+0x50c>
        {
          return HAL_TIMEOUT;
 800340c:	2303      	movs	r3, #3
 800340e:	e14b      	b.n	80036a8 <HAL_RCC_OscConfig+0x7a4>
      while (__HAL_RCC_GET_FLAG(RCC_FLAG_LSERDY) == 0U)
 8003410:	4b6d      	ldr	r3, [pc, #436]	@ (80035c8 <HAL_RCC_OscConfig+0x6c4>)
 8003412:	6f1b      	ldr	r3, [r3, #112]	@ 0x70
 8003414:	f003 0302 	and.w	r3, r3, #2
 8003418:	2b00      	cmp	r3, #0
 800341a:	d0ee      	beq.n	80033fa <HAL_RCC_OscConfig+0x4f6>
 800341c:	e014      	b.n	8003448 <HAL_RCC_OscConfig+0x544>
      }
    }
    else
    {
      /* Get Start Tick*/
      tickstart = HAL_GetTick();
 800341e:	f7fd fee9 	bl	80011f4 <HAL_GetTick>
 8003422:	6278      	str	r0, [r7, #36]	@ 0x24

      /* Wait till LSE is disabled */
      while (__HAL_RCC_GET_FLAG(RCC_FLAG_LSERDY) != 0U)
 8003424:	e00a      	b.n	800343c <HAL_RCC_OscConfig+0x538>
      {
        if ((HAL_GetTick() - tickstart) > RCC_LSE_TIMEOUT_VALUE)
 8003426:	f7fd fee5 	bl	80011f4 <HAL_GetTick>
 800342a:	4602      	mov	r2, r0
 800342c:	6a7b      	ldr	r3, [r7, #36]	@ 0x24
 800342e:	1ad3      	subs	r3, r2, r3
 8003430:	f241 3288 	movw	r2, #5000	@ 0x1388
 8003434:	4293      	cmp	r3, r2
 8003436:	d901      	bls.n	800343c <HAL_RCC_OscConfig+0x538>
        {
          return HAL_TIMEOUT;
 8003438:	2303      	movs	r3, #3
 800343a:	e135      	b.n	80036a8 <HAL_RCC_OscConfig+0x7a4>
      while (__HAL_RCC_GET_FLAG(RCC_FLAG_LSERDY) != 0U)
 800343c:	4b62      	ldr	r3, [pc, #392]	@ (80035c8 <HAL_RCC_OscConfig+0x6c4>)
 800343e:	6f1b      	ldr	r3, [r3, #112]	@ 0x70
 8003440:	f003 0302 	and.w	r3, r3, #2
 8003444:	2b00      	cmp	r3, #0
 8003446:	d1ee      	bne.n	8003426 <HAL_RCC_OscConfig+0x522>
    }
  }
  /*-------------------------------- PLL Configuration -----------------------*/
  /* Check the parameters */
  assert_param(IS_RCC_PLL(RCC_OscInitStruct->PLL.PLLState));
  if ((RCC_OscInitStruct->PLL.PLLState) != RCC_PLL_NONE)
 8003448:	687b      	ldr	r3, [r7, #4]
 800344a:	6a5b      	ldr	r3, [r3, #36]	@ 0x24
 800344c:	2b00      	cmp	r3, #0
 800344e:	f000 812a 	beq.w	80036a6 <HAL_RCC_OscConfig+0x7a2>
  {
    /* Check if the PLL is used as system clock or not */
    if (__HAL_RCC_GET_SYSCLK_SOURCE() != RCC_CFGR_SWS_PLL1)
 8003452:	4b5d      	ldr	r3, [pc, #372]	@ (80035c8 <HAL_RCC_OscConfig+0x6c4>)
 8003454:	691b      	ldr	r3, [r3, #16]
 8003456:	f003 0338 	and.w	r3, r3, #56	@ 0x38
 800345a:	2b18      	cmp	r3, #24
 800345c:	f000 80ba 	beq.w	80035d4 <HAL_RCC_OscConfig+0x6d0>
    {
      if ((RCC_OscInitStruct->PLL.PLLState) == RCC_PLL_ON)
 8003460:	687b      	ldr	r3, [r7, #4]
 8003462:	6a5b      	ldr	r3, [r3, #36]	@ 0x24
 8003464:	2b02      	cmp	r3, #2
 8003466:	f040 8095 	bne.w	8003594 <HAL_RCC_OscConfig+0x690>
        assert_param(IS_RCC_PLLQ_VALUE(RCC_OscInitStruct->PLL.PLLQ));
        assert_param(IS_RCC_PLLR_VALUE(RCC_OscInitStruct->PLL.PLLR));
        assert_param(IS_RCC_PLLFRACN_VALUE(RCC_OscInitStruct->PLL.PLLFRACN));

        /* Disable the main PLL. */
        __HAL_RCC_PLL_DISABLE();
 800346a:	4b57      	ldr	r3, [pc, #348]	@ (80035c8 <HAL_RCC_OscConfig+0x6c4>)
 800346c:	681b      	ldr	r3, [r3, #0]
 800346e:	4a56      	ldr	r2, [pc, #344]	@ (80035c8 <HAL_RCC_OscConfig+0x6c4>)
 8003470:	f023 7380 	bic.w	r3, r3, #16777216	@ 0x1000000
 8003474:	6013      	str	r3, [r2, #0]

        /* Get Start Tick*/
        tickstart = HAL_GetTick();
 8003476:	f7fd febd 	bl	80011f4 <HAL_GetTick>
 800347a:	6278      	str	r0, [r7, #36]	@ 0x24

        /* Wait till PLL is disabled */
        while (__HAL_RCC_GET_FLAG(RCC_FLAG_PLLRDY) != 0U)
 800347c:	e008      	b.n	8003490 <HAL_RCC_OscConfig+0x58c>
        {
          if ((HAL_GetTick() - tickstart) > PLL_TIMEOUT_VALUE)
 800347e:	f7fd feb9 	bl	80011f4 <HAL_GetTick>
 8003482:	4602      	mov	r2, r0
 8003484:	6a7b      	ldr	r3, [r7, #36]	@ 0x24
 8003486:	1ad3      	subs	r3, r2, r3
 8003488:	2b02      	cmp	r3, #2
 800348a:	d901      	bls.n	8003490 <HAL_RCC_OscConfig+0x58c>
          {
            return HAL_TIMEOUT;
 800348c:	2303      	movs	r3, #3
 800348e:	e10b      	b.n	80036a8 <HAL_RCC_OscConfig+0x7a4>
        while (__HAL_RCC_GET_FLAG(RCC_FLAG_PLLRDY) != 0U)
 8003490:	4b4d      	ldr	r3, [pc, #308]	@ (80035c8 <HAL_RCC_OscConfig+0x6c4>)
 8003492:	681b      	ldr	r3, [r3, #0]
 8003494:	f003 7300 	and.w	r3, r3, #33554432	@ 0x2000000
 8003498:	2b00      	cmp	r3, #0
 800349a:	d1f0      	bne.n	800347e <HAL_RCC_OscConfig+0x57a>
          }
        }

        /* Configure the main PLL clock source, multiplication and division factors. */
        __HAL_RCC_PLL_CONFIG(RCC_OscInitStruct->PLL.PLLSource,
 800349c:	4b4a      	ldr	r3, [pc, #296]	@ (80035c8 <HAL_RCC_OscConfig+0x6c4>)
 800349e:	6a9a      	ldr	r2, [r3, #40]	@ 0x28
 80034a0:	4b4a      	ldr	r3, [pc, #296]	@ (80035cc <HAL_RCC_OscConfig+0x6c8>)
 80034a2:	4013      	ands	r3, r2
 80034a4:	687a      	ldr	r2, [r7, #4]
 80034a6:	6a91      	ldr	r1, [r2, #40]	@ 0x28
 80034a8:	687a      	ldr	r2, [r7, #4]
 80034aa:	6ad2      	ldr	r2, [r2, #44]	@ 0x2c
 80034ac:	0112      	lsls	r2, r2, #4
 80034ae:	430a      	orrs	r2, r1
 80034b0:	4945      	ldr	r1, [pc, #276]	@ (80035c8 <HAL_RCC_OscConfig+0x6c4>)
 80034b2:	4313      	orrs	r3, r2
 80034b4:	628b      	str	r3, [r1, #40]	@ 0x28
 80034b6:	687b      	ldr	r3, [r7, #4]
 80034b8:	6b1b      	ldr	r3, [r3, #48]	@ 0x30
 80034ba:	3b01      	subs	r3, #1
 80034bc:	f3c3 0208 	ubfx	r2, r3, #0, #9
 80034c0:	687b      	ldr	r3, [r7, #4]
 80034c2:	6b5b      	ldr	r3, [r3, #52]	@ 0x34
 80034c4:	3b01      	subs	r3, #1
 80034c6:	025b      	lsls	r3, r3, #9
 80034c8:	b29b      	uxth	r3, r3
 80034ca:	431a      	orrs	r2, r3
 80034cc:	687b      	ldr	r3, [r7, #4]
 80034ce:	6b9b      	ldr	r3, [r3, #56]	@ 0x38
 80034d0:	3b01      	subs	r3, #1
 80034d2:	041b      	lsls	r3, r3, #16
 80034d4:	f403 03fe 	and.w	r3, r3, #8323072	@ 0x7f0000
 80034d8:	431a      	orrs	r2, r3
 80034da:	687b      	ldr	r3, [r7, #4]
 80034dc:	6bdb      	ldr	r3, [r3, #60]	@ 0x3c
 80034de:	3b01      	subs	r3, #1
 80034e0:	061b      	lsls	r3, r3, #24
 80034e2:	f003 43fe 	and.w	r3, r3, #2130706432	@ 0x7f000000
 80034e6:	4938      	ldr	r1, [pc, #224]	@ (80035c8 <HAL_RCC_OscConfig+0x6c4>)
 80034e8:	4313      	orrs	r3, r2
 80034ea:	630b      	str	r3, [r1, #48]	@ 0x30
                             RCC_OscInitStruct->PLL.PLLP,
                             RCC_OscInitStruct->PLL.PLLQ,
                             RCC_OscInitStruct->PLL.PLLR);

        /* Disable PLLFRACN . */
        __HAL_RCC_PLLFRACN_DISABLE();
 80034ec:	4b36      	ldr	r3, [pc, #216]	@ (80035c8 <HAL_RCC_OscConfig+0x6c4>)
 80034ee:	6adb      	ldr	r3, [r3, #44]	@ 0x2c
 80034f0:	4a35      	ldr	r2, [pc, #212]	@ (80035c8 <HAL_RCC_OscConfig+0x6c4>)
 80034f2:	f023 0301 	bic.w	r3, r3, #1
 80034f6:	62d3      	str	r3, [r2, #44]	@ 0x2c

        /* Configure PLL PLL1FRACN */
        __HAL_RCC_PLLFRACN_CONFIG(RCC_OscInitStruct->PLL.PLLFRACN);
 80034f8:	4b33      	ldr	r3, [pc, #204]	@ (80035c8 <HAL_RCC_OscConfig+0x6c4>)
 80034fa:	6b5a      	ldr	r2, [r3, #52]	@ 0x34
 80034fc:	4b34      	ldr	r3, [pc, #208]	@ (80035d0 <HAL_RCC_OscConfig+0x6cc>)
 80034fe:	4013      	ands	r3, r2
 8003500:	687a      	ldr	r2, [r7, #4]
 8003502:	6c92      	ldr	r2, [r2, #72]	@ 0x48
 8003504:	00d2      	lsls	r2, r2, #3
 8003506:	4930      	ldr	r1, [pc, #192]	@ (80035c8 <HAL_RCC_OscConfig+0x6c4>)
 8003508:	4313      	orrs	r3, r2
 800350a:	634b      	str	r3, [r1, #52]	@ 0x34

        /* Select PLL1 input reference frequency range: VCI */
        __HAL_RCC_PLL_VCIRANGE(RCC_OscInitStruct->PLL.PLLRGE) ;
 800350c:	4b2e      	ldr	r3, [pc, #184]	@ (80035c8 <HAL_RCC_OscConfig+0x6c4>)
 800350e:	6adb      	ldr	r3, [r3, #44]	@ 0x2c
 8003510:	f023 020c 	bic.w	r2, r3, #12
 8003514:	687b      	ldr	r3, [r7, #4]
 8003516:	6c1b      	ldr	r3, [r3, #64]	@ 0x40
 8003518:	492b      	ldr	r1, [pc, #172]	@ (80035c8 <HAL_RCC_OscConfig+0x6c4>)
 800351a:	4313      	orrs	r3, r2
 800351c:	62cb      	str	r3, [r1, #44]	@ 0x2c

        /* Select PLL1 output frequency range : VCO */
        __HAL_RCC_PLL_VCORANGE(RCC_OscInitStruct->PLL.PLLVCOSEL) ;
 800351e:	4b2a      	ldr	r3, [pc, #168]	@ (80035c8 <HAL_RCC_OscConfig+0x6c4>)
 8003520:	6adb      	ldr	r3, [r3, #44]	@ 0x2c
 8003522:	f023 0202 	bic.w	r2, r3, #2
 8003526:	687b      	ldr	r3, [r7, #4]
 8003528:	6c5b      	ldr	r3, [r3, #68]	@ 0x44
 800352a:	4927      	ldr	r1, [pc, #156]	@ (80035c8 <HAL_RCC_OscConfig+0x6c4>)
 800352c:	4313      	orrs	r3, r2
 800352e:	62cb      	str	r3, [r1, #44]	@ 0x2c

        /* Enable PLL System Clock output. */
        __HAL_RCC_PLLCLKOUT_ENABLE(RCC_PLL1_DIVP);
 8003530:	4b25      	ldr	r3, [pc, #148]	@ (80035c8 <HAL_RCC_OscConfig+0x6c4>)
 8003532:	6adb      	ldr	r3, [r3, #44]	@ 0x2c
 8003534:	4a24      	ldr	r2, [pc, #144]	@ (80035c8 <HAL_RCC_OscConfig+0x6c4>)
 8003536:	f443 3380 	orr.w	r3, r3, #65536	@ 0x10000
 800353a:	62d3      	str	r3, [r2, #44]	@ 0x2c

        /* Enable PLL1Q Clock output. */
        __HAL_RCC_PLLCLKOUT_ENABLE(RCC_PLL1_DIVQ);
 800353c:	4b22      	ldr	r3, [pc, #136]	@ (80035c8 <HAL_RCC_OscConfig+0x6c4>)
 800353e:	6adb      	ldr	r3, [r3, #44]	@ 0x2c
 8003540:	4a21      	ldr	r2, [pc, #132]	@ (80035c8 <HAL_RCC_OscConfig+0x6c4>)
 8003542:	f443 3300 	orr.w	r3, r3, #131072	@ 0x20000
 8003546:	62d3      	str	r3, [r2, #44]	@ 0x2c

        /* Enable PLL1R  Clock output. */
        __HAL_RCC_PLLCLKOUT_ENABLE(RCC_PLL1_DIVR);
 8003548:	4b1f      	ldr	r3, [pc, #124]	@ (80035c8 <HAL_RCC_OscConfig+0x6c4>)
 800354a:	6adb      	ldr	r3, [r3, #44]	@ 0x2c
 800354c:	4a1e      	ldr	r2, [pc, #120]	@ (80035c8 <HAL_RCC_OscConfig+0x6c4>)
 800354e:	f443 2380 	orr.w	r3, r3, #262144	@ 0x40000
 8003552:	62d3      	str	r3, [r2, #44]	@ 0x2c

        /* Enable PLL1FRACN . */
        __HAL_RCC_PLLFRACN_ENABLE();
 8003554:	4b1c      	ldr	r3, [pc, #112]	@ (80035c8 <HAL_RCC_OscConfig+0x6c4>)
 8003556:	6adb      	ldr	r3, [r3, #44]	@ 0x2c
 8003558:	4a1b      	ldr	r2, [pc, #108]	@ (80035c8 <HAL_RCC_OscConfig+0x6c4>)
 800355a:	f043 0301 	orr.w	r3, r3, #1
 800355e:	62d3      	str	r3, [r2, #44]	@ 0x2c

        /* Enable the main PLL. */
        __HAL_RCC_PLL_ENABLE();
 8003560:	4b19      	ldr	r3, [pc, #100]	@ (80035c8 <HAL_RCC_OscConfig+0x6c4>)
 8003562:	681b      	ldr	r3, [r3, #0]
 8003564:	4a18      	ldr	r2, [pc, #96]	@ (80035c8 <HAL_RCC_OscConfig+0x6c4>)
 8003566:	f043 7380 	orr.w	r3, r3, #16777216	@ 0x1000000
 800356a:	6013      	str	r3, [r2, #0]

        /* Get Start Tick*/
        tickstart = HAL_GetTick();
 800356c:	f7fd fe42 	bl	80011f4 <HAL_GetTick>
 8003570:	6278      	str	r0, [r7, #36]	@ 0x24

        /* Wait till PLL is ready */
        while (__HAL_RCC_GET_FLAG(RCC_FLAG_PLLRDY) == 0U)
 8003572:	e008      	b.n	8003586 <HAL_RCC_OscConfig+0x682>
        {
          if ((HAL_GetTick() - tickstart) > PLL_TIMEOUT_VALUE)
 8003574:	f7fd fe3e 	bl	80011f4 <HAL_GetTick>
 8003578:	4602      	mov	r2, r0
 800357a:	6a7b      	ldr	r3, [r7, #36]	@ 0x24
 800357c:	1ad3      	subs	r3, r2, r3
 800357e:	2b02      	cmp	r3, #2
 8003580:	d901      	bls.n	8003586 <HAL_RCC_OscConfig+0x682>
          {
            return HAL_TIMEOUT;
 8003582:	2303      	movs	r3, #3
 8003584:	e090      	b.n	80036a8 <HAL_RCC_OscConfig+0x7a4>
        while (__HAL_RCC_GET_FLAG(RCC_FLAG_PLLRDY) == 0U)
 8003586:	4b10      	ldr	r3, [pc, #64]	@ (80035c8 <HAL_RCC_OscConfig+0x6c4>)
 8003588:	681b      	ldr	r3, [r3, #0]
 800358a:	f003 7300 	and.w	r3, r3, #33554432	@ 0x2000000
 800358e:	2b00      	cmp	r3, #0
 8003590:	d0f0      	beq.n	8003574 <HAL_RCC_OscConfig+0x670>
 8003592:	e088      	b.n	80036a6 <HAL_RCC_OscConfig+0x7a2>
        }
      }
      else
      {
        /* Disable the main PLL. */
        __HAL_RCC_PLL_DISABLE();
 8003594:	4b0c      	ldr	r3, [pc, #48]	@ (80035c8 <HAL_RCC_OscConfig+0x6c4>)
 8003596:	681b      	ldr	r3, [r3, #0]
 8003598:	4a0b      	ldr	r2, [pc, #44]	@ (80035c8 <HAL_RCC_OscConfig+0x6c4>)
 800359a:	f023 7380 	bic.w	r3, r3, #16777216	@ 0x1000000
 800359e:	6013      	str	r3, [r2, #0]

        /* Get Start Tick*/
        tickstart = HAL_GetTick();
 80035a0:	f7fd fe28 	bl	80011f4 <HAL_GetTick>
 80035a4:	6278      	str	r0, [r7, #36]	@ 0x24

        /* Wait till PLL is disabled */
        while (__HAL_RCC_GET_FLAG(RCC_FLAG_PLLRDY) != 0U)
 80035a6:	e008      	b.n	80035ba <HAL_RCC_OscConfig+0x6b6>
        {
          if ((HAL_GetTick() - tickstart) > PLL_TIMEOUT_VALUE)
 80035a8:	f7fd fe24 	bl	80011f4 <HAL_GetTick>
 80035ac:	4602      	mov	r2, r0
 80035ae:	6a7b      	ldr	r3, [r7, #36]	@ 0x24
 80035b0:	1ad3      	subs	r3, r2, r3
 80035b2:	2b02      	cmp	r3, #2
 80035b4:	d901      	bls.n	80035ba <HAL_RCC_OscConfig+0x6b6>
          {
            return HAL_TIMEOUT;
 80035b6:	2303      	movs	r3, #3
 80035b8:	e076      	b.n	80036a8 <HAL_RCC_OscConfig+0x7a4>
        while (__HAL_RCC_GET_FLAG(RCC_FLAG_PLLRDY) != 0U)
 80035ba:	4b03      	ldr	r3, [pc, #12]	@ (80035c8 <HAL_RCC_OscConfig+0x6c4>)
 80035bc:	681b      	ldr	r3, [r3, #0]
 80035be:	f003 7300 	and.w	r3, r3, #33554432	@ 0x2000000
 80035c2:	2b00      	cmp	r3, #0
 80035c4:	d1f0      	bne.n	80035a8 <HAL_RCC_OscConfig+0x6a4>
 80035c6:	e06e      	b.n	80036a6 <HAL_RCC_OscConfig+0x7a2>
 80035c8:	58024400 	.word	0x58024400
 80035cc:	fffffc0c 	.word	0xfffffc0c
 80035d0:	ffff0007 	.word	0xffff0007
      }
    }
    else
    {
      /* Do not return HAL_ERROR if request repeats the current configuration */
      temp1_pllckcfg = RCC->PLLCKSELR;
 80035d4:	4b36      	ldr	r3, [pc, #216]	@ (80036b0 <HAL_RCC_OscConfig+0x7ac>)
 80035d6:	6a9b      	ldr	r3, [r3, #40]	@ 0x28
 80035d8:	613b      	str	r3, [r7, #16]
      temp2_pllckcfg = RCC->PLL1DIVR;
 80035da:	4b35      	ldr	r3, [pc, #212]	@ (80036b0 <HAL_RCC_OscConfig+0x7ac>)
 80035dc:	6b1b      	ldr	r3, [r3, #48]	@ 0x30
 80035de:	60fb      	str	r3, [r7, #12]
      if (((RCC_OscInitStruct->PLL.PLLState) == RCC_PLL_OFF) ||
 80035e0:	687b      	ldr	r3, [r7, #4]
 80035e2:	6a5b      	ldr	r3, [r3, #36]	@ 0x24
 80035e4:	2b01      	cmp	r3, #1
 80035e6:	d031      	beq.n	800364c <HAL_RCC_OscConfig+0x748>
          (READ_BIT(temp1_pllckcfg, RCC_PLLCKSELR_PLLSRC) != RCC_OscInitStruct->PLL.PLLSource) ||
 80035e8:	693b      	ldr	r3, [r7, #16]
 80035ea:	f003 0203 	and.w	r2, r3, #3
 80035ee:	687b      	ldr	r3, [r7, #4]
 80035f0:	6a9b      	ldr	r3, [r3, #40]	@ 0x28
      if (((RCC_OscInitStruct->PLL.PLLState) == RCC_PLL_OFF) ||
 80035f2:	429a      	cmp	r2, r3
 80035f4:	d12a      	bne.n	800364c <HAL_RCC_OscConfig+0x748>
          ((READ_BIT(temp1_pllckcfg, RCC_PLLCKSELR_DIVM1) >> RCC_PLLCKSELR_DIVM1_Pos) != RCC_OscInitStruct->PLL.PLLM) ||
 80035f6:	693b      	ldr	r3, [r7, #16]
 80035f8:	091b      	lsrs	r3, r3, #4
 80035fa:	f003 023f 	and.w	r2, r3, #63	@ 0x3f
 80035fe:	687b      	ldr	r3, [r7, #4]
 8003600:	6adb      	ldr	r3, [r3, #44]	@ 0x2c
          (READ_BIT(temp1_pllckcfg, RCC_PLLCKSELR_PLLSRC) != RCC_OscInitStruct->PLL.PLLSource) ||
 8003602:	429a      	cmp	r2, r3
 8003604:	d122      	bne.n	800364c <HAL_RCC_OscConfig+0x748>
          (READ_BIT(temp2_pllckcfg, RCC_PLL1DIVR_N1) != (RCC_OscInitStruct->PLL.PLLN - 1U)) ||
 8003606:	68fb      	ldr	r3, [r7, #12]
 8003608:	f3c3 0208 	ubfx	r2, r3, #0, #9
 800360c:	687b      	ldr	r3, [r7, #4]
 800360e:	6b1b      	ldr	r3, [r3, #48]	@ 0x30
 8003610:	3b01      	subs	r3, #1
          ((READ_BIT(temp1_pllckcfg, RCC_PLLCKSELR_DIVM1) >> RCC_PLLCKSELR_DIVM1_Pos) != RCC_OscInitStruct->PLL.PLLM) ||
 8003612:	429a      	cmp	r2, r3
 8003614:	d11a      	bne.n	800364c <HAL_RCC_OscConfig+0x748>
          ((READ_BIT(temp2_pllckcfg, RCC_PLL1DIVR_P1) >> RCC_PLL1DIVR_P1_Pos) != (RCC_OscInitStruct->PLL.PLLP - 1U)) ||
 8003616:	68fb      	ldr	r3, [r7, #12]
 8003618:	0a5b      	lsrs	r3, r3, #9
 800361a:	f003 027f 	and.w	r2, r3, #127	@ 0x7f
 800361e:	687b      	ldr	r3, [r7, #4]
 8003620:	6b5b      	ldr	r3, [r3, #52]	@ 0x34
 8003622:	3b01      	subs	r3, #1
          (READ_BIT(temp2_pllckcfg, RCC_PLL1DIVR_N1) != (RCC_OscInitStruct->PLL.PLLN - 1U)) ||
 8003624:	429a      	cmp	r2, r3
 8003626:	d111      	bne.n	800364c <HAL_RCC_OscConfig+0x748>
          ((READ_BIT(temp2_pllckcfg, RCC_PLL1DIVR_Q1) >> RCC_PLL1DIVR_Q1_Pos) != (RCC_OscInitStruct->PLL.PLLQ - 1U)) ||
 8003628:	68fb      	ldr	r3, [r7, #12]
 800362a:	0c1b      	lsrs	r3, r3, #16
 800362c:	f003 027f 	and.w	r2, r3, #127	@ 0x7f
 8003630:	687b      	ldr	r3, [r7, #4]
 8003632:	6b9b      	ldr	r3, [r3, #56]	@ 0x38
 8003634:	3b01      	subs	r3, #1
          ((READ_BIT(temp2_pllckcfg, RCC_PLL1DIVR_P1) >> RCC_PLL1DIVR_P1_Pos) != (RCC_OscInitStruct->PLL.PLLP - 1U)) ||
 8003636:	429a      	cmp	r2, r3
 8003638:	d108      	bne.n	800364c <HAL_RCC_OscConfig+0x748>
          ((READ_BIT(temp2_pllckcfg, RCC_PLL1DIVR_R1) >> RCC_PLL1DIVR_R1_Pos) != (RCC_OscInitStruct->PLL.PLLR - 1U)))
 800363a:	68fb      	ldr	r3, [r7, #12]
 800363c:	0e1b      	lsrs	r3, r3, #24
 800363e:	f003 027f 	and.w	r2, r3, #127	@ 0x7f
 8003642:	687b      	ldr	r3, [r7, #4]
 8003644:	6bdb      	ldr	r3, [r3, #60]	@ 0x3c
 8003646:	3b01      	subs	r3, #1
          ((READ_BIT(temp2_pllckcfg, RCC_PLL1DIVR_Q1) >> RCC_PLL1DIVR_Q1_Pos) != (RCC_OscInitStruct->PLL.PLLQ - 1U)) ||
 8003648:	429a      	cmp	r2, r3
 800364a:	d001      	beq.n	8003650 <HAL_RCC_OscConfig+0x74c>
      {
        return HAL_ERROR;
 800364c:	2301      	movs	r3, #1
 800364e:	e02b      	b.n	80036a8 <HAL_RCC_OscConfig+0x7a4>
      }
      else
      {
        /* Check if only fractional part needs to be updated  */
        temp1_pllckcfg = ((RCC->PLL1FRACR & RCC_PLL1FRACR_FRACN1) >> RCC_PLL1FRACR_FRACN1_Pos);
 8003650:	4b17      	ldr	r3, [pc, #92]	@ (80036b0 <HAL_RCC_OscConfig+0x7ac>)
 8003652:	6b5b      	ldr	r3, [r3, #52]	@ 0x34
 8003654:	08db      	lsrs	r3, r3, #3
 8003656:	f3c3 030c 	ubfx	r3, r3, #0, #13
 800365a:	613b      	str	r3, [r7, #16]
        if (RCC_OscInitStruct->PLL.PLLFRACN != temp1_pllckcfg)
 800365c:	687b      	ldr	r3, [r7, #4]
 800365e:	6c9b      	ldr	r3, [r3, #72]	@ 0x48
 8003660:	693a      	ldr	r2, [r7, #16]
 8003662:	429a      	cmp	r2, r3
 8003664:	d01f      	beq.n	80036a6 <HAL_RCC_OscConfig+0x7a2>
        {
          assert_param(IS_RCC_PLLFRACN_VALUE(RCC_OscInitStruct->PLL.PLLFRACN));
          /* Disable PLL1FRACEN */
          __HAL_RCC_PLLFRACN_DISABLE();
 8003666:	4b12      	ldr	r3, [pc, #72]	@ (80036b0 <HAL_RCC_OscConfig+0x7ac>)
 8003668:	6adb      	ldr	r3, [r3, #44]	@ 0x2c
 800366a:	4a11      	ldr	r2, [pc, #68]	@ (80036b0 <HAL_RCC_OscConfig+0x7ac>)
 800366c:	f023 0301 	bic.w	r3, r3, #1
 8003670:	62d3      	str	r3, [r2, #44]	@ 0x2c
          /* Get Start Tick*/
          tickstart = HAL_GetTick();
 8003672:	f7fd fdbf 	bl	80011f4 <HAL_GetTick>
 8003676:	6278      	str	r0, [r7, #36]	@ 0x24
          /* Wait at least 2 CK_REF (PLL input source divided by M) period to make sure next latched value will be taken into account. */
          while ((HAL_GetTick() - tickstart) < PLL_FRAC_TIMEOUT_VALUE)
 8003678:	bf00      	nop
 800367a:	f7fd fdbb 	bl	80011f4 <HAL_GetTick>
 800367e:	4602      	mov	r2, r0
 8003680:	6a7b      	ldr	r3, [r7, #36]	@ 0x24
 8003682:	4293      	cmp	r3, r2
 8003684:	d0f9      	beq.n	800367a <HAL_RCC_OscConfig+0x776>
          {
          }
          /* Configure PLL1 PLL1FRACN */
          __HAL_RCC_PLLFRACN_CONFIG(RCC_OscInitStruct->PLL.PLLFRACN);
 8003686:	4b0a      	ldr	r3, [pc, #40]	@ (80036b0 <HAL_RCC_OscConfig+0x7ac>)
 8003688:	6b5a      	ldr	r2, [r3, #52]	@ 0x34
 800368a:	4b0a      	ldr	r3, [pc, #40]	@ (80036b4 <HAL_RCC_OscConfig+0x7b0>)
 800368c:	4013      	ands	r3, r2
 800368e:	687a      	ldr	r2, [r7, #4]
 8003690:	6c92      	ldr	r2, [r2, #72]	@ 0x48
 8003692:	00d2      	lsls	r2, r2, #3
 8003694:	4906      	ldr	r1, [pc, #24]	@ (80036b0 <HAL_RCC_OscConfig+0x7ac>)
 8003696:	4313      	orrs	r3, r2
 8003698:	634b      	str	r3, [r1, #52]	@ 0x34
          /* Enable PLL1FRACEN to latch new value. */
          __HAL_RCC_PLLFRACN_ENABLE();
 800369a:	4b05      	ldr	r3, [pc, #20]	@ (80036b0 <HAL_RCC_OscConfig+0x7ac>)
 800369c:	6adb      	ldr	r3, [r3, #44]	@ 0x2c
 800369e:	4a04      	ldr	r2, [pc, #16]	@ (80036b0 <HAL_RCC_OscConfig+0x7ac>)
 80036a0:	f043 0301 	orr.w	r3, r3, #1
 80036a4:	62d3      	str	r3, [r2, #44]	@ 0x2c
        }
      }
    }
  }
  return HAL_OK;
 80036a6:	2300      	movs	r3, #0
}
 80036a8:	4618      	mov	r0, r3
 80036aa:	3730      	adds	r7, #48	@ 0x30
 80036ac:	46bd      	mov	sp, r7
 80036ae:	bd80      	pop	{r7, pc}
 80036b0:	58024400 	.word	0x58024400
 80036b4:	ffff0007 	.word	0xffff0007

080036b8 <HAL_RCC_ClockConfig>:
  *         D1CPRE[3:0] bits to ensure that  Domain1 core clock not exceed the maximum allowed frequency
  *         (for more details refer to section above "Initialization/de-initialization functions")
  * @retval None
  */
HAL_StatusTypeDef HAL_RCC_ClockConfig(const RCC_ClkInitTypeDef  *RCC_ClkInitStruct, uint32_t FLatency)
{
 80036b8:	b580      	push	{r7, lr}
 80036ba:	b086      	sub	sp, #24
 80036bc:	af00      	add	r7, sp, #0
 80036be:	6078      	str	r0, [r7, #4]
 80036c0:	6039      	str	r1, [r7, #0]
  HAL_StatusTypeDef halstatus;
  uint32_t tickstart;
  uint32_t common_system_clock;

  /* Check Null pointer */
  if (RCC_ClkInitStruct == NULL)
 80036c2:	687b      	ldr	r3, [r7, #4]
 80036c4:	2b00      	cmp	r3, #0
 80036c6:	d101      	bne.n	80036cc <HAL_RCC_ClockConfig+0x14>
  {
    return HAL_ERROR;
 80036c8:	2301      	movs	r3, #1
 80036ca:	e19c      	b.n	8003a06 <HAL_RCC_ClockConfig+0x34e>
  /* To correctly read data from FLASH memory, the number of wait states (LATENCY)
    must be correctly programmed according to the frequency of the CPU clock
    (HCLK) and the supply voltage of the device. */

  /* Increasing the CPU frequency */
  if (FLatency > __HAL_FLASH_GET_LATENCY())
 80036cc:	4b8a      	ldr	r3, [pc, #552]	@ (80038f8 <HAL_RCC_ClockConfig+0x240>)
 80036ce:	681b      	ldr	r3, [r3, #0]
 80036d0:	f003 030f 	and.w	r3, r3, #15
 80036d4:	683a      	ldr	r2, [r7, #0]
 80036d6:	429a      	cmp	r2, r3
 80036d8:	d910      	bls.n	80036fc <HAL_RCC_ClockConfig+0x44>
  {
    /* Program the new number of wait states to the LATENCY bits in the FLASH_ACR register */
    __HAL_FLASH_SET_LATENCY(FLatency);
 80036da:	4b87      	ldr	r3, [pc, #540]	@ (80038f8 <HAL_RCC_ClockConfig+0x240>)
 80036dc:	681b      	ldr	r3, [r3, #0]
 80036de:	f023 020f 	bic.w	r2, r3, #15
 80036e2:	4985      	ldr	r1, [pc, #532]	@ (80038f8 <HAL_RCC_ClockConfig+0x240>)
 80036e4:	683b      	ldr	r3, [r7, #0]
 80036e6:	4313      	orrs	r3, r2
 80036e8:	600b      	str	r3, [r1, #0]

    /* Check that the new number of wait states is taken into account to access the Flash
    memory by reading the FLASH_ACR register */
    if (__HAL_FLASH_GET_LATENCY() != FLatency)
 80036ea:	4b83      	ldr	r3, [pc, #524]	@ (80038f8 <HAL_RCC_ClockConfig+0x240>)
 80036ec:	681b      	ldr	r3, [r3, #0]
 80036ee:	f003 030f 	and.w	r3, r3, #15
 80036f2:	683a      	ldr	r2, [r7, #0]
 80036f4:	429a      	cmp	r2, r3
 80036f6:	d001      	beq.n	80036fc <HAL_RCC_ClockConfig+0x44>
    {
      return HAL_ERROR;
 80036f8:	2301      	movs	r3, #1
 80036fa:	e184      	b.n	8003a06 <HAL_RCC_ClockConfig+0x34e>

  }

  /* Increasing the BUS frequency divider */
  /*-------------------------- D1PCLK1/CDPCLK1 Configuration ---------------------------*/
  if (((RCC_ClkInitStruct->ClockType) & RCC_CLOCKTYPE_D1PCLK1) == RCC_CLOCKTYPE_D1PCLK1)
 80036fc:	687b      	ldr	r3, [r7, #4]
 80036fe:	681b      	ldr	r3, [r3, #0]
 8003700:	f003 0304 	and.w	r3, r3, #4
 8003704:	2b00      	cmp	r3, #0
 8003706:	d010      	beq.n	800372a <HAL_RCC_ClockConfig+0x72>
  {
#if defined (RCC_D1CFGR_D1PPRE)
    if ((RCC_ClkInitStruct->APB3CLKDivider) > (RCC->D1CFGR & RCC_D1CFGR_D1PPRE))
 8003708:	687b      	ldr	r3, [r7, #4]
 800370a:	691a      	ldr	r2, [r3, #16]
 800370c:	4b7b      	ldr	r3, [pc, #492]	@ (80038fc <HAL_RCC_ClockConfig+0x244>)
 800370e:	699b      	ldr	r3, [r3, #24]
 8003710:	f003 0370 	and.w	r3, r3, #112	@ 0x70
 8003714:	429a      	cmp	r2, r3
 8003716:	d908      	bls.n	800372a <HAL_RCC_ClockConfig+0x72>
    {
      assert_param(IS_RCC_D1PCLK1(RCC_ClkInitStruct->APB3CLKDivider));
      MODIFY_REG(RCC->D1CFGR, RCC_D1CFGR_D1PPRE, RCC_ClkInitStruct->APB3CLKDivider);
 8003718:	4b78      	ldr	r3, [pc, #480]	@ (80038fc <HAL_RCC_ClockConfig+0x244>)
 800371a:	699b      	ldr	r3, [r3, #24]
 800371c:	f023 0270 	bic.w	r2, r3, #112	@ 0x70
 8003720:	687b      	ldr	r3, [r7, #4]
 8003722:	691b      	ldr	r3, [r3, #16]
 8003724:	4975      	ldr	r1, [pc, #468]	@ (80038fc <HAL_RCC_ClockConfig+0x244>)
 8003726:	4313      	orrs	r3, r2
 8003728:	618b      	str	r3, [r1, #24]
    }
#endif
  }

  /*-------------------------- PCLK1 Configuration ---------------------------*/
  if (((RCC_ClkInitStruct->ClockType) & RCC_CLOCKTYPE_PCLK1) == RCC_CLOCKTYPE_PCLK1)
 800372a:	687b      	ldr	r3, [r7, #4]
 800372c:	681b      	ldr	r3, [r3, #0]
 800372e:	f003 0308 	and.w	r3, r3, #8
 8003732:	2b00      	cmp	r3, #0
 8003734:	d010      	beq.n	8003758 <HAL_RCC_ClockConfig+0xa0>
  {
#if defined (RCC_D2CFGR_D2PPRE1)
    if ((RCC_ClkInitStruct->APB1CLKDivider) > (RCC->D2CFGR & RCC_D2CFGR_D2PPRE1))
 8003736:	687b      	ldr	r3, [r7, #4]
 8003738:	695a      	ldr	r2, [r3, #20]
 800373a:	4b70      	ldr	r3, [pc, #448]	@ (80038fc <HAL_RCC_ClockConfig+0x244>)
 800373c:	69db      	ldr	r3, [r3, #28]
 800373e:	f003 0370 	and.w	r3, r3, #112	@ 0x70
 8003742:	429a      	cmp	r2, r3
 8003744:	d908      	bls.n	8003758 <HAL_RCC_ClockConfig+0xa0>
    {
      assert_param(IS_RCC_PCLK1(RCC_ClkInitStruct->APB1CLKDivider));
      MODIFY_REG(RCC->D2CFGR, RCC_D2CFGR_D2PPRE1, (RCC_ClkInitStruct->APB1CLKDivider));
 8003746:	4b6d      	ldr	r3, [pc, #436]	@ (80038fc <HAL_RCC_ClockConfig+0x244>)
 8003748:	69db      	ldr	r3, [r3, #28]
 800374a:	f023 0270 	bic.w	r2, r3, #112	@ 0x70
 800374e:	687b      	ldr	r3, [r7, #4]
 8003750:	695b      	ldr	r3, [r3, #20]
 8003752:	496a      	ldr	r1, [pc, #424]	@ (80038fc <HAL_RCC_ClockConfig+0x244>)
 8003754:	4313      	orrs	r3, r2
 8003756:	61cb      	str	r3, [r1, #28]
      MODIFY_REG(RCC->CDCFGR2, RCC_CDCFGR2_CDPPRE1, (RCC_ClkInitStruct->APB1CLKDivider));
    }
#endif
  }
  /*-------------------------- PCLK2 Configuration ---------------------------*/
  if (((RCC_ClkInitStruct->ClockType) & RCC_CLOCKTYPE_PCLK2) == RCC_CLOCKTYPE_PCLK2)
 8003758:	687b      	ldr	r3, [r7, #4]
 800375a:	681b      	ldr	r3, [r3, #0]
 800375c:	f003 0310 	and.w	r3, r3, #16
 8003760:	2b00      	cmp	r3, #0
 8003762:	d010      	beq.n	8003786 <HAL_RCC_ClockConfig+0xce>
  {
#if defined(RCC_D2CFGR_D2PPRE2)
    if ((RCC_ClkInitStruct->APB2CLKDivider) > (RCC->D2CFGR & RCC_D2CFGR_D2PPRE2))
 8003764:	687b      	ldr	r3, [r7, #4]
 8003766:	699a      	ldr	r2, [r3, #24]
 8003768:	4b64      	ldr	r3, [pc, #400]	@ (80038fc <HAL_RCC_ClockConfig+0x244>)
 800376a:	69db      	ldr	r3, [r3, #28]
 800376c:	f403 63e0 	and.w	r3, r3, #1792	@ 0x700
 8003770:	429a      	cmp	r2, r3
 8003772:	d908      	bls.n	8003786 <HAL_RCC_ClockConfig+0xce>
    {
      assert_param(IS_RCC_PCLK2(RCC_ClkInitStruct->APB2CLKDivider));
      MODIFY_REG(RCC->D2CFGR, RCC_D2CFGR_D2PPRE2, (RCC_ClkInitStruct->APB2CLKDivider));
 8003774:	4b61      	ldr	r3, [pc, #388]	@ (80038fc <HAL_RCC_ClockConfig+0x244>)
 8003776:	69db      	ldr	r3, [r3, #28]
 8003778:	f423 62e0 	bic.w	r2, r3, #1792	@ 0x700
 800377c:	687b      	ldr	r3, [r7, #4]
 800377e:	699b      	ldr	r3, [r3, #24]
 8003780:	495e      	ldr	r1, [pc, #376]	@ (80038fc <HAL_RCC_ClockConfig+0x244>)
 8003782:	4313      	orrs	r3, r2
 8003784:	61cb      	str	r3, [r1, #28]
    }
#endif
  }

  /*-------------------------- D3PCLK1 Configuration ---------------------------*/
  if (((RCC_ClkInitStruct->ClockType) & RCC_CLOCKTYPE_D3PCLK1) == RCC_CLOCKTYPE_D3PCLK1)
 8003786:	687b      	ldr	r3, [r7, #4]
 8003788:	681b      	ldr	r3, [r3, #0]
 800378a:	f003 0320 	and.w	r3, r3, #32
 800378e:	2b00      	cmp	r3, #0
 8003790:	d010      	beq.n	80037b4 <HAL_RCC_ClockConfig+0xfc>
  {
#if defined(RCC_D3CFGR_D3PPRE)
    if ((RCC_ClkInitStruct->APB4CLKDivider) > (RCC->D3CFGR & RCC_D3CFGR_D3PPRE))
 8003792:	687b      	ldr	r3, [r7, #4]
 8003794:	69da      	ldr	r2, [r3, #28]
 8003796:	4b59      	ldr	r3, [pc, #356]	@ (80038fc <HAL_RCC_ClockConfig+0x244>)
 8003798:	6a1b      	ldr	r3, [r3, #32]
 800379a:	f003 0370 	and.w	r3, r3, #112	@ 0x70
 800379e:	429a      	cmp	r2, r3
 80037a0:	d908      	bls.n	80037b4 <HAL_RCC_ClockConfig+0xfc>
    {
      assert_param(IS_RCC_D3PCLK1(RCC_ClkInitStruct->APB4CLKDivider));
      MODIFY_REG(RCC->D3CFGR, RCC_D3CFGR_D3PPRE, (RCC_ClkInitStruct->APB4CLKDivider));
 80037a2:	4b56      	ldr	r3, [pc, #344]	@ (80038fc <HAL_RCC_ClockConfig+0x244>)
 80037a4:	6a1b      	ldr	r3, [r3, #32]
 80037a6:	f023 0270 	bic.w	r2, r3, #112	@ 0x70
 80037aa:	687b      	ldr	r3, [r7, #4]
 80037ac:	69db      	ldr	r3, [r3, #28]
 80037ae:	4953      	ldr	r1, [pc, #332]	@ (80038fc <HAL_RCC_ClockConfig+0x244>)
 80037b0:	4313      	orrs	r3, r2
 80037b2:	620b      	str	r3, [r1, #32]
    }
#endif
  }

  /*-------------------------- HCLK Configuration --------------------------*/
  if (((RCC_ClkInitStruct->ClockType) & RCC_CLOCKTYPE_HCLK) == RCC_CLOCKTYPE_HCLK)
 80037b4:	687b      	ldr	r3, [r7, #4]
 80037b6:	681b      	ldr	r3, [r3, #0]
 80037b8:	f003 0302 	and.w	r3, r3, #2
 80037bc:	2b00      	cmp	r3, #0
 80037be:	d010      	beq.n	80037e2 <HAL_RCC_ClockConfig+0x12a>
  {
#if defined (RCC_D1CFGR_HPRE)
    if ((RCC_ClkInitStruct->AHBCLKDivider) > (RCC->D1CFGR & RCC_D1CFGR_HPRE))
 80037c0:	687b      	ldr	r3, [r7, #4]
 80037c2:	68da      	ldr	r2, [r3, #12]
 80037c4:	4b4d      	ldr	r3, [pc, #308]	@ (80038fc <HAL_RCC_ClockConfig+0x244>)
 80037c6:	699b      	ldr	r3, [r3, #24]
 80037c8:	f003 030f 	and.w	r3, r3, #15
 80037cc:	429a      	cmp	r2, r3
 80037ce:	d908      	bls.n	80037e2 <HAL_RCC_ClockConfig+0x12a>
    {
      /* Set the new HCLK clock divider */
      assert_param(IS_RCC_HCLK(RCC_ClkInitStruct->AHBCLKDivider));
      MODIFY_REG(RCC->D1CFGR, RCC_D1CFGR_HPRE, RCC_ClkInitStruct->AHBCLKDivider);
 80037d0:	4b4a      	ldr	r3, [pc, #296]	@ (80038fc <HAL_RCC_ClockConfig+0x244>)
 80037d2:	699b      	ldr	r3, [r3, #24]
 80037d4:	f023 020f 	bic.w	r2, r3, #15
 80037d8:	687b      	ldr	r3, [r7, #4]
 80037da:	68db      	ldr	r3, [r3, #12]
 80037dc:	4947      	ldr	r1, [pc, #284]	@ (80038fc <HAL_RCC_ClockConfig+0x244>)
 80037de:	4313      	orrs	r3, r2
 80037e0:	618b      	str	r3, [r1, #24]
    }
#endif
  }

  /*------------------------- SYSCLK Configuration -------------------------*/
  if (((RCC_ClkInitStruct->ClockType) & RCC_CLOCKTYPE_SYSCLK) == RCC_CLOCKTYPE_SYSCLK)
 80037e2:	687b      	ldr	r3, [r7, #4]
 80037e4:	681b      	ldr	r3, [r3, #0]
 80037e6:	f003 0301 	and.w	r3, r3, #1
 80037ea:	2b00      	cmp	r3, #0
 80037ec:	d055      	beq.n	800389a <HAL_RCC_ClockConfig+0x1e2>
  {
    assert_param(IS_RCC_SYSCLK(RCC_ClkInitStruct->SYSCLKDivider));
    assert_param(IS_RCC_SYSCLKSOURCE(RCC_ClkInitStruct->SYSCLKSource));
#if defined(RCC_D1CFGR_D1CPRE)
    MODIFY_REG(RCC->D1CFGR, RCC_D1CFGR_D1CPRE, RCC_ClkInitStruct->SYSCLKDivider);
 80037ee:	4b43      	ldr	r3, [pc, #268]	@ (80038fc <HAL_RCC_ClockConfig+0x244>)
 80037f0:	699b      	ldr	r3, [r3, #24]
 80037f2:	f423 6270 	bic.w	r2, r3, #3840	@ 0xf00
 80037f6:	687b      	ldr	r3, [r7, #4]
 80037f8:	689b      	ldr	r3, [r3, #8]
 80037fa:	4940      	ldr	r1, [pc, #256]	@ (80038fc <HAL_RCC_ClockConfig+0x244>)
 80037fc:	4313      	orrs	r3, r2
 80037fe:	618b      	str	r3, [r1, #24]
#else
    MODIFY_REG(RCC->CDCFGR1, RCC_CDCFGR1_CDCPRE, RCC_ClkInitStruct->SYSCLKDivider);
#endif
    /* HSE is selected as System Clock Source */
    if (RCC_ClkInitStruct->SYSCLKSource == RCC_SYSCLKSOURCE_HSE)
 8003800:	687b      	ldr	r3, [r7, #4]
 8003802:	685b      	ldr	r3, [r3, #4]
 8003804:	2b02      	cmp	r3, #2
 8003806:	d107      	bne.n	8003818 <HAL_RCC_ClockConfig+0x160>
    {
      /* Check the HSE ready flag */
      if (__HAL_RCC_GET_FLAG(RCC_FLAG_HSERDY) == 0U)
 8003808:	4b3c      	ldr	r3, [pc, #240]	@ (80038fc <HAL_RCC_ClockConfig+0x244>)
 800380a:	681b      	ldr	r3, [r3, #0]
 800380c:	f403 3300 	and.w	r3, r3, #131072	@ 0x20000
 8003810:	2b00      	cmp	r3, #0
 8003812:	d121      	bne.n	8003858 <HAL_RCC_ClockConfig+0x1a0>
      {
        return HAL_ERROR;
 8003814:	2301      	movs	r3, #1
 8003816:	e0f6      	b.n	8003a06 <HAL_RCC_ClockConfig+0x34e>
      }
    }
    /* PLL is selected as System Clock Source */
    else if (RCC_ClkInitStruct->SYSCLKSource == RCC_SYSCLKSOURCE_PLLCLK)
 8003818:	687b      	ldr	r3, [r7, #4]
 800381a:	685b      	ldr	r3, [r3, #4]
 800381c:	2b03      	cmp	r3, #3
 800381e:	d107      	bne.n	8003830 <HAL_RCC_ClockConfig+0x178>
    {
      /* Check the PLL ready flag */
      if (__HAL_RCC_GET_FLAG(RCC_FLAG_PLLRDY) == 0U)
 8003820:	4b36      	ldr	r3, [pc, #216]	@ (80038fc <HAL_RCC_ClockConfig+0x244>)
 8003822:	681b      	ldr	r3, [r3, #0]
 8003824:	f003 7300 	and.w	r3, r3, #33554432	@ 0x2000000
 8003828:	2b00      	cmp	r3, #0
 800382a:	d115      	bne.n	8003858 <HAL_RCC_ClockConfig+0x1a0>
      {
        return HAL_ERROR;
 800382c:	2301      	movs	r3, #1
 800382e:	e0ea      	b.n	8003a06 <HAL_RCC_ClockConfig+0x34e>
      }
    }
    /* CSI is selected as System Clock Source */
    else if (RCC_ClkInitStruct->SYSCLKSource == RCC_SYSCLKSOURCE_CSI)
 8003830:	687b      	ldr	r3, [r7, #4]
 8003832:	685b      	ldr	r3, [r3, #4]
 8003834:	2b01      	cmp	r3, #1
 8003836:	d107      	bne.n	8003848 <HAL_RCC_ClockConfig+0x190>
    {
      /* Check the PLL ready flag */
      if (__HAL_RCC_GET_FLAG(RCC_FLAG_CSIRDY) == 0U)
 8003838:	4b30      	ldr	r3, [pc, #192]	@ (80038fc <HAL_RCC_ClockConfig+0x244>)
 800383a:	681b      	ldr	r3, [r3, #0]
 800383c:	f403 7380 	and.w	r3, r3, #256	@ 0x100
 8003840:	2b00      	cmp	r3, #0
 8003842:	d109      	bne.n	8003858 <HAL_RCC_ClockConfig+0x1a0>
      {
        return HAL_ERROR;
 8003844:	2301      	movs	r3, #1
 8003846:	e0de      	b.n	8003a06 <HAL_RCC_ClockConfig+0x34e>
    }
    /* HSI is selected as System Clock Source */
    else
    {
      /* Check the HSI ready flag */
      if (__HAL_RCC_GET_FLAG(RCC_FLAG_HSIRDY) == 0U)
 8003848:	4b2c      	ldr	r3, [pc, #176]	@ (80038fc <HAL_RCC_ClockConfig+0x244>)
 800384a:	681b      	ldr	r3, [r3, #0]
 800384c:	f003 0304 	and.w	r3, r3, #4
 8003850:	2b00      	cmp	r3, #0
 8003852:	d101      	bne.n	8003858 <HAL_RCC_ClockConfig+0x1a0>
      {
        return HAL_ERROR;
 8003854:	2301      	movs	r3, #1
 8003856:	e0d6      	b.n	8003a06 <HAL_RCC_ClockConfig+0x34e>
      }
    }
    MODIFY_REG(RCC->CFGR, RCC_CFGR_SW, RCC_ClkInitStruct->SYSCLKSource);
 8003858:	4b28      	ldr	r3, [pc, #160]	@ (80038fc <HAL_RCC_ClockConfig+0x244>)
 800385a:	691b      	ldr	r3, [r3, #16]
 800385c:	f023 0207 	bic.w	r2, r3, #7
 8003860:	687b      	ldr	r3, [r7, #4]
 8003862:	685b      	ldr	r3, [r3, #4]
 8003864:	4925      	ldr	r1, [pc, #148]	@ (80038fc <HAL_RCC_ClockConfig+0x244>)
 8003866:	4313      	orrs	r3, r2
 8003868:	610b      	str	r3, [r1, #16]

    /* Get Start Tick*/
    tickstart = HAL_GetTick();
 800386a:	f7fd fcc3 	bl	80011f4 <HAL_GetTick>
 800386e:	6178      	str	r0, [r7, #20]

    while (__HAL_RCC_GET_SYSCLK_SOURCE() != (RCC_ClkInitStruct->SYSCLKSource << RCC_CFGR_SWS_Pos))
 8003870:	e00a      	b.n	8003888 <HAL_RCC_ClockConfig+0x1d0>
    {
      if ((HAL_GetTick() - tickstart) > CLOCKSWITCH_TIMEOUT_VALUE)
 8003872:	f7fd fcbf 	bl	80011f4 <HAL_GetTick>
 8003876:	4602      	mov	r2, r0
 8003878:	697b      	ldr	r3, [r7, #20]
 800387a:	1ad3      	subs	r3, r2, r3
 800387c:	f241 3288 	movw	r2, #5000	@ 0x1388
 8003880:	4293      	cmp	r3, r2
 8003882:	d901      	bls.n	8003888 <HAL_RCC_ClockConfig+0x1d0>
      {
        return HAL_TIMEOUT;
 8003884:	2303      	movs	r3, #3
 8003886:	e0be      	b.n	8003a06 <HAL_RCC_ClockConfig+0x34e>
    while (__HAL_RCC_GET_SYSCLK_SOURCE() != (RCC_ClkInitStruct->SYSCLKSource << RCC_CFGR_SWS_Pos))
 8003888:	4b1c      	ldr	r3, [pc, #112]	@ (80038fc <HAL_RCC_ClockConfig+0x244>)
 800388a:	691b      	ldr	r3, [r3, #16]
 800388c:	f003 0238 	and.w	r2, r3, #56	@ 0x38
 8003890:	687b      	ldr	r3, [r7, #4]
 8003892:	685b      	ldr	r3, [r3, #4]
 8003894:	00db      	lsls	r3, r3, #3
 8003896:	429a      	cmp	r2, r3
 8003898:	d1eb      	bne.n	8003872 <HAL_RCC_ClockConfig+0x1ba>

  }

  /* Decreasing the BUS frequency divider */
  /*-------------------------- HCLK Configuration --------------------------*/
  if (((RCC_ClkInitStruct->ClockType) & RCC_CLOCKTYPE_HCLK) == RCC_CLOCKTYPE_HCLK)
 800389a:	687b      	ldr	r3, [r7, #4]
 800389c:	681b      	ldr	r3, [r3, #0]
 800389e:	f003 0302 	and.w	r3, r3, #2
 80038a2:	2b00      	cmp	r3, #0
 80038a4:	d010      	beq.n	80038c8 <HAL_RCC_ClockConfig+0x210>
  {
#if defined(RCC_D1CFGR_HPRE)
    if ((RCC_ClkInitStruct->AHBCLKDivider) < (RCC->D1CFGR & RCC_D1CFGR_HPRE))
 80038a6:	687b      	ldr	r3, [r7, #4]
 80038a8:	68da      	ldr	r2, [r3, #12]
 80038aa:	4b14      	ldr	r3, [pc, #80]	@ (80038fc <HAL_RCC_ClockConfig+0x244>)
 80038ac:	699b      	ldr	r3, [r3, #24]
 80038ae:	f003 030f 	and.w	r3, r3, #15
 80038b2:	429a      	cmp	r2, r3
 80038b4:	d208      	bcs.n	80038c8 <HAL_RCC_ClockConfig+0x210>
    {
      /* Set the new HCLK clock divider */
      assert_param(IS_RCC_HCLK(RCC_ClkInitStruct->AHBCLKDivider));
      MODIFY_REG(RCC->D1CFGR, RCC_D1CFGR_HPRE, RCC_ClkInitStruct->AHBCLKDivider);
 80038b6:	4b11      	ldr	r3, [pc, #68]	@ (80038fc <HAL_RCC_ClockConfig+0x244>)
 80038b8:	699b      	ldr	r3, [r3, #24]
 80038ba:	f023 020f 	bic.w	r2, r3, #15
 80038be:	687b      	ldr	r3, [r7, #4]
 80038c0:	68db      	ldr	r3, [r3, #12]
 80038c2:	490e      	ldr	r1, [pc, #56]	@ (80038fc <HAL_RCC_ClockConfig+0x244>)
 80038c4:	4313      	orrs	r3, r2
 80038c6:	618b      	str	r3, [r1, #24]
    }
#endif
  }

  /* Decreasing the number of wait states because of lower CPU frequency */
  if (FLatency < __HAL_FLASH_GET_LATENCY())
 80038c8:	4b0b      	ldr	r3, [pc, #44]	@ (80038f8 <HAL_RCC_ClockConfig+0x240>)
 80038ca:	681b      	ldr	r3, [r3, #0]
 80038cc:	f003 030f 	and.w	r3, r3, #15
 80038d0:	683a      	ldr	r2, [r7, #0]
 80038d2:	429a      	cmp	r2, r3
 80038d4:	d214      	bcs.n	8003900 <HAL_RCC_ClockConfig+0x248>
  {
    /* Program the new number of wait states to the LATENCY bits in the FLASH_ACR register */
    __HAL_FLASH_SET_LATENCY(FLatency);
 80038d6:	4b08      	ldr	r3, [pc, #32]	@ (80038f8 <HAL_RCC_ClockConfig+0x240>)
 80038d8:	681b      	ldr	r3, [r3, #0]
 80038da:	f023 020f 	bic.w	r2, r3, #15
 80038de:	4906      	ldr	r1, [pc, #24]	@ (80038f8 <HAL_RCC_ClockConfig+0x240>)
 80038e0:	683b      	ldr	r3, [r7, #0]
 80038e2:	4313      	orrs	r3, r2
 80038e4:	600b      	str	r3, [r1, #0]

    /* Check that the new number of wait states is taken into account to access the Flash
    memory by reading the FLASH_ACR register */
    if (__HAL_FLASH_GET_LATENCY() != FLatency)
 80038e6:	4b04      	ldr	r3, [pc, #16]	@ (80038f8 <HAL_RCC_ClockConfig+0x240>)
 80038e8:	681b      	ldr	r3, [r3, #0]
 80038ea:	f003 030f 	and.w	r3, r3, #15
 80038ee:	683a      	ldr	r2, [r7, #0]
 80038f0:	429a      	cmp	r2, r3
 80038f2:	d005      	beq.n	8003900 <HAL_RCC_ClockConfig+0x248>
    {
      return HAL_ERROR;
 80038f4:	2301      	movs	r3, #1
 80038f6:	e086      	b.n	8003a06 <HAL_RCC_ClockConfig+0x34e>
 80038f8:	52002000 	.word	0x52002000
 80038fc:	58024400 	.word	0x58024400
    }
  }

  /*-------------------------- D1PCLK1/CDPCLK Configuration ---------------------------*/
  if (((RCC_ClkInitStruct->ClockType) & RCC_CLOCKTYPE_D1PCLK1) == RCC_CLOCKTYPE_D1PCLK1)
 8003900:	687b      	ldr	r3, [r7, #4]
 8003902:	681b      	ldr	r3, [r3, #0]
 8003904:	f003 0304 	and.w	r3, r3, #4
 8003908:	2b00      	cmp	r3, #0
 800390a:	d010      	beq.n	800392e <HAL_RCC_ClockConfig+0x276>
  {
#if defined(RCC_D1CFGR_D1PPRE)
    if ((RCC_ClkInitStruct->APB3CLKDivider) < (RCC->D1CFGR & RCC_D1CFGR_D1PPRE))
 800390c:	687b      	ldr	r3, [r7, #4]
 800390e:	691a      	ldr	r2, [r3, #16]
 8003910:	4b3f      	ldr	r3, [pc, #252]	@ (8003a10 <HAL_RCC_ClockConfig+0x358>)
 8003912:	699b      	ldr	r3, [r3, #24]
 8003914:	f003 0370 	and.w	r3, r3, #112	@ 0x70
 8003918:	429a      	cmp	r2, r3
 800391a:	d208      	bcs.n	800392e <HAL_RCC_ClockConfig+0x276>
    {
      assert_param(IS_RCC_D1PCLK1(RCC_ClkInitStruct->APB3CLKDivider));
      MODIFY_REG(RCC->D1CFGR, RCC_D1CFGR_D1PPRE, RCC_ClkInitStruct->APB3CLKDivider);
 800391c:	4b3c      	ldr	r3, [pc, #240]	@ (8003a10 <HAL_RCC_ClockConfig+0x358>)
 800391e:	699b      	ldr	r3, [r3, #24]
 8003920:	f023 0270 	bic.w	r2, r3, #112	@ 0x70
 8003924:	687b      	ldr	r3, [r7, #4]
 8003926:	691b      	ldr	r3, [r3, #16]
 8003928:	4939      	ldr	r1, [pc, #228]	@ (8003a10 <HAL_RCC_ClockConfig+0x358>)
 800392a:	4313      	orrs	r3, r2
 800392c:	618b      	str	r3, [r1, #24]
    }
#endif
  }

  /*-------------------------- PCLK1 Configuration ---------------------------*/
  if (((RCC_ClkInitStruct->ClockType) & RCC_CLOCKTYPE_PCLK1) == RCC_CLOCKTYPE_PCLK1)
 800392e:	687b      	ldr	r3, [r7, #4]
 8003930:	681b      	ldr	r3, [r3, #0]
 8003932:	f003 0308 	and.w	r3, r3, #8
 8003936:	2b00      	cmp	r3, #0
 8003938:	d010      	beq.n	800395c <HAL_RCC_ClockConfig+0x2a4>
  {
#if defined(RCC_D2CFGR_D2PPRE1)
    if ((RCC_ClkInitStruct->APB1CLKDivider) < (RCC->D2CFGR & RCC_D2CFGR_D2PPRE1))
 800393a:	687b      	ldr	r3, [r7, #4]
 800393c:	695a      	ldr	r2, [r3, #20]
 800393e:	4b34      	ldr	r3, [pc, #208]	@ (8003a10 <HAL_RCC_ClockConfig+0x358>)
 8003940:	69db      	ldr	r3, [r3, #28]
 8003942:	f003 0370 	and.w	r3, r3, #112	@ 0x70
 8003946:	429a      	cmp	r2, r3
 8003948:	d208      	bcs.n	800395c <HAL_RCC_ClockConfig+0x2a4>
    {
      assert_param(IS_RCC_PCLK1(RCC_ClkInitStruct->APB1CLKDivider));
      MODIFY_REG(RCC->D2CFGR, RCC_D2CFGR_D2PPRE1, (RCC_ClkInitStruct->APB1CLKDivider));
 800394a:	4b31      	ldr	r3, [pc, #196]	@ (8003a10 <HAL_RCC_ClockConfig+0x358>)
 800394c:	69db      	ldr	r3, [r3, #28]
 800394e:	f023 0270 	bic.w	r2, r3, #112	@ 0x70
 8003952:	687b      	ldr	r3, [r7, #4]
 8003954:	695b      	ldr	r3, [r3, #20]
 8003956:	492e      	ldr	r1, [pc, #184]	@ (8003a10 <HAL_RCC_ClockConfig+0x358>)
 8003958:	4313      	orrs	r3, r2
 800395a:	61cb      	str	r3, [r1, #28]
    }
#endif
  }

  /*-------------------------- PCLK2 Configuration ---------------------------*/
  if (((RCC_ClkInitStruct->ClockType) & RCC_CLOCKTYPE_PCLK2) == RCC_CLOCKTYPE_PCLK2)
 800395c:	687b      	ldr	r3, [r7, #4]
 800395e:	681b      	ldr	r3, [r3, #0]
 8003960:	f003 0310 	and.w	r3, r3, #16
 8003964:	2b00      	cmp	r3, #0
 8003966:	d010      	beq.n	800398a <HAL_RCC_ClockConfig+0x2d2>
  {
#if defined (RCC_D2CFGR_D2PPRE2)
    if ((RCC_ClkInitStruct->APB2CLKDivider) < (RCC->D2CFGR & RCC_D2CFGR_D2PPRE2))
 8003968:	687b      	ldr	r3, [r7, #4]
 800396a:	699a      	ldr	r2, [r3, #24]
 800396c:	4b28      	ldr	r3, [pc, #160]	@ (8003a10 <HAL_RCC_ClockConfig+0x358>)
 800396e:	69db      	ldr	r3, [r3, #28]
 8003970:	f403 63e0 	and.w	r3, r3, #1792	@ 0x700
 8003974:	429a      	cmp	r2, r3
 8003976:	d208      	bcs.n	800398a <HAL_RCC_ClockConfig+0x2d2>
    {
      assert_param(IS_RCC_PCLK2(RCC_ClkInitStruct->APB2CLKDivider));
      MODIFY_REG(RCC->D2CFGR, RCC_D2CFGR_D2PPRE2, (RCC_ClkInitStruct->APB2CLKDivider));
 8003978:	4b25      	ldr	r3, [pc, #148]	@ (8003a10 <HAL_RCC_ClockConfig+0x358>)
 800397a:	69db      	ldr	r3, [r3, #28]
 800397c:	f423 62e0 	bic.w	r2, r3, #1792	@ 0x700
 8003980:	687b      	ldr	r3, [r7, #4]
 8003982:	699b      	ldr	r3, [r3, #24]
 8003984:	4922      	ldr	r1, [pc, #136]	@ (8003a10 <HAL_RCC_ClockConfig+0x358>)
 8003986:	4313      	orrs	r3, r2
 8003988:	61cb      	str	r3, [r1, #28]
    }
#endif
  }

  /*-------------------------- D3PCLK1/SRDPCLK1 Configuration ---------------------------*/
  if (((RCC_ClkInitStruct->ClockType) & RCC_CLOCKTYPE_D3PCLK1) == RCC_CLOCKTYPE_D3PCLK1)
 800398a:	687b      	ldr	r3, [r7, #4]
 800398c:	681b      	ldr	r3, [r3, #0]
 800398e:	f003 0320 	and.w	r3, r3, #32
 8003992:	2b00      	cmp	r3, #0
 8003994:	d010      	beq.n	80039b8 <HAL_RCC_ClockConfig+0x300>
  {
#if defined(RCC_D3CFGR_D3PPRE)
    if ((RCC_ClkInitStruct->APB4CLKDivider) < (RCC->D3CFGR & RCC_D3CFGR_D3PPRE))
 8003996:	687b      	ldr	r3, [r7, #4]
 8003998:	69da      	ldr	r2, [r3, #28]
 800399a:	4b1d      	ldr	r3, [pc, #116]	@ (8003a10 <HAL_RCC_ClockConfig+0x358>)
 800399c:	6a1b      	ldr	r3, [r3, #32]
 800399e:	f003 0370 	and.w	r3, r3, #112	@ 0x70
 80039a2:	429a      	cmp	r2, r3
 80039a4:	d208      	bcs.n	80039b8 <HAL_RCC_ClockConfig+0x300>
    {
      assert_param(IS_RCC_D3PCLK1(RCC_ClkInitStruct->APB4CLKDivider));
      MODIFY_REG(RCC->D3CFGR, RCC_D3CFGR_D3PPRE, (RCC_ClkInitStruct->APB4CLKDivider));
 80039a6:	4b1a      	ldr	r3, [pc, #104]	@ (8003a10 <HAL_RCC_ClockConfig+0x358>)
 80039a8:	6a1b      	ldr	r3, [r3, #32]
 80039aa:	f023 0270 	bic.w	r2, r3, #112	@ 0x70
 80039ae:	687b      	ldr	r3, [r7, #4]
 80039b0:	69db      	ldr	r3, [r3, #28]
 80039b2:	4917      	ldr	r1, [pc, #92]	@ (8003a10 <HAL_RCC_ClockConfig+0x358>)
 80039b4:	4313      	orrs	r3, r2
 80039b6:	620b      	str	r3, [r1, #32]
#endif
  }

  /* Update the SystemCoreClock global variable */
#if defined(RCC_D1CFGR_D1CPRE)
  common_system_clock = HAL_RCC_GetSysClockFreq() >> ((D1CorePrescTable[(RCC->D1CFGR & RCC_D1CFGR_D1CPRE) >> RCC_D1CFGR_D1CPRE_Pos]) & 0x1FU);
 80039b8:	f000 f834 	bl	8003a24 <HAL_RCC_GetSysClockFreq>
 80039bc:	4602      	mov	r2, r0
 80039be:	4b14      	ldr	r3, [pc, #80]	@ (8003a10 <HAL_RCC_ClockConfig+0x358>)
 80039c0:	699b      	ldr	r3, [r3, #24]
 80039c2:	0a1b      	lsrs	r3, r3, #8
 80039c4:	f003 030f 	and.w	r3, r3, #15
 80039c8:	4912      	ldr	r1, [pc, #72]	@ (8003a14 <HAL_RCC_ClockConfig+0x35c>)
 80039ca:	5ccb      	ldrb	r3, [r1, r3]
 80039cc:	f003 031f 	and.w	r3, r3, #31
 80039d0:	fa22 f303 	lsr.w	r3, r2, r3
 80039d4:	613b      	str	r3, [r7, #16]
#else
  common_system_clock = HAL_RCC_GetSysClockFreq() >> ((D1CorePrescTable[(RCC->CDCFGR1 & RCC_CDCFGR1_CDCPRE) >> RCC_CDCFGR1_CDCPRE_Pos]) & 0x1FU);
#endif

#if defined(RCC_D1CFGR_HPRE)
  SystemD2Clock = (common_system_clock >> ((D1CorePrescTable[(RCC->D1CFGR & RCC_D1CFGR_HPRE) >> RCC_D1CFGR_HPRE_Pos]) & 0x1FU));
 80039d6:	4b0e      	ldr	r3, [pc, #56]	@ (8003a10 <HAL_RCC_ClockConfig+0x358>)
 80039d8:	699b      	ldr	r3, [r3, #24]
 80039da:	f003 030f 	and.w	r3, r3, #15
 80039de:	4a0d      	ldr	r2, [pc, #52]	@ (8003a14 <HAL_RCC_ClockConfig+0x35c>)
 80039e0:	5cd3      	ldrb	r3, [r2, r3]
 80039e2:	f003 031f 	and.w	r3, r3, #31
 80039e6:	693a      	ldr	r2, [r7, #16]
 80039e8:	fa22 f303 	lsr.w	r3, r2, r3
 80039ec:	4a0a      	ldr	r2, [pc, #40]	@ (8003a18 <HAL_RCC_ClockConfig+0x360>)
 80039ee:	6013      	str	r3, [r2, #0]
#endif

#if defined(DUAL_CORE) && defined(CORE_CM4)
  SystemCoreClock = SystemD2Clock;
#else
  SystemCoreClock = common_system_clock;
 80039f0:	4a0a      	ldr	r2, [pc, #40]	@ (8003a1c <HAL_RCC_ClockConfig+0x364>)
 80039f2:	693b      	ldr	r3, [r7, #16]
 80039f4:	6013      	str	r3, [r2, #0]
#endif /* DUAL_CORE && CORE_CM4 */

  /* Configure the source of time base considering new system clocks settings*/
  halstatus = HAL_InitTick(uwTickPrio);
 80039f6:	4b0a      	ldr	r3, [pc, #40]	@ (8003a20 <HAL_RCC_ClockConfig+0x368>)
 80039f8:	681b      	ldr	r3, [r3, #0]
 80039fa:	4618      	mov	r0, r3
 80039fc:	f7fd fbb0 	bl	8001160 <HAL_InitTick>
 8003a00:	4603      	mov	r3, r0
 8003a02:	73fb      	strb	r3, [r7, #15]

  return halstatus;
 8003a04:	7bfb      	ldrb	r3, [r7, #15]
}
 8003a06:	4618      	mov	r0, r3
 8003a08:	3718      	adds	r7, #24
 8003a0a:	46bd      	mov	sp, r7
 8003a0c:	bd80      	pop	{r7, pc}
 8003a0e:	bf00      	nop
 8003a10:	58024400 	.word	0x58024400
 8003a14:	08009cf8 	.word	0x08009cf8
 8003a18:	24000004 	.word	0x24000004
 8003a1c:	24000000 	.word	0x24000000
 8003a20:	24000008 	.word	0x24000008

08003a24 <HAL_RCC_GetSysClockFreq>:
  *
  *
  * @retval SYSCLK frequency
  */
uint32_t HAL_RCC_GetSysClockFreq(void)
{
 8003a24:	b480      	push	{r7}
 8003a26:	b089      	sub	sp, #36	@ 0x24
 8003a28:	af00      	add	r7, sp, #0
  float_t fracn1, pllvco;
  uint32_t sysclockfreq;

  /* Get SYSCLK source -------------------------------------------------------*/

  switch (RCC->CFGR & RCC_CFGR_SWS)
 8003a2a:	4bb3      	ldr	r3, [pc, #716]	@ (8003cf8 <HAL_RCC_GetSysClockFreq+0x2d4>)
 8003a2c:	691b      	ldr	r3, [r3, #16]
 8003a2e:	f003 0338 	and.w	r3, r3, #56	@ 0x38
 8003a32:	2b18      	cmp	r3, #24
 8003a34:	f200 8155 	bhi.w	8003ce2 <HAL_RCC_GetSysClockFreq+0x2be>
 8003a38:	a201      	add	r2, pc, #4	@ (adr r2, 8003a40 <HAL_RCC_GetSysClockFreq+0x1c>)
 8003a3a:	f852 f023 	ldr.w	pc, [r2, r3, lsl #2]
 8003a3e:	bf00      	nop
 8003a40:	08003aa5 	.word	0x08003aa5
 8003a44:	08003ce3 	.word	0x08003ce3
 8003a48:	08003ce3 	.word	0x08003ce3
 8003a4c:	08003ce3 	.word	0x08003ce3
 8003a50:	08003ce3 	.word	0x08003ce3
 8003a54:	08003ce3 	.word	0x08003ce3
 8003a58:	08003ce3 	.word	0x08003ce3
 8003a5c:	08003ce3 	.word	0x08003ce3
 8003a60:	08003acb 	.word	0x08003acb
 8003a64:	08003ce3 	.word	0x08003ce3
 8003a68:	08003ce3 	.word	0x08003ce3
 8003a6c:	08003ce3 	.word	0x08003ce3
 8003a70:	08003ce3 	.word	0x08003ce3
 8003a74:	08003ce3 	.word	0x08003ce3
 8003a78:	08003ce3 	.word	0x08003ce3
 8003a7c:	08003ce3 	.word	0x08003ce3
 8003a80:	08003ad1 	.word	0x08003ad1
 8003a84:	08003ce3 	.word	0x08003ce3
 8003a88:	08003ce3 	.word	0x08003ce3
 8003a8c:	08003ce3 	.word	0x08003ce3
 8003a90:	08003ce3 	.word	0x08003ce3
 8003a94:	08003ce3 	.word	0x08003ce3
 8003a98:	08003ce3 	.word	0x08003ce3
 8003a9c:	08003ce3 	.word	0x08003ce3
 8003aa0:	08003ad7 	.word	0x08003ad7
  {
    case RCC_CFGR_SWS_HSI:  /* HSI used as system clock source */

      if (__HAL_RCC_GET_FLAG(RCC_FLAG_HSIDIV) != 0U)
 8003aa4:	4b94      	ldr	r3, [pc, #592]	@ (8003cf8 <HAL_RCC_GetSysClockFreq+0x2d4>)
 8003aa6:	681b      	ldr	r3, [r3, #0]
 8003aa8:	f003 0320 	and.w	r3, r3, #32
 8003aac:	2b00      	cmp	r3, #0
 8003aae:	d009      	beq.n	8003ac4 <HAL_RCC_GetSysClockFreq+0xa0>
      {
        sysclockfreq = (uint32_t)(HSI_VALUE >> (__HAL_RCC_GET_HSI_DIVIDER() >> 3));
 8003ab0:	4b91      	ldr	r3, [pc, #580]	@ (8003cf8 <HAL_RCC_GetSysClockFreq+0x2d4>)
 8003ab2:	681b      	ldr	r3, [r3, #0]
 8003ab4:	08db      	lsrs	r3, r3, #3
 8003ab6:	f003 0303 	and.w	r3, r3, #3
 8003aba:	4a90      	ldr	r2, [pc, #576]	@ (8003cfc <HAL_RCC_GetSysClockFreq+0x2d8>)
 8003abc:	fa22 f303 	lsr.w	r3, r2, r3
 8003ac0:	61bb      	str	r3, [r7, #24]
      else
      {
        sysclockfreq = (uint32_t) HSI_VALUE;
      }

      break;
 8003ac2:	e111      	b.n	8003ce8 <HAL_RCC_GetSysClockFreq+0x2c4>
        sysclockfreq = (uint32_t) HSI_VALUE;
 8003ac4:	4b8d      	ldr	r3, [pc, #564]	@ (8003cfc <HAL_RCC_GetSysClockFreq+0x2d8>)
 8003ac6:	61bb      	str	r3, [r7, #24]
      break;
 8003ac8:	e10e      	b.n	8003ce8 <HAL_RCC_GetSysClockFreq+0x2c4>

    case RCC_CFGR_SWS_CSI:  /* CSI used as system clock  source */
      sysclockfreq = CSI_VALUE;
 8003aca:	4b8d      	ldr	r3, [pc, #564]	@ (8003d00 <HAL_RCC_GetSysClockFreq+0x2dc>)
 8003acc:	61bb      	str	r3, [r7, #24]
      break;
 8003ace:	e10b      	b.n	8003ce8 <HAL_RCC_GetSysClockFreq+0x2c4>

    case RCC_CFGR_SWS_HSE:  /* HSE used as system clock  source */
      sysclockfreq = HSE_VALUE;
 8003ad0:	4b8c      	ldr	r3, [pc, #560]	@ (8003d04 <HAL_RCC_GetSysClockFreq+0x2e0>)
 8003ad2:	61bb      	str	r3, [r7, #24]
      break;
 8003ad4:	e108      	b.n	8003ce8 <HAL_RCC_GetSysClockFreq+0x2c4>
    case RCC_CFGR_SWS_PLL1:  /* PLL1 used as system clock  source */

      /* PLL_VCO = (HSE_VALUE or HSI_VALUE or CSI_VALUE/ PLLM) * PLLN
      SYSCLK = PLL_VCO / PLLR
      */
      pllsource = (RCC->PLLCKSELR & RCC_PLLCKSELR_PLLSRC);
 8003ad6:	4b88      	ldr	r3, [pc, #544]	@ (8003cf8 <HAL_RCC_GetSysClockFreq+0x2d4>)
 8003ad8:	6a9b      	ldr	r3, [r3, #40]	@ 0x28
 8003ada:	f003 0303 	and.w	r3, r3, #3
 8003ade:	617b      	str	r3, [r7, #20]
      pllm = ((RCC->PLLCKSELR & RCC_PLLCKSELR_DIVM1) >> 4)  ;
 8003ae0:	4b85      	ldr	r3, [pc, #532]	@ (8003cf8 <HAL_RCC_GetSysClockFreq+0x2d4>)
 8003ae2:	6a9b      	ldr	r3, [r3, #40]	@ 0x28
 8003ae4:	091b      	lsrs	r3, r3, #4
 8003ae6:	f003 033f 	and.w	r3, r3, #63	@ 0x3f
 8003aea:	613b      	str	r3, [r7, #16]
      pllfracen = ((RCC-> PLLCFGR & RCC_PLLCFGR_PLL1FRACEN) >> RCC_PLLCFGR_PLL1FRACEN_Pos);
 8003aec:	4b82      	ldr	r3, [pc, #520]	@ (8003cf8 <HAL_RCC_GetSysClockFreq+0x2d4>)
 8003aee:	6adb      	ldr	r3, [r3, #44]	@ 0x2c
 8003af0:	f003 0301 	and.w	r3, r3, #1
 8003af4:	60fb      	str	r3, [r7, #12]
      fracn1 = (float_t)(uint32_t)(pllfracen * ((RCC->PLL1FRACR & RCC_PLL1FRACR_FRACN1) >> 3));
 8003af6:	4b80      	ldr	r3, [pc, #512]	@ (8003cf8 <HAL_RCC_GetSysClockFreq+0x2d4>)
 8003af8:	6b5b      	ldr	r3, [r3, #52]	@ 0x34
 8003afa:	08db      	lsrs	r3, r3, #3
 8003afc:	f3c3 030c 	ubfx	r3, r3, #0, #13
 8003b00:	68fa      	ldr	r2, [r7, #12]
 8003b02:	fb02 f303 	mul.w	r3, r2, r3
 8003b06:	ee07 3a90 	vmov	s15, r3
 8003b0a:	eef8 7a67 	vcvt.f32.u32	s15, s15
 8003b0e:	edc7 7a02 	vstr	s15, [r7, #8]

      if (pllm != 0U)
 8003b12:	693b      	ldr	r3, [r7, #16]
 8003b14:	2b00      	cmp	r3, #0
 8003b16:	f000 80e1 	beq.w	8003cdc <HAL_RCC_GetSysClockFreq+0x2b8>
      {
        switch (pllsource)
 8003b1a:	697b      	ldr	r3, [r7, #20]
 8003b1c:	2b02      	cmp	r3, #2
 8003b1e:	f000 8083 	beq.w	8003c28 <HAL_RCC_GetSysClockFreq+0x204>
 8003b22:	697b      	ldr	r3, [r7, #20]
 8003b24:	2b02      	cmp	r3, #2
 8003b26:	f200 80a1 	bhi.w	8003c6c <HAL_RCC_GetSysClockFreq+0x248>
 8003b2a:	697b      	ldr	r3, [r7, #20]
 8003b2c:	2b00      	cmp	r3, #0
 8003b2e:	d003      	beq.n	8003b38 <HAL_RCC_GetSysClockFreq+0x114>
 8003b30:	697b      	ldr	r3, [r7, #20]
 8003b32:	2b01      	cmp	r3, #1
 8003b34:	d056      	beq.n	8003be4 <HAL_RCC_GetSysClockFreq+0x1c0>
 8003b36:	e099      	b.n	8003c6c <HAL_RCC_GetSysClockFreq+0x248>
        {
          case RCC_PLLSOURCE_HSI:  /* HSI used as PLL clock source */

            if (__HAL_RCC_GET_FLAG(RCC_FLAG_HSIDIV) != 0U)
 8003b38:	4b6f      	ldr	r3, [pc, #444]	@ (8003cf8 <HAL_RCC_GetSysClockFreq+0x2d4>)
 8003b3a:	681b      	ldr	r3, [r3, #0]
 8003b3c:	f003 0320 	and.w	r3, r3, #32
 8003b40:	2b00      	cmp	r3, #0
 8003b42:	d02d      	beq.n	8003ba0 <HAL_RCC_GetSysClockFreq+0x17c>
            {
              hsivalue = (HSI_VALUE >> (__HAL_RCC_GET_HSI_DIVIDER() >> 3));
 8003b44:	4b6c      	ldr	r3, [pc, #432]	@ (8003cf8 <HAL_RCC_GetSysClockFreq+0x2d4>)
 8003b46:	681b      	ldr	r3, [r3, #0]
 8003b48:	08db      	lsrs	r3, r3, #3
 8003b4a:	f003 0303 	and.w	r3, r3, #3
 8003b4e:	4a6b      	ldr	r2, [pc, #428]	@ (8003cfc <HAL_RCC_GetSysClockFreq+0x2d8>)
 8003b50:	fa22 f303 	lsr.w	r3, r2, r3
 8003b54:	607b      	str	r3, [r7, #4]
              pllvco = ((float_t)hsivalue / (float_t)pllm) * ((float_t)(uint32_t)(RCC->PLL1DIVR & RCC_PLL1DIVR_N1) + (fracn1 / (float_t)0x2000) + (float_t)1);
 8003b56:	687b      	ldr	r3, [r7, #4]
 8003b58:	ee07 3a90 	vmov	s15, r3
 8003b5c:	eef8 6a67 	vcvt.f32.u32	s13, s15
 8003b60:	693b      	ldr	r3, [r7, #16]
 8003b62:	ee07 3a90 	vmov	s15, r3
 8003b66:	eef8 7a67 	vcvt.f32.u32	s15, s15
 8003b6a:	ee86 7aa7 	vdiv.f32	s14, s13, s15
 8003b6e:	4b62      	ldr	r3, [pc, #392]	@ (8003cf8 <HAL_RCC_GetSysClockFreq+0x2d4>)
 8003b70:	6b1b      	ldr	r3, [r3, #48]	@ 0x30
 8003b72:	f3c3 0308 	ubfx	r3, r3, #0, #9
 8003b76:	ee07 3a90 	vmov	s15, r3
 8003b7a:	eef8 6a67 	vcvt.f32.u32	s13, s15
 8003b7e:	ed97 6a02 	vldr	s12, [r7, #8]
 8003b82:	eddf 5a61 	vldr	s11, [pc, #388]	@ 8003d08 <HAL_RCC_GetSysClockFreq+0x2e4>
 8003b86:	eec6 7a25 	vdiv.f32	s15, s12, s11
 8003b8a:	ee76 7aa7 	vadd.f32	s15, s13, s15
 8003b8e:	eef7 6a00 	vmov.f32	s13, #112	@ 0x3f800000  1.0
 8003b92:	ee77 7aa6 	vadd.f32	s15, s15, s13
 8003b96:	ee67 7a27 	vmul.f32	s15, s14, s15
 8003b9a:	edc7 7a07 	vstr	s15, [r7, #28]
            }
            else
            {
              pllvco = ((float_t)HSI_VALUE / (float_t)pllm) * ((float_t)(uint32_t)(RCC->PLL1DIVR & RCC_PLL1DIVR_N1) + (fracn1 / (float_t)0x2000) + (float_t)1);
            }
            break;
 8003b9e:	e087      	b.n	8003cb0 <HAL_RCC_GetSysClockFreq+0x28c>
              pllvco = ((float_t)HSI_VALUE / (float_t)pllm) * ((float_t)(uint32_t)(RCC->PLL1DIVR & RCC_PLL1DIVR_N1) + (fracn1 / (float_t)0x2000) + (float_t)1);
 8003ba0:	693b      	ldr	r3, [r7, #16]
 8003ba2:	ee07 3a90 	vmov	s15, r3
 8003ba6:	eef8 7a67 	vcvt.f32.u32	s15, s15
 8003baa:	eddf 6a58 	vldr	s13, [pc, #352]	@ 8003d0c <HAL_RCC_GetSysClockFreq+0x2e8>
 8003bae:	ee86 7aa7 	vdiv.f32	s14, s13, s15
 8003bb2:	4b51      	ldr	r3, [pc, #324]	@ (8003cf8 <HAL_RCC_GetSysClockFreq+0x2d4>)
 8003bb4:	6b1b      	ldr	r3, [r3, #48]	@ 0x30
 8003bb6:	f3c3 0308 	ubfx	r3, r3, #0, #9
 8003bba:	ee07 3a90 	vmov	s15, r3
 8003bbe:	eef8 6a67 	vcvt.f32.u32	s13, s15
 8003bc2:	ed97 6a02 	vldr	s12, [r7, #8]
 8003bc6:	eddf 5a50 	vldr	s11, [pc, #320]	@ 8003d08 <HAL_RCC_GetSysClockFreq+0x2e4>
 8003bca:	eec6 7a25 	vdiv.f32	s15, s12, s11
 8003bce:	ee76 7aa7 	vadd.f32	s15, s13, s15
 8003bd2:	eef7 6a00 	vmov.f32	s13, #112	@ 0x3f800000  1.0
 8003bd6:	ee77 7aa6 	vadd.f32	s15, s15, s13
 8003bda:	ee67 7a27 	vmul.f32	s15, s14, s15
 8003bde:	edc7 7a07 	vstr	s15, [r7, #28]
            break;
 8003be2:	e065      	b.n	8003cb0 <HAL_RCC_GetSysClockFreq+0x28c>

          case RCC_PLLSOURCE_CSI:  /* CSI used as PLL clock source */
            pllvco = ((float_t)CSI_VALUE / (float_t)pllm) * ((float_t)(uint32_t)(RCC->PLL1DIVR & RCC_PLL1DIVR_N1) + (fracn1 / (float_t)0x2000) + (float_t)1);
 8003be4:	693b      	ldr	r3, [r7, #16]
 8003be6:	ee07 3a90 	vmov	s15, r3
 8003bea:	eef8 7a67 	vcvt.f32.u32	s15, s15
 8003bee:	eddf 6a48 	vldr	s13, [pc, #288]	@ 8003d10 <HAL_RCC_GetSysClockFreq+0x2ec>
 8003bf2:	ee86 7aa7 	vdiv.f32	s14, s13, s15
 8003bf6:	4b40      	ldr	r3, [pc, #256]	@ (8003cf8 <HAL_RCC_GetSysClockFreq+0x2d4>)
 8003bf8:	6b1b      	ldr	r3, [r3, #48]	@ 0x30
 8003bfa:	f3c3 0308 	ubfx	r3, r3, #0, #9
 8003bfe:	ee07 3a90 	vmov	s15, r3
 8003c02:	eef8 6a67 	vcvt.f32.u32	s13, s15
 8003c06:	ed97 6a02 	vldr	s12, [r7, #8]
 8003c0a:	eddf 5a3f 	vldr	s11, [pc, #252]	@ 8003d08 <HAL_RCC_GetSysClockFreq+0x2e4>
 8003c0e:	eec6 7a25 	vdiv.f32	s15, s12, s11
 8003c12:	ee76 7aa7 	vadd.f32	s15, s13, s15
 8003c16:	eef7 6a00 	vmov.f32	s13, #112	@ 0x3f800000  1.0
 8003c1a:	ee77 7aa6 	vadd.f32	s15, s15, s13
 8003c1e:	ee67 7a27 	vmul.f32	s15, s14, s15
 8003c22:	edc7 7a07 	vstr	s15, [r7, #28]
            break;
 8003c26:	e043      	b.n	8003cb0 <HAL_RCC_GetSysClockFreq+0x28c>

          case RCC_PLLSOURCE_HSE:  /* HSE used as PLL clock source */
            pllvco = ((float_t)HSE_VALUE / (float_t)pllm) * ((float_t)(uint32_t)(RCC->PLL1DIVR & RCC_PLL1DIVR_N1) + (fracn1 / (float_t)0x2000) + (float_t)1);
 8003c28:	693b      	ldr	r3, [r7, #16]
 8003c2a:	ee07 3a90 	vmov	s15, r3
 8003c2e:	eef8 7a67 	vcvt.f32.u32	s15, s15
 8003c32:	eddf 6a38 	vldr	s13, [pc, #224]	@ 8003d14 <HAL_RCC_GetSysClockFreq+0x2f0>
 8003c36:	ee86 7aa7 	vdiv.f32	s14, s13, s15
 8003c3a:	4b2f      	ldr	r3, [pc, #188]	@ (8003cf8 <HAL_RCC_GetSysClockFreq+0x2d4>)
 8003c3c:	6b1b      	ldr	r3, [r3, #48]	@ 0x30
 8003c3e:	f3c3 0308 	ubfx	r3, r3, #0, #9
 8003c42:	ee07 3a90 	vmov	s15, r3
 8003c46:	eef8 6a67 	vcvt.f32.u32	s13, s15
 8003c4a:	ed97 6a02 	vldr	s12, [r7, #8]
 8003c4e:	eddf 5a2e 	vldr	s11, [pc, #184]	@ 8003d08 <HAL_RCC_GetSysClockFreq+0x2e4>
 8003c52:	eec6 7a25 	vdiv.f32	s15, s12, s11
 8003c56:	ee76 7aa7 	vadd.f32	s15, s13, s15
 8003c5a:	eef7 6a00 	vmov.f32	s13, #112	@ 0x3f800000  1.0
 8003c5e:	ee77 7aa6 	vadd.f32	s15, s15, s13
 8003c62:	ee67 7a27 	vmul.f32	s15, s14, s15
 8003c66:	edc7 7a07 	vstr	s15, [r7, #28]
            break;
 8003c6a:	e021      	b.n	8003cb0 <HAL_RCC_GetSysClockFreq+0x28c>

          default:
            pllvco = ((float_t)CSI_VALUE / (float_t)pllm) * ((float_t)(uint32_t)(RCC->PLL1DIVR & RCC_PLL1DIVR_N1) + (fracn1 / (float_t)0x2000) + (float_t)1);
 8003c6c:	693b      	ldr	r3, [r7, #16]
 8003c6e:	ee07 3a90 	vmov	s15, r3
 8003c72:	eef8 7a67 	vcvt.f32.u32	s15, s15
 8003c76:	eddf 6a26 	vldr	s13, [pc, #152]	@ 8003d10 <HAL_RCC_GetSysClockFreq+0x2ec>
 8003c7a:	ee86 7aa7 	vdiv.f32	s14, s13, s15
 8003c7e:	4b1e      	ldr	r3, [pc, #120]	@ (8003cf8 <HAL_RCC_GetSysClockFreq+0x2d4>)
 8003c80:	6b1b      	ldr	r3, [r3, #48]	@ 0x30
 8003c82:	f3c3 0308 	ubfx	r3, r3, #0, #9
 8003c86:	ee07 3a90 	vmov	s15, r3
 8003c8a:	eef8 6a67 	vcvt.f32.u32	s13, s15
 8003c8e:	ed97 6a02 	vldr	s12, [r7, #8]
 8003c92:	eddf 5a1d 	vldr	s11, [pc, #116]	@ 8003d08 <HAL_RCC_GetSysClockFreq+0x2e4>
 8003c96:	eec6 7a25 	vdiv.f32	s15, s12, s11
 8003c9a:	ee76 7aa7 	vadd.f32	s15, s13, s15
 8003c9e:	eef7 6a00 	vmov.f32	s13, #112	@ 0x3f800000  1.0
 8003ca2:	ee77 7aa6 	vadd.f32	s15, s15, s13
 8003ca6:	ee67 7a27 	vmul.f32	s15, s14, s15
 8003caa:	edc7 7a07 	vstr	s15, [r7, #28]
            break;
 8003cae:	bf00      	nop
        }
        pllp = (((RCC->PLL1DIVR & RCC_PLL1DIVR_P1) >> 9) + 1U) ;
 8003cb0:	4b11      	ldr	r3, [pc, #68]	@ (8003cf8 <HAL_RCC_GetSysClockFreq+0x2d4>)
 8003cb2:	6b1b      	ldr	r3, [r3, #48]	@ 0x30
 8003cb4:	0a5b      	lsrs	r3, r3, #9
 8003cb6:	f003 037f 	and.w	r3, r3, #127	@ 0x7f
 8003cba:	3301      	adds	r3, #1
 8003cbc:	603b      	str	r3, [r7, #0]
        sysclockfreq = (uint32_t)(float_t)(pllvco / (float_t)pllp);
 8003cbe:	683b      	ldr	r3, [r7, #0]
 8003cc0:	ee07 3a90 	vmov	s15, r3
 8003cc4:	eeb8 7a67 	vcvt.f32.u32	s14, s15
 8003cc8:	edd7 6a07 	vldr	s13, [r7, #28]
 8003ccc:	eec6 7a87 	vdiv.f32	s15, s13, s14
 8003cd0:	eefc 7ae7 	vcvt.u32.f32	s15, s15
 8003cd4:	ee17 3a90 	vmov	r3, s15
 8003cd8:	61bb      	str	r3, [r7, #24]
      }
      else
      {
        sysclockfreq = 0U;
      }
      break;
 8003cda:	e005      	b.n	8003ce8 <HAL_RCC_GetSysClockFreq+0x2c4>
        sysclockfreq = 0U;
 8003cdc:	2300      	movs	r3, #0
 8003cde:	61bb      	str	r3, [r7, #24]
      break;
 8003ce0:	e002      	b.n	8003ce8 <HAL_RCC_GetSysClockFreq+0x2c4>

    default:
      sysclockfreq = CSI_VALUE;
 8003ce2:	4b07      	ldr	r3, [pc, #28]	@ (8003d00 <HAL_RCC_GetSysClockFreq+0x2dc>)
 8003ce4:	61bb      	str	r3, [r7, #24]
      break;
 8003ce6:	bf00      	nop
  }

  return sysclockfreq;
 8003ce8:	69bb      	ldr	r3, [r7, #24]
}
 8003cea:	4618      	mov	r0, r3
 8003cec:	3724      	adds	r7, #36	@ 0x24
 8003cee:	46bd      	mov	sp, r7
 8003cf0:	f85d 7b04 	ldr.w	r7, [sp], #4
 8003cf4:	4770      	bx	lr
 8003cf6:	bf00      	nop
 8003cf8:	58024400 	.word	0x58024400
 8003cfc:	03d09000 	.word	0x03d09000
 8003d00:	003d0900 	.word	0x003d0900
 8003d04:	017d7840 	.word	0x017d7840
 8003d08:	46000000 	.word	0x46000000
 8003d0c:	4c742400 	.word	0x4c742400
 8003d10:	4a742400 	.word	0x4a742400
 8003d14:	4bbebc20 	.word	0x4bbebc20

08003d18 <HAL_RCC_GetHCLKFreq>:
  * @note   The SystemD2Clock CMSIS variable is used to store System domain2 Clock Frequency
  *         and updated within this function
  * @retval HCLK frequency
  */
uint32_t HAL_RCC_GetHCLKFreq(void)
{
 8003d18:	b580      	push	{r7, lr}
 8003d1a:	b082      	sub	sp, #8
 8003d1c:	af00      	add	r7, sp, #0
  uint32_t common_system_clock;

#if defined(RCC_D1CFGR_D1CPRE)
  common_system_clock = HAL_RCC_GetSysClockFreq() >> (D1CorePrescTable[(RCC->D1CFGR & RCC_D1CFGR_D1CPRE) >> RCC_D1CFGR_D1CPRE_Pos] & 0x1FU);
 8003d1e:	f7ff fe81 	bl	8003a24 <HAL_RCC_GetSysClockFreq>
 8003d22:	4602      	mov	r2, r0
 8003d24:	4b10      	ldr	r3, [pc, #64]	@ (8003d68 <HAL_RCC_GetHCLKFreq+0x50>)
 8003d26:	699b      	ldr	r3, [r3, #24]
 8003d28:	0a1b      	lsrs	r3, r3, #8
 8003d2a:	f003 030f 	and.w	r3, r3, #15
 8003d2e:	490f      	ldr	r1, [pc, #60]	@ (8003d6c <HAL_RCC_GetHCLKFreq+0x54>)
 8003d30:	5ccb      	ldrb	r3, [r1, r3]
 8003d32:	f003 031f 	and.w	r3, r3, #31
 8003d36:	fa22 f303 	lsr.w	r3, r2, r3
 8003d3a:	607b      	str	r3, [r7, #4]
#else
  common_system_clock = HAL_RCC_GetSysClockFreq() >> (D1CorePrescTable[(RCC->CDCFGR1 & RCC_CDCFGR1_CDCPRE) >> RCC_CDCFGR1_CDCPRE_Pos] & 0x1FU);
#endif

#if defined(RCC_D1CFGR_HPRE)
  SystemD2Clock = (common_system_clock >> ((D1CorePrescTable[(RCC->D1CFGR & RCC_D1CFGR_HPRE) >> RCC_D1CFGR_HPRE_Pos]) & 0x1FU));
 8003d3c:	4b0a      	ldr	r3, [pc, #40]	@ (8003d68 <HAL_RCC_GetHCLKFreq+0x50>)
 8003d3e:	699b      	ldr	r3, [r3, #24]
 8003d40:	f003 030f 	and.w	r3, r3, #15
 8003d44:	4a09      	ldr	r2, [pc, #36]	@ (8003d6c <HAL_RCC_GetHCLKFreq+0x54>)
 8003d46:	5cd3      	ldrb	r3, [r2, r3]
 8003d48:	f003 031f 	and.w	r3, r3, #31
 8003d4c:	687a      	ldr	r2, [r7, #4]
 8003d4e:	fa22 f303 	lsr.w	r3, r2, r3
 8003d52:	4a07      	ldr	r2, [pc, #28]	@ (8003d70 <HAL_RCC_GetHCLKFreq+0x58>)
 8003d54:	6013      	str	r3, [r2, #0]
#endif

#if defined(DUAL_CORE) && defined(CORE_CM4)
  SystemCoreClock = SystemD2Clock;
#else
  SystemCoreClock = common_system_clock;
 8003d56:	4a07      	ldr	r2, [pc, #28]	@ (8003d74 <HAL_RCC_GetHCLKFreq+0x5c>)
 8003d58:	687b      	ldr	r3, [r7, #4]
 8003d5a:	6013      	str	r3, [r2, #0]
#endif /* DUAL_CORE && CORE_CM4 */

  return SystemD2Clock;
 8003d5c:	4b04      	ldr	r3, [pc, #16]	@ (8003d70 <HAL_RCC_GetHCLKFreq+0x58>)
 8003d5e:	681b      	ldr	r3, [r3, #0]
}
 8003d60:	4618      	mov	r0, r3
 8003d62:	3708      	adds	r7, #8
 8003d64:	46bd      	mov	sp, r7
 8003d66:	bd80      	pop	{r7, pc}
 8003d68:	58024400 	.word	0x58024400
 8003d6c:	08009cf8 	.word	0x08009cf8
 8003d70:	24000004 	.word	0x24000004
 8003d74:	24000000 	.word	0x24000000

08003d78 <HAL_RCCEx_PeriphCLKConfig>:
  * (*) : Available on some STM32H7 lines only.
  *
  * @retval HAL status
  */
HAL_StatusTypeDef HAL_RCCEx_PeriphCLKConfig(RCC_PeriphCLKInitTypeDef  *PeriphClkInit)
{
 8003d78:	e92d 4fb0 	stmdb	sp!, {r4, r5, r7, r8, r9, sl, fp, lr}
 8003d7c:	b0c6      	sub	sp, #280	@ 0x118
 8003d7e:	af00      	add	r7, sp, #0
 8003d80:	f8c7 0104 	str.w	r0, [r7, #260]	@ 0x104
  uint32_t tmpreg;
  uint32_t tickstart;
  HAL_StatusTypeDef ret = HAL_OK;      /* Intermediate status */
 8003d84:	2300      	movs	r3, #0
 8003d86:	f887 3117 	strb.w	r3, [r7, #279]	@ 0x117
  HAL_StatusTypeDef status = HAL_OK;   /* Final status */
 8003d8a:	2300      	movs	r3, #0
 8003d8c:	f887 3116 	strb.w	r3, [r7, #278]	@ 0x116

  /*---------------------------- SPDIFRX configuration -------------------------------*/

  if (((PeriphClkInit->PeriphClockSelection) & RCC_PERIPHCLK_SPDIFRX) == RCC_PERIPHCLK_SPDIFRX)
 8003d90:	f8d7 3104 	ldr.w	r3, [r7, #260]	@ 0x104
 8003d94:	e9d3 2300 	ldrd	r2, r3, [r3]
 8003d98:	f002 6400 	and.w	r4, r2, #134217728	@ 0x8000000
 8003d9c:	2500      	movs	r5, #0
 8003d9e:	ea54 0305 	orrs.w	r3, r4, r5
 8003da2:	d049      	beq.n	8003e38 <HAL_RCCEx_PeriphCLKConfig+0xc0>
  {

    switch (PeriphClkInit->SpdifrxClockSelection)
 8003da4:	f8d7 3104 	ldr.w	r3, [r7, #260]	@ 0x104
 8003da8:	6e5b      	ldr	r3, [r3, #100]	@ 0x64
 8003daa:	f5b3 1f40 	cmp.w	r3, #3145728	@ 0x300000
 8003dae:	d02f      	beq.n	8003e10 <HAL_RCCEx_PeriphCLKConfig+0x98>
 8003db0:	f5b3 1f40 	cmp.w	r3, #3145728	@ 0x300000
 8003db4:	d828      	bhi.n	8003e08 <HAL_RCCEx_PeriphCLKConfig+0x90>
 8003db6:	f5b3 1f00 	cmp.w	r3, #2097152	@ 0x200000
 8003dba:	d01a      	beq.n	8003df2 <HAL_RCCEx_PeriphCLKConfig+0x7a>
 8003dbc:	f5b3 1f00 	cmp.w	r3, #2097152	@ 0x200000
 8003dc0:	d822      	bhi.n	8003e08 <HAL_RCCEx_PeriphCLKConfig+0x90>
 8003dc2:	2b00      	cmp	r3, #0
 8003dc4:	d003      	beq.n	8003dce <HAL_RCCEx_PeriphCLKConfig+0x56>
 8003dc6:	f5b3 1f80 	cmp.w	r3, #1048576	@ 0x100000
 8003dca:	d007      	beq.n	8003ddc <HAL_RCCEx_PeriphCLKConfig+0x64>
 8003dcc:	e01c      	b.n	8003e08 <HAL_RCCEx_PeriphCLKConfig+0x90>
    {
      case RCC_SPDIFRXCLKSOURCE_PLL:      /* PLL is used as clock source for SPDIFRX*/
        /* Enable PLL1Q Clock output generated form System PLL . */
        __HAL_RCC_PLLCLKOUT_ENABLE(RCC_PLL1_DIVQ);
 8003dce:	4bab      	ldr	r3, [pc, #684]	@ (800407c <HAL_RCCEx_PeriphCLKConfig+0x304>)
 8003dd0:	6adb      	ldr	r3, [r3, #44]	@ 0x2c
 8003dd2:	4aaa      	ldr	r2, [pc, #680]	@ (800407c <HAL_RCCEx_PeriphCLKConfig+0x304>)
 8003dd4:	f443 3300 	orr.w	r3, r3, #131072	@ 0x20000
 8003dd8:	62d3      	str	r3, [r2, #44]	@ 0x2c

        /* SPDIFRX clock source configuration done later after clock selection check */
        break;
 8003dda:	e01a      	b.n	8003e12 <HAL_RCCEx_PeriphCLKConfig+0x9a>

      case RCC_SPDIFRXCLKSOURCE_PLL2: /* PLL2 is used as clock source for SPDIFRX*/

        ret = RCCEx_PLL2_Config(&(PeriphClkInit->PLL2), DIVIDER_R_UPDATE);
 8003ddc:	f8d7 3104 	ldr.w	r3, [r7, #260]	@ 0x104
 8003de0:	3308      	adds	r3, #8
 8003de2:	2102      	movs	r1, #2
 8003de4:	4618      	mov	r0, r3
 8003de6:	f001 f967 	bl	80050b8 <RCCEx_PLL2_Config>
 8003dea:	4603      	mov	r3, r0
 8003dec:	f887 3117 	strb.w	r3, [r7, #279]	@ 0x117

        /* SPDIFRX clock source configuration done later after clock selection check */
        break;
 8003df0:	e00f      	b.n	8003e12 <HAL_RCCEx_PeriphCLKConfig+0x9a>

      case RCC_SPDIFRXCLKSOURCE_PLL3:  /* PLL3 is used as clock source for SPDIFRX*/
        ret = RCCEx_PLL3_Config(&(PeriphClkInit->PLL3), DIVIDER_R_UPDATE);
 8003df2:	f8d7 3104 	ldr.w	r3, [r7, #260]	@ 0x104
 8003df6:	3328      	adds	r3, #40	@ 0x28
 8003df8:	2102      	movs	r1, #2
 8003dfa:	4618      	mov	r0, r3
 8003dfc:	f001 fa0e 	bl	800521c <RCCEx_PLL3_Config>
 8003e00:	4603      	mov	r3, r0
 8003e02:	f887 3117 	strb.w	r3, [r7, #279]	@ 0x117

        /* SPDIFRX clock source configuration done later after clock selection check */
        break;
 8003e06:	e004      	b.n	8003e12 <HAL_RCCEx_PeriphCLKConfig+0x9a>
        /* Internal OSC clock is used as source of SPDIFRX clock*/
        /* SPDIFRX clock source configuration done later after clock selection check */
        break;

      default:
        ret = HAL_ERROR;
 8003e08:	2301      	movs	r3, #1
 8003e0a:	f887 3117 	strb.w	r3, [r7, #279]	@ 0x117
        break;
 8003e0e:	e000      	b.n	8003e12 <HAL_RCCEx_PeriphCLKConfig+0x9a>
        break;
 8003e10:	bf00      	nop
    }

    if (ret == HAL_OK)
 8003e12:	f897 3117 	ldrb.w	r3, [r7, #279]	@ 0x117
 8003e16:	2b00      	cmp	r3, #0
 8003e18:	d10a      	bne.n	8003e30 <HAL_RCCEx_PeriphCLKConfig+0xb8>
    {
      /* Set the source of SPDIFRX clock*/
      __HAL_RCC_SPDIFRX_CONFIG(PeriphClkInit->SpdifrxClockSelection);
 8003e1a:	4b98      	ldr	r3, [pc, #608]	@ (800407c <HAL_RCCEx_PeriphCLKConfig+0x304>)
 8003e1c:	6d1b      	ldr	r3, [r3, #80]	@ 0x50
 8003e1e:	f423 1140 	bic.w	r1, r3, #3145728	@ 0x300000
 8003e22:	f8d7 3104 	ldr.w	r3, [r7, #260]	@ 0x104
 8003e26:	6e5b      	ldr	r3, [r3, #100]	@ 0x64
 8003e28:	4a94      	ldr	r2, [pc, #592]	@ (800407c <HAL_RCCEx_PeriphCLKConfig+0x304>)
 8003e2a:	430b      	orrs	r3, r1
 8003e2c:	6513      	str	r3, [r2, #80]	@ 0x50
 8003e2e:	e003      	b.n	8003e38 <HAL_RCCEx_PeriphCLKConfig+0xc0>
    }
    else
    {
      /* set overall return value */
      status = ret;
 8003e30:	f897 3117 	ldrb.w	r3, [r7, #279]	@ 0x117
 8003e34:	f887 3116 	strb.w	r3, [r7, #278]	@ 0x116
    }
  }

  /*---------------------------- SAI1 configuration -------------------------------*/
  if (((PeriphClkInit->PeriphClockSelection) & RCC_PERIPHCLK_SAI1) == RCC_PERIPHCLK_SAI1)
 8003e38:	f8d7 3104 	ldr.w	r3, [r7, #260]	@ 0x104
 8003e3c:	e9d3 2300 	ldrd	r2, r3, [r3]
 8003e40:	f402 7880 	and.w	r8, r2, #256	@ 0x100
 8003e44:	f04f 0900 	mov.w	r9, #0
 8003e48:	ea58 0309 	orrs.w	r3, r8, r9
 8003e4c:	d047      	beq.n	8003ede <HAL_RCCEx_PeriphCLKConfig+0x166>
  {
    switch (PeriphClkInit->Sai1ClockSelection)
 8003e4e:	f8d7 3104 	ldr.w	r3, [r7, #260]	@ 0x104
 8003e52:	6d9b      	ldr	r3, [r3, #88]	@ 0x58
 8003e54:	2b04      	cmp	r3, #4
 8003e56:	d82a      	bhi.n	8003eae <HAL_RCCEx_PeriphCLKConfig+0x136>
 8003e58:	a201      	add	r2, pc, #4	@ (adr r2, 8003e60 <HAL_RCCEx_PeriphCLKConfig+0xe8>)
 8003e5a:	f852 f023 	ldr.w	pc, [r2, r3, lsl #2]
 8003e5e:	bf00      	nop
 8003e60:	08003e75 	.word	0x08003e75
 8003e64:	08003e83 	.word	0x08003e83
 8003e68:	08003e99 	.word	0x08003e99
 8003e6c:	08003eb7 	.word	0x08003eb7
 8003e70:	08003eb7 	.word	0x08003eb7
    {
      case RCC_SAI1CLKSOURCE_PLL:      /* PLL is used as clock source for SAI1*/
        /* Enable SAI Clock output generated form System PLL . */
        __HAL_RCC_PLLCLKOUT_ENABLE(RCC_PLL1_DIVQ);
 8003e74:	4b81      	ldr	r3, [pc, #516]	@ (800407c <HAL_RCCEx_PeriphCLKConfig+0x304>)
 8003e76:	6adb      	ldr	r3, [r3, #44]	@ 0x2c
 8003e78:	4a80      	ldr	r2, [pc, #512]	@ (800407c <HAL_RCCEx_PeriphCLKConfig+0x304>)
 8003e7a:	f443 3300 	orr.w	r3, r3, #131072	@ 0x20000
 8003e7e:	62d3      	str	r3, [r2, #44]	@ 0x2c

        /* SAI1 clock source configuration done later after clock selection check */
        break;
 8003e80:	e01a      	b.n	8003eb8 <HAL_RCCEx_PeriphCLKConfig+0x140>

      case RCC_SAI1CLKSOURCE_PLL2: /* PLL2 is used as clock source for SAI1*/

        ret = RCCEx_PLL2_Config(&(PeriphClkInit->PLL2), DIVIDER_P_UPDATE);
 8003e82:	f8d7 3104 	ldr.w	r3, [r7, #260]	@ 0x104
 8003e86:	3308      	adds	r3, #8
 8003e88:	2100      	movs	r1, #0
 8003e8a:	4618      	mov	r0, r3
 8003e8c:	f001 f914 	bl	80050b8 <RCCEx_PLL2_Config>
 8003e90:	4603      	mov	r3, r0
 8003e92:	f887 3117 	strb.w	r3, [r7, #279]	@ 0x117

        /* SAI1 clock source configuration done later after clock selection check */
        break;
 8003e96:	e00f      	b.n	8003eb8 <HAL_RCCEx_PeriphCLKConfig+0x140>

      case RCC_SAI1CLKSOURCE_PLL3:  /* PLL3 is used as clock source for SAI1*/
        ret = RCCEx_PLL3_Config(&(PeriphClkInit->PLL3), DIVIDER_P_UPDATE);
 8003e98:	f8d7 3104 	ldr.w	r3, [r7, #260]	@ 0x104
 8003e9c:	3328      	adds	r3, #40	@ 0x28
 8003e9e:	2100      	movs	r1, #0
 8003ea0:	4618      	mov	r0, r3
 8003ea2:	f001 f9bb 	bl	800521c <RCCEx_PLL3_Config>
 8003ea6:	4603      	mov	r3, r0
 8003ea8:	f887 3117 	strb.w	r3, [r7, #279]	@ 0x117

        /* SAI1 clock source configuration done later after clock selection check */
        break;
 8003eac:	e004      	b.n	8003eb8 <HAL_RCCEx_PeriphCLKConfig+0x140>
        /* HSI, HSE, or CSI oscillator is used as source of SAI1 clock */
        /* SAI1 clock source configuration done later after clock selection check */
        break;

      default:
        ret = HAL_ERROR;
 8003eae:	2301      	movs	r3, #1
 8003eb0:	f887 3117 	strb.w	r3, [r7, #279]	@ 0x117
        break;
 8003eb4:	e000      	b.n	8003eb8 <HAL_RCCEx_PeriphCLKConfig+0x140>
        break;
 8003eb6:	bf00      	nop
    }

    if (ret == HAL_OK)
 8003eb8:	f897 3117 	ldrb.w	r3, [r7, #279]	@ 0x117
 8003ebc:	2b00      	cmp	r3, #0
 8003ebe:	d10a      	bne.n	8003ed6 <HAL_RCCEx_PeriphCLKConfig+0x15e>
    {
      /* Set the source of SAI1 clock*/
      __HAL_RCC_SAI1_CONFIG(PeriphClkInit->Sai1ClockSelection);
 8003ec0:	4b6e      	ldr	r3, [pc, #440]	@ (800407c <HAL_RCCEx_PeriphCLKConfig+0x304>)
 8003ec2:	6d1b      	ldr	r3, [r3, #80]	@ 0x50
 8003ec4:	f023 0107 	bic.w	r1, r3, #7
 8003ec8:	f8d7 3104 	ldr.w	r3, [r7, #260]	@ 0x104
 8003ecc:	6d9b      	ldr	r3, [r3, #88]	@ 0x58
 8003ece:	4a6b      	ldr	r2, [pc, #428]	@ (800407c <HAL_RCCEx_PeriphCLKConfig+0x304>)
 8003ed0:	430b      	orrs	r3, r1
 8003ed2:	6513      	str	r3, [r2, #80]	@ 0x50
 8003ed4:	e003      	b.n	8003ede <HAL_RCCEx_PeriphCLKConfig+0x166>
    }
    else
    {
      /* set overall return value */
      status = ret;
 8003ed6:	f897 3117 	ldrb.w	r3, [r7, #279]	@ 0x117
 8003eda:	f887 3116 	strb.w	r3, [r7, #278]	@ 0x116
  }
#endif  /*SAI2B*/

#if defined(SAI4)
  /*---------------------------- SAI4A configuration -------------------------------*/
  if (((PeriphClkInit->PeriphClockSelection) & RCC_PERIPHCLK_SAI4A) == RCC_PERIPHCLK_SAI4A)
 8003ede:	f8d7 3104 	ldr.w	r3, [r7, #260]	@ 0x104
 8003ee2:	e9d3 2300 	ldrd	r2, r3, [r3]
 8003ee6:	f402 6a80 	and.w	sl, r2, #1024	@ 0x400
 8003eea:	f04f 0b00 	mov.w	fp, #0
 8003eee:	ea5a 030b 	orrs.w	r3, sl, fp
 8003ef2:	d05b      	beq.n	8003fac <HAL_RCCEx_PeriphCLKConfig+0x234>
  {
    switch (PeriphClkInit->Sai4AClockSelection)
 8003ef4:	f8d7 3104 	ldr.w	r3, [r7, #260]	@ 0x104
 8003ef8:	f8d3 30a4 	ldr.w	r3, [r3, #164]	@ 0xa4
 8003efc:	f5b3 0f20 	cmp.w	r3, #10485760	@ 0xa00000
 8003f00:	d03b      	beq.n	8003f7a <HAL_RCCEx_PeriphCLKConfig+0x202>
 8003f02:	f5b3 0f20 	cmp.w	r3, #10485760	@ 0xa00000
 8003f06:	d834      	bhi.n	8003f72 <HAL_RCCEx_PeriphCLKConfig+0x1fa>
 8003f08:	f5b3 0f00 	cmp.w	r3, #8388608	@ 0x800000
 8003f0c:	d037      	beq.n	8003f7e <HAL_RCCEx_PeriphCLKConfig+0x206>
 8003f0e:	f5b3 0f00 	cmp.w	r3, #8388608	@ 0x800000
 8003f12:	d82e      	bhi.n	8003f72 <HAL_RCCEx_PeriphCLKConfig+0x1fa>
 8003f14:	f5b3 0fc0 	cmp.w	r3, #6291456	@ 0x600000
 8003f18:	d033      	beq.n	8003f82 <HAL_RCCEx_PeriphCLKConfig+0x20a>
 8003f1a:	f5b3 0fc0 	cmp.w	r3, #6291456	@ 0x600000
 8003f1e:	d828      	bhi.n	8003f72 <HAL_RCCEx_PeriphCLKConfig+0x1fa>
 8003f20:	f5b3 0f80 	cmp.w	r3, #4194304	@ 0x400000
 8003f24:	d01a      	beq.n	8003f5c <HAL_RCCEx_PeriphCLKConfig+0x1e4>
 8003f26:	f5b3 0f80 	cmp.w	r3, #4194304	@ 0x400000
 8003f2a:	d822      	bhi.n	8003f72 <HAL_RCCEx_PeriphCLKConfig+0x1fa>
 8003f2c:	2b00      	cmp	r3, #0
 8003f2e:	d003      	beq.n	8003f38 <HAL_RCCEx_PeriphCLKConfig+0x1c0>
 8003f30:	f5b3 1f00 	cmp.w	r3, #2097152	@ 0x200000
 8003f34:	d007      	beq.n	8003f46 <HAL_RCCEx_PeriphCLKConfig+0x1ce>
 8003f36:	e01c      	b.n	8003f72 <HAL_RCCEx_PeriphCLKConfig+0x1fa>
    {
      case RCC_SAI4ACLKSOURCE_PLL:      /* PLL is used as clock source for SAI2*/
        /* Enable SAI Clock output generated form System PLL . */
        __HAL_RCC_PLLCLKOUT_ENABLE(RCC_PLL1_DIVQ);
 8003f38:	4b50      	ldr	r3, [pc, #320]	@ (800407c <HAL_RCCEx_PeriphCLKConfig+0x304>)
 8003f3a:	6adb      	ldr	r3, [r3, #44]	@ 0x2c
 8003f3c:	4a4f      	ldr	r2, [pc, #316]	@ (800407c <HAL_RCCEx_PeriphCLKConfig+0x304>)
 8003f3e:	f443 3300 	orr.w	r3, r3, #131072	@ 0x20000
 8003f42:	62d3      	str	r3, [r2, #44]	@ 0x2c

        /* SAI1 clock source configuration done later after clock selection check */
        break;
 8003f44:	e01e      	b.n	8003f84 <HAL_RCCEx_PeriphCLKConfig+0x20c>

      case RCC_SAI4ACLKSOURCE_PLL2: /* PLL2 is used as clock source for SAI2*/

        ret = RCCEx_PLL2_Config(&(PeriphClkInit->PLL2), DIVIDER_P_UPDATE);
 8003f46:	f8d7 3104 	ldr.w	r3, [r7, #260]	@ 0x104
 8003f4a:	3308      	adds	r3, #8
 8003f4c:	2100      	movs	r1, #0
 8003f4e:	4618      	mov	r0, r3
 8003f50:	f001 f8b2 	bl	80050b8 <RCCEx_PLL2_Config>
 8003f54:	4603      	mov	r3, r0
 8003f56:	f887 3117 	strb.w	r3, [r7, #279]	@ 0x117

        /* SAI2 clock source configuration done later after clock selection check */
        break;
 8003f5a:	e013      	b.n	8003f84 <HAL_RCCEx_PeriphCLKConfig+0x20c>

      case RCC_SAI4ACLKSOURCE_PLL3:  /* PLL3 is used as clock source for SAI2*/
        ret = RCCEx_PLL3_Config(&(PeriphClkInit->PLL3), DIVIDER_P_UPDATE);
 8003f5c:	f8d7 3104 	ldr.w	r3, [r7, #260]	@ 0x104
 8003f60:	3328      	adds	r3, #40	@ 0x28
 8003f62:	2100      	movs	r1, #0
 8003f64:	4618      	mov	r0, r3
 8003f66:	f001 f959 	bl	800521c <RCCEx_PLL3_Config>
 8003f6a:	4603      	mov	r3, r0
 8003f6c:	f887 3117 	strb.w	r3, [r7, #279]	@ 0x117

        /* SAI1 clock source configuration done later after clock selection check */
        break;
 8003f70:	e008      	b.n	8003f84 <HAL_RCCEx_PeriphCLKConfig+0x20c>
        /* SAI4A clock source configuration done later after clock selection check */
        break;
#endif /* RCC_VER_3_0 */

      default:
        ret = HAL_ERROR;
 8003f72:	2301      	movs	r3, #1
 8003f74:	f887 3117 	strb.w	r3, [r7, #279]	@ 0x117
        break;
 8003f78:	e004      	b.n	8003f84 <HAL_RCCEx_PeriphCLKConfig+0x20c>
        break;
 8003f7a:	bf00      	nop
 8003f7c:	e002      	b.n	8003f84 <HAL_RCCEx_PeriphCLKConfig+0x20c>
        break;
 8003f7e:	bf00      	nop
 8003f80:	e000      	b.n	8003f84 <HAL_RCCEx_PeriphCLKConfig+0x20c>
        break;
 8003f82:	bf00      	nop
    }

    if (ret == HAL_OK)
 8003f84:	f897 3117 	ldrb.w	r3, [r7, #279]	@ 0x117
 8003f88:	2b00      	cmp	r3, #0
 8003f8a:	d10b      	bne.n	8003fa4 <HAL_RCCEx_PeriphCLKConfig+0x22c>
    {
      /* Set the source of SAI4A clock*/
      __HAL_RCC_SAI4A_CONFIG(PeriphClkInit->Sai4AClockSelection);
 8003f8c:	4b3b      	ldr	r3, [pc, #236]	@ (800407c <HAL_RCCEx_PeriphCLKConfig+0x304>)
 8003f8e:	6d9b      	ldr	r3, [r3, #88]	@ 0x58
 8003f90:	f423 0160 	bic.w	r1, r3, #14680064	@ 0xe00000
 8003f94:	f8d7 3104 	ldr.w	r3, [r7, #260]	@ 0x104
 8003f98:	f8d3 30a4 	ldr.w	r3, [r3, #164]	@ 0xa4
 8003f9c:	4a37      	ldr	r2, [pc, #220]	@ (800407c <HAL_RCCEx_PeriphCLKConfig+0x304>)
 8003f9e:	430b      	orrs	r3, r1
 8003fa0:	6593      	str	r3, [r2, #88]	@ 0x58
 8003fa2:	e003      	b.n	8003fac <HAL_RCCEx_PeriphCLKConfig+0x234>
    }
    else
    {
      /* set overall return value */
      status = ret;
 8003fa4:	f897 3117 	ldrb.w	r3, [r7, #279]	@ 0x117
 8003fa8:	f887 3116 	strb.w	r3, [r7, #278]	@ 0x116
    }
  }
  /*---------------------------- SAI4B configuration -------------------------------*/
  if (((PeriphClkInit->PeriphClockSelection) & RCC_PERIPHCLK_SAI4B) == RCC_PERIPHCLK_SAI4B)
 8003fac:	f8d7 3104 	ldr.w	r3, [r7, #260]	@ 0x104
 8003fb0:	e9d3 2300 	ldrd	r2, r3, [r3]
 8003fb4:	f402 6300 	and.w	r3, r2, #2048	@ 0x800
 8003fb8:	f8c7 30f8 	str.w	r3, [r7, #248]	@ 0xf8
 8003fbc:	2300      	movs	r3, #0
 8003fbe:	f8c7 30fc 	str.w	r3, [r7, #252]	@ 0xfc
 8003fc2:	e9d7 123e 	ldrd	r1, r2, [r7, #248]	@ 0xf8
 8003fc6:	460b      	mov	r3, r1
 8003fc8:	4313      	orrs	r3, r2
 8003fca:	d05d      	beq.n	8004088 <HAL_RCCEx_PeriphCLKConfig+0x310>
  {
    switch (PeriphClkInit->Sai4BClockSelection)
 8003fcc:	f8d7 3104 	ldr.w	r3, [r7, #260]	@ 0x104
 8003fd0:	f8d3 30a8 	ldr.w	r3, [r3, #168]	@ 0xa8
 8003fd4:	f1b3 6fa0 	cmp.w	r3, #83886080	@ 0x5000000
 8003fd8:	d03b      	beq.n	8004052 <HAL_RCCEx_PeriphCLKConfig+0x2da>
 8003fda:	f1b3 6fa0 	cmp.w	r3, #83886080	@ 0x5000000
 8003fde:	d834      	bhi.n	800404a <HAL_RCCEx_PeriphCLKConfig+0x2d2>
 8003fe0:	f1b3 6f80 	cmp.w	r3, #67108864	@ 0x4000000
 8003fe4:	d037      	beq.n	8004056 <HAL_RCCEx_PeriphCLKConfig+0x2de>
 8003fe6:	f1b3 6f80 	cmp.w	r3, #67108864	@ 0x4000000
 8003fea:	d82e      	bhi.n	800404a <HAL_RCCEx_PeriphCLKConfig+0x2d2>
 8003fec:	f1b3 7f40 	cmp.w	r3, #50331648	@ 0x3000000
 8003ff0:	d033      	beq.n	800405a <HAL_RCCEx_PeriphCLKConfig+0x2e2>
 8003ff2:	f1b3 7f40 	cmp.w	r3, #50331648	@ 0x3000000
 8003ff6:	d828      	bhi.n	800404a <HAL_RCCEx_PeriphCLKConfig+0x2d2>
 8003ff8:	f1b3 7f00 	cmp.w	r3, #33554432	@ 0x2000000
 8003ffc:	d01a      	beq.n	8004034 <HAL_RCCEx_PeriphCLKConfig+0x2bc>
 8003ffe:	f1b3 7f00 	cmp.w	r3, #33554432	@ 0x2000000
 8004002:	d822      	bhi.n	800404a <HAL_RCCEx_PeriphCLKConfig+0x2d2>
 8004004:	2b00      	cmp	r3, #0
 8004006:	d003      	beq.n	8004010 <HAL_RCCEx_PeriphCLKConfig+0x298>
 8004008:	f1b3 7f80 	cmp.w	r3, #16777216	@ 0x1000000
 800400c:	d007      	beq.n	800401e <HAL_RCCEx_PeriphCLKConfig+0x2a6>
 800400e:	e01c      	b.n	800404a <HAL_RCCEx_PeriphCLKConfig+0x2d2>
    {
      case RCC_SAI4BCLKSOURCE_PLL:      /* PLL is used as clock source for SAI2*/
        /* Enable SAI Clock output generated form System PLL . */
        __HAL_RCC_PLLCLKOUT_ENABLE(RCC_PLL1_DIVQ);
 8004010:	4b1a      	ldr	r3, [pc, #104]	@ (800407c <HAL_RCCEx_PeriphCLKConfig+0x304>)
 8004012:	6adb      	ldr	r3, [r3, #44]	@ 0x2c
 8004014:	4a19      	ldr	r2, [pc, #100]	@ (800407c <HAL_RCCEx_PeriphCLKConfig+0x304>)
 8004016:	f443 3300 	orr.w	r3, r3, #131072	@ 0x20000
 800401a:	62d3      	str	r3, [r2, #44]	@ 0x2c

        /* SAI1 clock source configuration done later after clock selection check */
        break;
 800401c:	e01e      	b.n	800405c <HAL_RCCEx_PeriphCLKConfig+0x2e4>

      case RCC_SAI4BCLKSOURCE_PLL2: /* PLL2 is used as clock source for SAI2*/

        ret = RCCEx_PLL2_Config(&(PeriphClkInit->PLL2), DIVIDER_P_UPDATE);
 800401e:	f8d7 3104 	ldr.w	r3, [r7, #260]	@ 0x104
 8004022:	3308      	adds	r3, #8
 8004024:	2100      	movs	r1, #0
 8004026:	4618      	mov	r0, r3
 8004028:	f001 f846 	bl	80050b8 <RCCEx_PLL2_Config>
 800402c:	4603      	mov	r3, r0
 800402e:	f887 3117 	strb.w	r3, [r7, #279]	@ 0x117

        /* SAI2 clock source configuration done later after clock selection check */
        break;
 8004032:	e013      	b.n	800405c <HAL_RCCEx_PeriphCLKConfig+0x2e4>

      case RCC_SAI4BCLKSOURCE_PLL3:  /* PLL3 is used as clock source for SAI2*/
        ret = RCCEx_PLL3_Config(&(PeriphClkInit->PLL3), DIVIDER_P_UPDATE);
 8004034:	f8d7 3104 	ldr.w	r3, [r7, #260]	@ 0x104
 8004038:	3328      	adds	r3, #40	@ 0x28
 800403a:	2100      	movs	r1, #0
 800403c:	4618      	mov	r0, r3
 800403e:	f001 f8ed 	bl	800521c <RCCEx_PLL3_Config>
 8004042:	4603      	mov	r3, r0
 8004044:	f887 3117 	strb.w	r3, [r7, #279]	@ 0x117

        /* SAI1 clock source configuration done later after clock selection check */
        break;
 8004048:	e008      	b.n	800405c <HAL_RCCEx_PeriphCLKConfig+0x2e4>
        /* SAI4B clock source configuration done later after clock selection check */
        break;
#endif /* RCC_VER_3_0 */

      default:
        ret = HAL_ERROR;
 800404a:	2301      	movs	r3, #1
 800404c:	f887 3117 	strb.w	r3, [r7, #279]	@ 0x117
        break;
 8004050:	e004      	b.n	800405c <HAL_RCCEx_PeriphCLKConfig+0x2e4>
        break;
 8004052:	bf00      	nop
 8004054:	e002      	b.n	800405c <HAL_RCCEx_PeriphCLKConfig+0x2e4>
        break;
 8004056:	bf00      	nop
 8004058:	e000      	b.n	800405c <HAL_RCCEx_PeriphCLKConfig+0x2e4>
        break;
 800405a:	bf00      	nop
    }

    if (ret == HAL_OK)
 800405c:	f897 3117 	ldrb.w	r3, [r7, #279]	@ 0x117
 8004060:	2b00      	cmp	r3, #0
 8004062:	d10d      	bne.n	8004080 <HAL_RCCEx_PeriphCLKConfig+0x308>
    {
      /* Set the source of SAI4B clock*/
      __HAL_RCC_SAI4B_CONFIG(PeriphClkInit->Sai4BClockSelection);
 8004064:	4b05      	ldr	r3, [pc, #20]	@ (800407c <HAL_RCCEx_PeriphCLKConfig+0x304>)
 8004066:	6d9b      	ldr	r3, [r3, #88]	@ 0x58
 8004068:	f023 61e0 	bic.w	r1, r3, #117440512	@ 0x7000000
 800406c:	f8d7 3104 	ldr.w	r3, [r7, #260]	@ 0x104
 8004070:	f8d3 30a8 	ldr.w	r3, [r3, #168]	@ 0xa8
 8004074:	4a01      	ldr	r2, [pc, #4]	@ (800407c <HAL_RCCEx_PeriphCLKConfig+0x304>)
 8004076:	430b      	orrs	r3, r1
 8004078:	6593      	str	r3, [r2, #88]	@ 0x58
 800407a:	e005      	b.n	8004088 <HAL_RCCEx_PeriphCLKConfig+0x310>
 800407c:	58024400 	.word	0x58024400
    }
    else
    {
      /* set overall return value */
      status = ret;
 8004080:	f897 3117 	ldrb.w	r3, [r7, #279]	@ 0x117
 8004084:	f887 3116 	strb.w	r3, [r7, #278]	@ 0x116
  }
#endif  /*QUADSPI*/

#if defined(OCTOSPI1) || defined(OCTOSPI2)
  /*---------------------------- OCTOSPI configuration -------------------------------*/
  if (((PeriphClkInit->PeriphClockSelection) & RCC_PERIPHCLK_OSPI) == RCC_PERIPHCLK_OSPI)
 8004088:	f8d7 3104 	ldr.w	r3, [r7, #260]	@ 0x104
 800408c:	e9d3 2300 	ldrd	r2, r3, [r3]
 8004090:	f002 7300 	and.w	r3, r2, #33554432	@ 0x2000000
 8004094:	f8c7 30f0 	str.w	r3, [r7, #240]	@ 0xf0
 8004098:	2300      	movs	r3, #0
 800409a:	f8c7 30f4 	str.w	r3, [r7, #244]	@ 0xf4
 800409e:	e9d7 123c 	ldrd	r1, r2, [r7, #240]	@ 0xf0
 80040a2:	460b      	mov	r3, r1
 80040a4:	4313      	orrs	r3, r2
 80040a6:	d03a      	beq.n	800411e <HAL_RCCEx_PeriphCLKConfig+0x3a6>
  {
    switch (PeriphClkInit->OspiClockSelection)
 80040a8:	f8d7 3104 	ldr.w	r3, [r7, #260]	@ 0x104
 80040ac:	6cdb      	ldr	r3, [r3, #76]	@ 0x4c
 80040ae:	2b30      	cmp	r3, #48	@ 0x30
 80040b0:	d01f      	beq.n	80040f2 <HAL_RCCEx_PeriphCLKConfig+0x37a>
 80040b2:	2b30      	cmp	r3, #48	@ 0x30
 80040b4:	d819      	bhi.n	80040ea <HAL_RCCEx_PeriphCLKConfig+0x372>
 80040b6:	2b20      	cmp	r3, #32
 80040b8:	d00c      	beq.n	80040d4 <HAL_RCCEx_PeriphCLKConfig+0x35c>
 80040ba:	2b20      	cmp	r3, #32
 80040bc:	d815      	bhi.n	80040ea <HAL_RCCEx_PeriphCLKConfig+0x372>
 80040be:	2b00      	cmp	r3, #0
 80040c0:	d019      	beq.n	80040f6 <HAL_RCCEx_PeriphCLKConfig+0x37e>
 80040c2:	2b10      	cmp	r3, #16
 80040c4:	d111      	bne.n	80040ea <HAL_RCCEx_PeriphCLKConfig+0x372>
    {
      case RCC_OSPICLKSOURCE_PLL:      /* PLL is used as clock source for OSPI*/
        /* Enable OSPI Clock output generated form System PLL . */
        __HAL_RCC_PLLCLKOUT_ENABLE(RCC_PLL1_DIVQ);
 80040c6:	4baa      	ldr	r3, [pc, #680]	@ (8004370 <HAL_RCCEx_PeriphCLKConfig+0x5f8>)
 80040c8:	6adb      	ldr	r3, [r3, #44]	@ 0x2c
 80040ca:	4aa9      	ldr	r2, [pc, #676]	@ (8004370 <HAL_RCCEx_PeriphCLKConfig+0x5f8>)
 80040cc:	f443 3300 	orr.w	r3, r3, #131072	@ 0x20000
 80040d0:	62d3      	str	r3, [r2, #44]	@ 0x2c

        /* OSPI clock source configuration done later after clock selection check */
        break;
 80040d2:	e011      	b.n	80040f8 <HAL_RCCEx_PeriphCLKConfig+0x380>

      case RCC_OSPICLKSOURCE_PLL2: /* PLL2 is used as clock source for OSPI*/

        ret = RCCEx_PLL2_Config(&(PeriphClkInit->PLL2), DIVIDER_R_UPDATE);
 80040d4:	f8d7 3104 	ldr.w	r3, [r7, #260]	@ 0x104
 80040d8:	3308      	adds	r3, #8
 80040da:	2102      	movs	r1, #2
 80040dc:	4618      	mov	r0, r3
 80040de:	f000 ffeb 	bl	80050b8 <RCCEx_PLL2_Config>
 80040e2:	4603      	mov	r3, r0
 80040e4:	f887 3117 	strb.w	r3, [r7, #279]	@ 0x117

        /* OSPI clock source configuration done later after clock selection check */
        break;
 80040e8:	e006      	b.n	80040f8 <HAL_RCCEx_PeriphCLKConfig+0x380>
      case RCC_OSPICLKSOURCE_HCLK:
        /* HCLK clock selected as OSPI kernel peripheral clock */
        break;

      default:
        ret = HAL_ERROR;
 80040ea:	2301      	movs	r3, #1
 80040ec:	f887 3117 	strb.w	r3, [r7, #279]	@ 0x117
        break;
 80040f0:	e002      	b.n	80040f8 <HAL_RCCEx_PeriphCLKConfig+0x380>
        break;
 80040f2:	bf00      	nop
 80040f4:	e000      	b.n	80040f8 <HAL_RCCEx_PeriphCLKConfig+0x380>
        break;
 80040f6:	bf00      	nop
    }

    if (ret == HAL_OK)
 80040f8:	f897 3117 	ldrb.w	r3, [r7, #279]	@ 0x117
 80040fc:	2b00      	cmp	r3, #0
 80040fe:	d10a      	bne.n	8004116 <HAL_RCCEx_PeriphCLKConfig+0x39e>
    {
      /* Set the source of OSPI clock*/
      __HAL_RCC_OSPI_CONFIG(PeriphClkInit->OspiClockSelection);
 8004100:	4b9b      	ldr	r3, [pc, #620]	@ (8004370 <HAL_RCCEx_PeriphCLKConfig+0x5f8>)
 8004102:	6cdb      	ldr	r3, [r3, #76]	@ 0x4c
 8004104:	f023 0130 	bic.w	r1, r3, #48	@ 0x30
 8004108:	f8d7 3104 	ldr.w	r3, [r7, #260]	@ 0x104
 800410c:	6cdb      	ldr	r3, [r3, #76]	@ 0x4c
 800410e:	4a98      	ldr	r2, [pc, #608]	@ (8004370 <HAL_RCCEx_PeriphCLKConfig+0x5f8>)
 8004110:	430b      	orrs	r3, r1
 8004112:	64d3      	str	r3, [r2, #76]	@ 0x4c
 8004114:	e003      	b.n	800411e <HAL_RCCEx_PeriphCLKConfig+0x3a6>
    }
    else
    {
      /* set overall return value */
      status = ret;
 8004116:	f897 3117 	ldrb.w	r3, [r7, #279]	@ 0x117
 800411a:	f887 3116 	strb.w	r3, [r7, #278]	@ 0x116
    }
  }
#endif  /*OCTOSPI*/

  /*---------------------------- SPI1/2/3 configuration -------------------------------*/
  if (((PeriphClkInit->PeriphClockSelection) & RCC_PERIPHCLK_SPI123) == RCC_PERIPHCLK_SPI123)
 800411e:	f8d7 3104 	ldr.w	r3, [r7, #260]	@ 0x104
 8004122:	e9d3 2300 	ldrd	r2, r3, [r3]
 8004126:	f402 5380 	and.w	r3, r2, #4096	@ 0x1000
 800412a:	f8c7 30e8 	str.w	r3, [r7, #232]	@ 0xe8
 800412e:	2300      	movs	r3, #0
 8004130:	f8c7 30ec 	str.w	r3, [r7, #236]	@ 0xec
 8004134:	e9d7 123a 	ldrd	r1, r2, [r7, #232]	@ 0xe8
 8004138:	460b      	mov	r3, r1
 800413a:	4313      	orrs	r3, r2
 800413c:	d051      	beq.n	80041e2 <HAL_RCCEx_PeriphCLKConfig+0x46a>
  {
    switch (PeriphClkInit->Spi123ClockSelection)
 800413e:	f8d7 3104 	ldr.w	r3, [r7, #260]	@ 0x104
 8004142:	6ddb      	ldr	r3, [r3, #92]	@ 0x5c
 8004144:	f5b3 4f80 	cmp.w	r3, #16384	@ 0x4000
 8004148:	d035      	beq.n	80041b6 <HAL_RCCEx_PeriphCLKConfig+0x43e>
 800414a:	f5b3 4f80 	cmp.w	r3, #16384	@ 0x4000
 800414e:	d82e      	bhi.n	80041ae <HAL_RCCEx_PeriphCLKConfig+0x436>
 8004150:	f5b3 5f40 	cmp.w	r3, #12288	@ 0x3000
 8004154:	d031      	beq.n	80041ba <HAL_RCCEx_PeriphCLKConfig+0x442>
 8004156:	f5b3 5f40 	cmp.w	r3, #12288	@ 0x3000
 800415a:	d828      	bhi.n	80041ae <HAL_RCCEx_PeriphCLKConfig+0x436>
 800415c:	f5b3 5f00 	cmp.w	r3, #8192	@ 0x2000
 8004160:	d01a      	beq.n	8004198 <HAL_RCCEx_PeriphCLKConfig+0x420>
 8004162:	f5b3 5f00 	cmp.w	r3, #8192	@ 0x2000
 8004166:	d822      	bhi.n	80041ae <HAL_RCCEx_PeriphCLKConfig+0x436>
 8004168:	2b00      	cmp	r3, #0
 800416a:	d003      	beq.n	8004174 <HAL_RCCEx_PeriphCLKConfig+0x3fc>
 800416c:	f5b3 5f80 	cmp.w	r3, #4096	@ 0x1000
 8004170:	d007      	beq.n	8004182 <HAL_RCCEx_PeriphCLKConfig+0x40a>
 8004172:	e01c      	b.n	80041ae <HAL_RCCEx_PeriphCLKConfig+0x436>
    {
      case RCC_SPI123CLKSOURCE_PLL:      /* PLL is used as clock source for SPI1/2/3 */
        /* Enable SPI Clock output generated form System PLL . */
        __HAL_RCC_PLLCLKOUT_ENABLE(RCC_PLL1_DIVQ);
 8004174:	4b7e      	ldr	r3, [pc, #504]	@ (8004370 <HAL_RCCEx_PeriphCLKConfig+0x5f8>)
 8004176:	6adb      	ldr	r3, [r3, #44]	@ 0x2c
 8004178:	4a7d      	ldr	r2, [pc, #500]	@ (8004370 <HAL_RCCEx_PeriphCLKConfig+0x5f8>)
 800417a:	f443 3300 	orr.w	r3, r3, #131072	@ 0x20000
 800417e:	62d3      	str	r3, [r2, #44]	@ 0x2c

        /* SPI1/2/3 clock source configuration done later after clock selection check */
        break;
 8004180:	e01c      	b.n	80041bc <HAL_RCCEx_PeriphCLKConfig+0x444>

      case RCC_SPI123CLKSOURCE_PLL2: /* PLL2 is used as clock source for SPI1/2/3 */
        ret = RCCEx_PLL2_Config(&(PeriphClkInit->PLL2), DIVIDER_P_UPDATE);
 8004182:	f8d7 3104 	ldr.w	r3, [r7, #260]	@ 0x104
 8004186:	3308      	adds	r3, #8
 8004188:	2100      	movs	r1, #0
 800418a:	4618      	mov	r0, r3
 800418c:	f000 ff94 	bl	80050b8 <RCCEx_PLL2_Config>
 8004190:	4603      	mov	r3, r0
 8004192:	f887 3117 	strb.w	r3, [r7, #279]	@ 0x117

        /* SPI1/2/3 clock source configuration done later after clock selection check */
        break;
 8004196:	e011      	b.n	80041bc <HAL_RCCEx_PeriphCLKConfig+0x444>

      case RCC_SPI123CLKSOURCE_PLL3:  /* PLL3 is used as clock source for SPI1/2/3 */
        ret = RCCEx_PLL3_Config(&(PeriphClkInit->PLL3), DIVIDER_P_UPDATE);
 8004198:	f8d7 3104 	ldr.w	r3, [r7, #260]	@ 0x104
 800419c:	3328      	adds	r3, #40	@ 0x28
 800419e:	2100      	movs	r1, #0
 80041a0:	4618      	mov	r0, r3
 80041a2:	f001 f83b 	bl	800521c <RCCEx_PLL3_Config>
 80041a6:	4603      	mov	r3, r0
 80041a8:	f887 3117 	strb.w	r3, [r7, #279]	@ 0x117

        /* SPI1/2/3 clock source configuration done later after clock selection check */
        break;
 80041ac:	e006      	b.n	80041bc <HAL_RCCEx_PeriphCLKConfig+0x444>
        /* HSI, HSE, or CSI oscillator is used as source of SPI1/2/3 clock */
        /* SPI1/2/3 clock source configuration done later after clock selection check */
        break;

      default:
        ret = HAL_ERROR;
 80041ae:	2301      	movs	r3, #1
 80041b0:	f887 3117 	strb.w	r3, [r7, #279]	@ 0x117
        break;
 80041b4:	e002      	b.n	80041bc <HAL_RCCEx_PeriphCLKConfig+0x444>
        break;
 80041b6:	bf00      	nop
 80041b8:	e000      	b.n	80041bc <HAL_RCCEx_PeriphCLKConfig+0x444>
        break;
 80041ba:	bf00      	nop
    }

    if (ret == HAL_OK)
 80041bc:	f897 3117 	ldrb.w	r3, [r7, #279]	@ 0x117
 80041c0:	2b00      	cmp	r3, #0
 80041c2:	d10a      	bne.n	80041da <HAL_RCCEx_PeriphCLKConfig+0x462>
    {
      /* Set the source of SPI1/2/3 clock*/
      __HAL_RCC_SPI123_CONFIG(PeriphClkInit->Spi123ClockSelection);
 80041c4:	4b6a      	ldr	r3, [pc, #424]	@ (8004370 <HAL_RCCEx_PeriphCLKConfig+0x5f8>)
 80041c6:	6d1b      	ldr	r3, [r3, #80]	@ 0x50
 80041c8:	f423 41e0 	bic.w	r1, r3, #28672	@ 0x7000
 80041cc:	f8d7 3104 	ldr.w	r3, [r7, #260]	@ 0x104
 80041d0:	6ddb      	ldr	r3, [r3, #92]	@ 0x5c
 80041d2:	4a67      	ldr	r2, [pc, #412]	@ (8004370 <HAL_RCCEx_PeriphCLKConfig+0x5f8>)
 80041d4:	430b      	orrs	r3, r1
 80041d6:	6513      	str	r3, [r2, #80]	@ 0x50
 80041d8:	e003      	b.n	80041e2 <HAL_RCCEx_PeriphCLKConfig+0x46a>
    }
    else
    {
      /* set overall return value */
      status = ret;
 80041da:	f897 3117 	ldrb.w	r3, [r7, #279]	@ 0x117
 80041de:	f887 3116 	strb.w	r3, [r7, #278]	@ 0x116
    }
  }

  /*---------------------------- SPI4/5 configuration -------------------------------*/
  if (((PeriphClkInit->PeriphClockSelection) & RCC_PERIPHCLK_SPI45) == RCC_PERIPHCLK_SPI45)
 80041e2:	f8d7 3104 	ldr.w	r3, [r7, #260]	@ 0x104
 80041e6:	e9d3 2300 	ldrd	r2, r3, [r3]
 80041ea:	f402 5300 	and.w	r3, r2, #8192	@ 0x2000
 80041ee:	f8c7 30e0 	str.w	r3, [r7, #224]	@ 0xe0
 80041f2:	2300      	movs	r3, #0
 80041f4:	f8c7 30e4 	str.w	r3, [r7, #228]	@ 0xe4
 80041f8:	e9d7 1238 	ldrd	r1, r2, [r7, #224]	@ 0xe0
 80041fc:	460b      	mov	r3, r1
 80041fe:	4313      	orrs	r3, r2
 8004200:	d053      	beq.n	80042aa <HAL_RCCEx_PeriphCLKConfig+0x532>
  {
    switch (PeriphClkInit->Spi45ClockSelection)
 8004202:	f8d7 3104 	ldr.w	r3, [r7, #260]	@ 0x104
 8004206:	6e1b      	ldr	r3, [r3, #96]	@ 0x60
 8004208:	f5b3 2fa0 	cmp.w	r3, #327680	@ 0x50000
 800420c:	d033      	beq.n	8004276 <HAL_RCCEx_PeriphCLKConfig+0x4fe>
 800420e:	f5b3 2fa0 	cmp.w	r3, #327680	@ 0x50000
 8004212:	d82c      	bhi.n	800426e <HAL_RCCEx_PeriphCLKConfig+0x4f6>
 8004214:	f5b3 2f80 	cmp.w	r3, #262144	@ 0x40000
 8004218:	d02f      	beq.n	800427a <HAL_RCCEx_PeriphCLKConfig+0x502>
 800421a:	f5b3 2f80 	cmp.w	r3, #262144	@ 0x40000
 800421e:	d826      	bhi.n	800426e <HAL_RCCEx_PeriphCLKConfig+0x4f6>
 8004220:	f5b3 3f40 	cmp.w	r3, #196608	@ 0x30000
 8004224:	d02b      	beq.n	800427e <HAL_RCCEx_PeriphCLKConfig+0x506>
 8004226:	f5b3 3f40 	cmp.w	r3, #196608	@ 0x30000
 800422a:	d820      	bhi.n	800426e <HAL_RCCEx_PeriphCLKConfig+0x4f6>
 800422c:	f5b3 3f00 	cmp.w	r3, #131072	@ 0x20000
 8004230:	d012      	beq.n	8004258 <HAL_RCCEx_PeriphCLKConfig+0x4e0>
 8004232:	f5b3 3f00 	cmp.w	r3, #131072	@ 0x20000
 8004236:	d81a      	bhi.n	800426e <HAL_RCCEx_PeriphCLKConfig+0x4f6>
 8004238:	2b00      	cmp	r3, #0
 800423a:	d022      	beq.n	8004282 <HAL_RCCEx_PeriphCLKConfig+0x50a>
 800423c:	f5b3 3f80 	cmp.w	r3, #65536	@ 0x10000
 8004240:	d115      	bne.n	800426e <HAL_RCCEx_PeriphCLKConfig+0x4f6>
        /* SPI4/5 clock source configuration done later after clock selection check */
        break;

      case RCC_SPI45CLKSOURCE_PLL2: /* PLL2 is used as clock source for SPI4/5 */

        ret = RCCEx_PLL2_Config(&(PeriphClkInit->PLL2), DIVIDER_Q_UPDATE);
 8004242:	f8d7 3104 	ldr.w	r3, [r7, #260]	@ 0x104
 8004246:	3308      	adds	r3, #8
 8004248:	2101      	movs	r1, #1
 800424a:	4618      	mov	r0, r3
 800424c:	f000 ff34 	bl	80050b8 <RCCEx_PLL2_Config>
 8004250:	4603      	mov	r3, r0
 8004252:	f887 3117 	strb.w	r3, [r7, #279]	@ 0x117

        /* SPI4/5 clock source configuration done later after clock selection check */
        break;
 8004256:	e015      	b.n	8004284 <HAL_RCCEx_PeriphCLKConfig+0x50c>
      case RCC_SPI45CLKSOURCE_PLL3:  /* PLL3 is used as clock source for SPI4/5 */
        ret = RCCEx_PLL3_Config(&(PeriphClkInit->PLL3), DIVIDER_Q_UPDATE);
 8004258:	f8d7 3104 	ldr.w	r3, [r7, #260]	@ 0x104
 800425c:	3328      	adds	r3, #40	@ 0x28
 800425e:	2101      	movs	r1, #1
 8004260:	4618      	mov	r0, r3
 8004262:	f000 ffdb 	bl	800521c <RCCEx_PLL3_Config>
 8004266:	4603      	mov	r3, r0
 8004268:	f887 3117 	strb.w	r3, [r7, #279]	@ 0x117
        /* SPI4/5 clock source configuration done later after clock selection check */
        break;
 800426c:	e00a      	b.n	8004284 <HAL_RCCEx_PeriphCLKConfig+0x50c>
        /* HSE,  oscillator is used as source of SPI4/5 clock */
        /* SPI4/5 clock source configuration done later after clock selection check */
        break;

      default:
        ret = HAL_ERROR;
 800426e:	2301      	movs	r3, #1
 8004270:	f887 3117 	strb.w	r3, [r7, #279]	@ 0x117
        break;
 8004274:	e006      	b.n	8004284 <HAL_RCCEx_PeriphCLKConfig+0x50c>
        break;
 8004276:	bf00      	nop
 8004278:	e004      	b.n	8004284 <HAL_RCCEx_PeriphCLKConfig+0x50c>
        break;
 800427a:	bf00      	nop
 800427c:	e002      	b.n	8004284 <HAL_RCCEx_PeriphCLKConfig+0x50c>
        break;
 800427e:	bf00      	nop
 8004280:	e000      	b.n	8004284 <HAL_RCCEx_PeriphCLKConfig+0x50c>
        break;
 8004282:	bf00      	nop
    }

    if (ret == HAL_OK)
 8004284:	f897 3117 	ldrb.w	r3, [r7, #279]	@ 0x117
 8004288:	2b00      	cmp	r3, #0
 800428a:	d10a      	bne.n	80042a2 <HAL_RCCEx_PeriphCLKConfig+0x52a>
    {
      /* Set the source of SPI4/5 clock*/
      __HAL_RCC_SPI45_CONFIG(PeriphClkInit->Spi45ClockSelection);
 800428c:	4b38      	ldr	r3, [pc, #224]	@ (8004370 <HAL_RCCEx_PeriphCLKConfig+0x5f8>)
 800428e:	6d1b      	ldr	r3, [r3, #80]	@ 0x50
 8004290:	f423 21e0 	bic.w	r1, r3, #458752	@ 0x70000
 8004294:	f8d7 3104 	ldr.w	r3, [r7, #260]	@ 0x104
 8004298:	6e1b      	ldr	r3, [r3, #96]	@ 0x60
 800429a:	4a35      	ldr	r2, [pc, #212]	@ (8004370 <HAL_RCCEx_PeriphCLKConfig+0x5f8>)
 800429c:	430b      	orrs	r3, r1
 800429e:	6513      	str	r3, [r2, #80]	@ 0x50
 80042a0:	e003      	b.n	80042aa <HAL_RCCEx_PeriphCLKConfig+0x532>
    }
    else
    {
      /* set overall return value */
      status = ret;
 80042a2:	f897 3117 	ldrb.w	r3, [r7, #279]	@ 0x117
 80042a6:	f887 3116 	strb.w	r3, [r7, #278]	@ 0x116
    }
  }

  /*---------------------------- SPI6 configuration -------------------------------*/
  if (((PeriphClkInit->PeriphClockSelection) & RCC_PERIPHCLK_SPI6) == RCC_PERIPHCLK_SPI6)
 80042aa:	f8d7 3104 	ldr.w	r3, [r7, #260]	@ 0x104
 80042ae:	e9d3 2300 	ldrd	r2, r3, [r3]
 80042b2:	f402 4380 	and.w	r3, r2, #16384	@ 0x4000
 80042b6:	f8c7 30d8 	str.w	r3, [r7, #216]	@ 0xd8
 80042ba:	2300      	movs	r3, #0
 80042bc:	f8c7 30dc 	str.w	r3, [r7, #220]	@ 0xdc
 80042c0:	e9d7 1236 	ldrd	r1, r2, [r7, #216]	@ 0xd8
 80042c4:	460b      	mov	r3, r1
 80042c6:	4313      	orrs	r3, r2
 80042c8:	d058      	beq.n	800437c <HAL_RCCEx_PeriphCLKConfig+0x604>
  {
    switch (PeriphClkInit->Spi6ClockSelection)
 80042ca:	f8d7 3104 	ldr.w	r3, [r7, #260]	@ 0x104
 80042ce:	f8d3 30ac 	ldr.w	r3, [r3, #172]	@ 0xac
 80042d2:	f1b3 4fa0 	cmp.w	r3, #1342177280	@ 0x50000000
 80042d6:	d033      	beq.n	8004340 <HAL_RCCEx_PeriphCLKConfig+0x5c8>
 80042d8:	f1b3 4fa0 	cmp.w	r3, #1342177280	@ 0x50000000
 80042dc:	d82c      	bhi.n	8004338 <HAL_RCCEx_PeriphCLKConfig+0x5c0>
 80042de:	f1b3 4f80 	cmp.w	r3, #1073741824	@ 0x40000000
 80042e2:	d02f      	beq.n	8004344 <HAL_RCCEx_PeriphCLKConfig+0x5cc>
 80042e4:	f1b3 4f80 	cmp.w	r3, #1073741824	@ 0x40000000
 80042e8:	d826      	bhi.n	8004338 <HAL_RCCEx_PeriphCLKConfig+0x5c0>
 80042ea:	f1b3 5f40 	cmp.w	r3, #805306368	@ 0x30000000
 80042ee:	d02b      	beq.n	8004348 <HAL_RCCEx_PeriphCLKConfig+0x5d0>
 80042f0:	f1b3 5f40 	cmp.w	r3, #805306368	@ 0x30000000
 80042f4:	d820      	bhi.n	8004338 <HAL_RCCEx_PeriphCLKConfig+0x5c0>
 80042f6:	f1b3 5f00 	cmp.w	r3, #536870912	@ 0x20000000
 80042fa:	d012      	beq.n	8004322 <HAL_RCCEx_PeriphCLKConfig+0x5aa>
 80042fc:	f1b3 5f00 	cmp.w	r3, #536870912	@ 0x20000000
 8004300:	d81a      	bhi.n	8004338 <HAL_RCCEx_PeriphCLKConfig+0x5c0>
 8004302:	2b00      	cmp	r3, #0
 8004304:	d022      	beq.n	800434c <HAL_RCCEx_PeriphCLKConfig+0x5d4>
 8004306:	f1b3 5f80 	cmp.w	r3, #268435456	@ 0x10000000
 800430a:	d115      	bne.n	8004338 <HAL_RCCEx_PeriphCLKConfig+0x5c0>
        /* SPI6 clock source configuration done later after clock selection check */
        break;

      case RCC_SPI6CLKSOURCE_PLL2: /* PLL2 is used as clock source for SPI6*/

        ret = RCCEx_PLL2_Config(&(PeriphClkInit->PLL2), DIVIDER_Q_UPDATE);
 800430c:	f8d7 3104 	ldr.w	r3, [r7, #260]	@ 0x104
 8004310:	3308      	adds	r3, #8
 8004312:	2101      	movs	r1, #1
 8004314:	4618      	mov	r0, r3
 8004316:	f000 fecf 	bl	80050b8 <RCCEx_PLL2_Config>
 800431a:	4603      	mov	r3, r0
 800431c:	f887 3117 	strb.w	r3, [r7, #279]	@ 0x117

        /* SPI6 clock source configuration done later after clock selection check */
        break;
 8004320:	e015      	b.n	800434e <HAL_RCCEx_PeriphCLKConfig+0x5d6>
      case RCC_SPI6CLKSOURCE_PLL3:  /* PLL3 is used as clock source for SPI6*/
        ret = RCCEx_PLL3_Config(&(PeriphClkInit->PLL3), DIVIDER_Q_UPDATE);
 8004322:	f8d7 3104 	ldr.w	r3, [r7, #260]	@ 0x104
 8004326:	3328      	adds	r3, #40	@ 0x28
 8004328:	2101      	movs	r1, #1
 800432a:	4618      	mov	r0, r3
 800432c:	f000 ff76 	bl	800521c <RCCEx_PLL3_Config>
 8004330:	4603      	mov	r3, r0
 8004332:	f887 3117 	strb.w	r3, [r7, #279]	@ 0x117
        /* SPI6 clock source configuration done later after clock selection check */
        break;
 8004336:	e00a      	b.n	800434e <HAL_RCCEx_PeriphCLKConfig+0x5d6>
        /* SPI6 clock source configuration done later after clock selection check */
        break;
#endif

      default:
        ret = HAL_ERROR;
 8004338:	2301      	movs	r3, #1
 800433a:	f887 3117 	strb.w	r3, [r7, #279]	@ 0x117
        break;
 800433e:	e006      	b.n	800434e <HAL_RCCEx_PeriphCLKConfig+0x5d6>
        break;
 8004340:	bf00      	nop
 8004342:	e004      	b.n	800434e <HAL_RCCEx_PeriphCLKConfig+0x5d6>
        break;
 8004344:	bf00      	nop
 8004346:	e002      	b.n	800434e <HAL_RCCEx_PeriphCLKConfig+0x5d6>
        break;
 8004348:	bf00      	nop
 800434a:	e000      	b.n	800434e <HAL_RCCEx_PeriphCLKConfig+0x5d6>
        break;
 800434c:	bf00      	nop
    }

    if (ret == HAL_OK)
 800434e:	f897 3117 	ldrb.w	r3, [r7, #279]	@ 0x117
 8004352:	2b00      	cmp	r3, #0
 8004354:	d10e      	bne.n	8004374 <HAL_RCCEx_PeriphCLKConfig+0x5fc>
    {
      /* Set the source of SPI6 clock*/
      __HAL_RCC_SPI6_CONFIG(PeriphClkInit->Spi6ClockSelection);
 8004356:	4b06      	ldr	r3, [pc, #24]	@ (8004370 <HAL_RCCEx_PeriphCLKConfig+0x5f8>)
 8004358:	6d9b      	ldr	r3, [r3, #88]	@ 0x58
 800435a:	f023 41e0 	bic.w	r1, r3, #1879048192	@ 0x70000000
 800435e:	f8d7 3104 	ldr.w	r3, [r7, #260]	@ 0x104
 8004362:	f8d3 30ac 	ldr.w	r3, [r3, #172]	@ 0xac
 8004366:	4a02      	ldr	r2, [pc, #8]	@ (8004370 <HAL_RCCEx_PeriphCLKConfig+0x5f8>)
 8004368:	430b      	orrs	r3, r1
 800436a:	6593      	str	r3, [r2, #88]	@ 0x58
 800436c:	e006      	b.n	800437c <HAL_RCCEx_PeriphCLKConfig+0x604>
 800436e:	bf00      	nop
 8004370:	58024400 	.word	0x58024400
    }
    else
    {
      /* set overall return value */
      status = ret;
 8004374:	f897 3117 	ldrb.w	r3, [r7, #279]	@ 0x117
 8004378:	f887 3116 	strb.w	r3, [r7, #278]	@ 0x116
  }
#endif /*DSI*/

#if defined(FDCAN1) || defined(FDCAN2)
  /*---------------------------- FDCAN configuration -------------------------------*/
  if (((PeriphClkInit->PeriphClockSelection) & RCC_PERIPHCLK_FDCAN) == RCC_PERIPHCLK_FDCAN)
 800437c:	f8d7 3104 	ldr.w	r3, [r7, #260]	@ 0x104
 8004380:	e9d3 2300 	ldrd	r2, r3, [r3]
 8004384:	f402 4300 	and.w	r3, r2, #32768	@ 0x8000
 8004388:	f8c7 30d0 	str.w	r3, [r7, #208]	@ 0xd0
 800438c:	2300      	movs	r3, #0
 800438e:	f8c7 30d4 	str.w	r3, [r7, #212]	@ 0xd4
 8004392:	e9d7 1234 	ldrd	r1, r2, [r7, #208]	@ 0xd0
 8004396:	460b      	mov	r3, r1
 8004398:	4313      	orrs	r3, r2
 800439a:	d037      	beq.n	800440c <HAL_RCCEx_PeriphCLKConfig+0x694>
  {
    switch (PeriphClkInit->FdcanClockSelection)
 800439c:	f8d7 3104 	ldr.w	r3, [r7, #260]	@ 0x104
 80043a0:	6edb      	ldr	r3, [r3, #108]	@ 0x6c
 80043a2:	f1b3 5f00 	cmp.w	r3, #536870912	@ 0x20000000
 80043a6:	d00e      	beq.n	80043c6 <HAL_RCCEx_PeriphCLKConfig+0x64e>
 80043a8:	f1b3 5f00 	cmp.w	r3, #536870912	@ 0x20000000
 80043ac:	d816      	bhi.n	80043dc <HAL_RCCEx_PeriphCLKConfig+0x664>
 80043ae:	2b00      	cmp	r3, #0
 80043b0:	d018      	beq.n	80043e4 <HAL_RCCEx_PeriphCLKConfig+0x66c>
 80043b2:	f1b3 5f80 	cmp.w	r3, #268435456	@ 0x10000000
 80043b6:	d111      	bne.n	80043dc <HAL_RCCEx_PeriphCLKConfig+0x664>
    {
      case RCC_FDCANCLKSOURCE_PLL:      /* PLL is used as clock source for FDCAN*/
        /* Enable FDCAN Clock output generated form System PLL . */
        __HAL_RCC_PLLCLKOUT_ENABLE(RCC_PLL1_DIVQ);
 80043b8:	4bc4      	ldr	r3, [pc, #784]	@ (80046cc <HAL_RCCEx_PeriphCLKConfig+0x954>)
 80043ba:	6adb      	ldr	r3, [r3, #44]	@ 0x2c
 80043bc:	4ac3      	ldr	r2, [pc, #780]	@ (80046cc <HAL_RCCEx_PeriphCLKConfig+0x954>)
 80043be:	f443 3300 	orr.w	r3, r3, #131072	@ 0x20000
 80043c2:	62d3      	str	r3, [r2, #44]	@ 0x2c

        /* FDCAN clock source configuration done later after clock selection check */
        break;
 80043c4:	e00f      	b.n	80043e6 <HAL_RCCEx_PeriphCLKConfig+0x66e>

      case RCC_FDCANCLKSOURCE_PLL2: /* PLL2 is used as clock source for FDCAN*/

        ret = RCCEx_PLL2_Config(&(PeriphClkInit->PLL2), DIVIDER_Q_UPDATE);
 80043c6:	f8d7 3104 	ldr.w	r3, [r7, #260]	@ 0x104
 80043ca:	3308      	adds	r3, #8
 80043cc:	2101      	movs	r1, #1
 80043ce:	4618      	mov	r0, r3
 80043d0:	f000 fe72 	bl	80050b8 <RCCEx_PLL2_Config>
 80043d4:	4603      	mov	r3, r0
 80043d6:	f887 3117 	strb.w	r3, [r7, #279]	@ 0x117

        /* FDCAN clock source configuration done later after clock selection check */
        break;
 80043da:	e004      	b.n	80043e6 <HAL_RCCEx_PeriphCLKConfig+0x66e>
        /* HSE is used as clock source for FDCAN*/
        /* FDCAN clock source configuration done later after clock selection check */
        break;

      default:
        ret = HAL_ERROR;
 80043dc:	2301      	movs	r3, #1
 80043de:	f887 3117 	strb.w	r3, [r7, #279]	@ 0x117
        break;
 80043e2:	e000      	b.n	80043e6 <HAL_RCCEx_PeriphCLKConfig+0x66e>
        break;
 80043e4:	bf00      	nop
    }

    if (ret == HAL_OK)
 80043e6:	f897 3117 	ldrb.w	r3, [r7, #279]	@ 0x117
 80043ea:	2b00      	cmp	r3, #0
 80043ec:	d10a      	bne.n	8004404 <HAL_RCCEx_PeriphCLKConfig+0x68c>
    {
      /* Set the source of FDCAN clock*/
      __HAL_RCC_FDCAN_CONFIG(PeriphClkInit->FdcanClockSelection);
 80043ee:	4bb7      	ldr	r3, [pc, #732]	@ (80046cc <HAL_RCCEx_PeriphCLKConfig+0x954>)
 80043f0:	6d1b      	ldr	r3, [r3, #80]	@ 0x50
 80043f2:	f023 5140 	bic.w	r1, r3, #805306368	@ 0x30000000
 80043f6:	f8d7 3104 	ldr.w	r3, [r7, #260]	@ 0x104
 80043fa:	6edb      	ldr	r3, [r3, #108]	@ 0x6c
 80043fc:	4ab3      	ldr	r2, [pc, #716]	@ (80046cc <HAL_RCCEx_PeriphCLKConfig+0x954>)
 80043fe:	430b      	orrs	r3, r1
 8004400:	6513      	str	r3, [r2, #80]	@ 0x50
 8004402:	e003      	b.n	800440c <HAL_RCCEx_PeriphCLKConfig+0x694>
    }
    else
    {
      /* set overall return value */
      status = ret;
 8004404:	f897 3117 	ldrb.w	r3, [r7, #279]	@ 0x117
 8004408:	f887 3116 	strb.w	r3, [r7, #278]	@ 0x116
    }
  }
#endif /*FDCAN1 || FDCAN2*/

  /*---------------------------- FMC configuration -------------------------------*/
  if (((PeriphClkInit->PeriphClockSelection) & RCC_PERIPHCLK_FMC) == RCC_PERIPHCLK_FMC)
 800440c:	f8d7 3104 	ldr.w	r3, [r7, #260]	@ 0x104
 8004410:	e9d3 2300 	ldrd	r2, r3, [r3]
 8004414:	f002 7380 	and.w	r3, r2, #16777216	@ 0x1000000
 8004418:	f8c7 30c8 	str.w	r3, [r7, #200]	@ 0xc8
 800441c:	2300      	movs	r3, #0
 800441e:	f8c7 30cc 	str.w	r3, [r7, #204]	@ 0xcc
 8004422:	e9d7 1232 	ldrd	r1, r2, [r7, #200]	@ 0xc8
 8004426:	460b      	mov	r3, r1
 8004428:	4313      	orrs	r3, r2
 800442a:	d039      	beq.n	80044a0 <HAL_RCCEx_PeriphCLKConfig+0x728>
  {
    switch (PeriphClkInit->FmcClockSelection)
 800442c:	f8d7 3104 	ldr.w	r3, [r7, #260]	@ 0x104
 8004430:	6c9b      	ldr	r3, [r3, #72]	@ 0x48
 8004432:	2b03      	cmp	r3, #3
 8004434:	d81c      	bhi.n	8004470 <HAL_RCCEx_PeriphCLKConfig+0x6f8>
 8004436:	a201      	add	r2, pc, #4	@ (adr r2, 800443c <HAL_RCCEx_PeriphCLKConfig+0x6c4>)
 8004438:	f852 f023 	ldr.w	pc, [r2, r3, lsl #2]
 800443c:	08004479 	.word	0x08004479
 8004440:	0800444d 	.word	0x0800444d
 8004444:	0800445b 	.word	0x0800445b
 8004448:	08004479 	.word	0x08004479
    {
      case RCC_FMCCLKSOURCE_PLL:      /* PLL is used as clock source for FMC*/
        /* Enable FMC Clock output generated form System PLL . */
        __HAL_RCC_PLLCLKOUT_ENABLE(RCC_PLL1_DIVQ);
 800444c:	4b9f      	ldr	r3, [pc, #636]	@ (80046cc <HAL_RCCEx_PeriphCLKConfig+0x954>)
 800444e:	6adb      	ldr	r3, [r3, #44]	@ 0x2c
 8004450:	4a9e      	ldr	r2, [pc, #632]	@ (80046cc <HAL_RCCEx_PeriphCLKConfig+0x954>)
 8004452:	f443 3300 	orr.w	r3, r3, #131072	@ 0x20000
 8004456:	62d3      	str	r3, [r2, #44]	@ 0x2c

        /* FMC clock source configuration done later after clock selection check */
        break;
 8004458:	e00f      	b.n	800447a <HAL_RCCEx_PeriphCLKConfig+0x702>

      case RCC_FMCCLKSOURCE_PLL2: /* PLL2 is used as clock source for FMC*/

        ret = RCCEx_PLL2_Config(&(PeriphClkInit->PLL2), DIVIDER_R_UPDATE);
 800445a:	f8d7 3104 	ldr.w	r3, [r7, #260]	@ 0x104
 800445e:	3308      	adds	r3, #8
 8004460:	2102      	movs	r1, #2
 8004462:	4618      	mov	r0, r3
 8004464:	f000 fe28 	bl	80050b8 <RCCEx_PLL2_Config>
 8004468:	4603      	mov	r3, r0
 800446a:	f887 3117 	strb.w	r3, [r7, #279]	@ 0x117

        /* FMC clock source configuration done later after clock selection check */
        break;
 800446e:	e004      	b.n	800447a <HAL_RCCEx_PeriphCLKConfig+0x702>
      case RCC_FMCCLKSOURCE_HCLK:
        /* D1/CD HCLK  clock selected as FMC kernel peripheral clock */
        break;

      default:
        ret = HAL_ERROR;
 8004470:	2301      	movs	r3, #1
 8004472:	f887 3117 	strb.w	r3, [r7, #279]	@ 0x117
        break;
 8004476:	e000      	b.n	800447a <HAL_RCCEx_PeriphCLKConfig+0x702>
        break;
 8004478:	bf00      	nop
    }

    if (ret == HAL_OK)
 800447a:	f897 3117 	ldrb.w	r3, [r7, #279]	@ 0x117
 800447e:	2b00      	cmp	r3, #0
 8004480:	d10a      	bne.n	8004498 <HAL_RCCEx_PeriphCLKConfig+0x720>
    {
      /* Set the source of FMC clock*/
      __HAL_RCC_FMC_CONFIG(PeriphClkInit->FmcClockSelection);
 8004482:	4b92      	ldr	r3, [pc, #584]	@ (80046cc <HAL_RCCEx_PeriphCLKConfig+0x954>)
 8004484:	6cdb      	ldr	r3, [r3, #76]	@ 0x4c
 8004486:	f023 0103 	bic.w	r1, r3, #3
 800448a:	f8d7 3104 	ldr.w	r3, [r7, #260]	@ 0x104
 800448e:	6c9b      	ldr	r3, [r3, #72]	@ 0x48
 8004490:	4a8e      	ldr	r2, [pc, #568]	@ (80046cc <HAL_RCCEx_PeriphCLKConfig+0x954>)
 8004492:	430b      	orrs	r3, r1
 8004494:	64d3      	str	r3, [r2, #76]	@ 0x4c
 8004496:	e003      	b.n	80044a0 <HAL_RCCEx_PeriphCLKConfig+0x728>
    }
    else
    {
      /* set overall return value */
      status = ret;
 8004498:	f897 3117 	ldrb.w	r3, [r7, #279]	@ 0x117
 800449c:	f887 3116 	strb.w	r3, [r7, #278]	@ 0x116
    }
  }

  /*---------------------------- RTC configuration -------------------------------*/
  if (((PeriphClkInit->PeriphClockSelection) & RCC_PERIPHCLK_RTC) == RCC_PERIPHCLK_RTC)
 80044a0:	f8d7 3104 	ldr.w	r3, [r7, #260]	@ 0x104
 80044a4:	e9d3 2300 	ldrd	r2, r3, [r3]
 80044a8:	f402 0380 	and.w	r3, r2, #4194304	@ 0x400000
 80044ac:	f8c7 30c0 	str.w	r3, [r7, #192]	@ 0xc0
 80044b0:	2300      	movs	r3, #0
 80044b2:	f8c7 30c4 	str.w	r3, [r7, #196]	@ 0xc4
 80044b6:	e9d7 1230 	ldrd	r1, r2, [r7, #192]	@ 0xc0
 80044ba:	460b      	mov	r3, r1
 80044bc:	4313      	orrs	r3, r2
 80044be:	f000 8099 	beq.w	80045f4 <HAL_RCCEx_PeriphCLKConfig+0x87c>
  {
    /* check for RTC Parameters used to output RTCCLK */
    assert_param(IS_RCC_RTCCLKSOURCE(PeriphClkInit->RTCClockSelection));

    /* Enable write access to Backup domain */
    SET_BIT(PWR->CR1, PWR_CR1_DBP);
 80044c2:	4b83      	ldr	r3, [pc, #524]	@ (80046d0 <HAL_RCCEx_PeriphCLKConfig+0x958>)
 80044c4:	681b      	ldr	r3, [r3, #0]
 80044c6:	4a82      	ldr	r2, [pc, #520]	@ (80046d0 <HAL_RCCEx_PeriphCLKConfig+0x958>)
 80044c8:	f443 7380 	orr.w	r3, r3, #256	@ 0x100
 80044cc:	6013      	str	r3, [r2, #0]

    /* Wait for Backup domain Write protection disable */
    tickstart = HAL_GetTick();
 80044ce:	f7fc fe91 	bl	80011f4 <HAL_GetTick>
 80044d2:	f8c7 0110 	str.w	r0, [r7, #272]	@ 0x110

    while ((PWR->CR1 & PWR_CR1_DBP) == 0U)
 80044d6:	e00b      	b.n	80044f0 <HAL_RCCEx_PeriphCLKConfig+0x778>
    {
      if ((HAL_GetTick() - tickstart) > RCC_DBP_TIMEOUT_VALUE)
 80044d8:	f7fc fe8c 	bl	80011f4 <HAL_GetTick>
 80044dc:	4602      	mov	r2, r0
 80044de:	f8d7 3110 	ldr.w	r3, [r7, #272]	@ 0x110
 80044e2:	1ad3      	subs	r3, r2, r3
 80044e4:	2b64      	cmp	r3, #100	@ 0x64
 80044e6:	d903      	bls.n	80044f0 <HAL_RCCEx_PeriphCLKConfig+0x778>
      {
        ret = HAL_TIMEOUT;
 80044e8:	2303      	movs	r3, #3
 80044ea:	f887 3117 	strb.w	r3, [r7, #279]	@ 0x117
        break;
 80044ee:	e005      	b.n	80044fc <HAL_RCCEx_PeriphCLKConfig+0x784>
    while ((PWR->CR1 & PWR_CR1_DBP) == 0U)
 80044f0:	4b77      	ldr	r3, [pc, #476]	@ (80046d0 <HAL_RCCEx_PeriphCLKConfig+0x958>)
 80044f2:	681b      	ldr	r3, [r3, #0]
 80044f4:	f403 7380 	and.w	r3, r3, #256	@ 0x100
 80044f8:	2b00      	cmp	r3, #0
 80044fa:	d0ed      	beq.n	80044d8 <HAL_RCCEx_PeriphCLKConfig+0x760>
      }
    }

    if (ret == HAL_OK)
 80044fc:	f897 3117 	ldrb.w	r3, [r7, #279]	@ 0x117
 8004500:	2b00      	cmp	r3, #0
 8004502:	d173      	bne.n	80045ec <HAL_RCCEx_PeriphCLKConfig+0x874>
    {
      /* Reset the Backup domain only if the RTC Clock source selection is modified */
      if ((RCC->BDCR & RCC_BDCR_RTCSEL) != (PeriphClkInit->RTCClockSelection & RCC_BDCR_RTCSEL))
 8004504:	4b71      	ldr	r3, [pc, #452]	@ (80046cc <HAL_RCCEx_PeriphCLKConfig+0x954>)
 8004506:	6f1a      	ldr	r2, [r3, #112]	@ 0x70
 8004508:	f8d7 3104 	ldr.w	r3, [r7, #260]	@ 0x104
 800450c:	f8d3 30b0 	ldr.w	r3, [r3, #176]	@ 0xb0
 8004510:	4053      	eors	r3, r2
 8004512:	f403 7340 	and.w	r3, r3, #768	@ 0x300
 8004516:	2b00      	cmp	r3, #0
 8004518:	d015      	beq.n	8004546 <HAL_RCCEx_PeriphCLKConfig+0x7ce>
      {
        /* Store the content of BDCR register before the reset of Backup Domain */
        tmpreg = (RCC->BDCR & ~(RCC_BDCR_RTCSEL));
 800451a:	4b6c      	ldr	r3, [pc, #432]	@ (80046cc <HAL_RCCEx_PeriphCLKConfig+0x954>)
 800451c:	6f1b      	ldr	r3, [r3, #112]	@ 0x70
 800451e:	f423 7340 	bic.w	r3, r3, #768	@ 0x300
 8004522:	f8c7 310c 	str.w	r3, [r7, #268]	@ 0x10c
        /* RTC Clock selection can be changed only if the Backup Domain is reset */
        __HAL_RCC_BACKUPRESET_FORCE();
 8004526:	4b69      	ldr	r3, [pc, #420]	@ (80046cc <HAL_RCCEx_PeriphCLKConfig+0x954>)
 8004528:	6f1b      	ldr	r3, [r3, #112]	@ 0x70
 800452a:	4a68      	ldr	r2, [pc, #416]	@ (80046cc <HAL_RCCEx_PeriphCLKConfig+0x954>)
 800452c:	f443 3380 	orr.w	r3, r3, #65536	@ 0x10000
 8004530:	6713      	str	r3, [r2, #112]	@ 0x70
        __HAL_RCC_BACKUPRESET_RELEASE();
 8004532:	4b66      	ldr	r3, [pc, #408]	@ (80046cc <HAL_RCCEx_PeriphCLKConfig+0x954>)
 8004534:	6f1b      	ldr	r3, [r3, #112]	@ 0x70
 8004536:	4a65      	ldr	r2, [pc, #404]	@ (80046cc <HAL_RCCEx_PeriphCLKConfig+0x954>)
 8004538:	f423 3380 	bic.w	r3, r3, #65536	@ 0x10000
 800453c:	6713      	str	r3, [r2, #112]	@ 0x70
        /* Restore the Content of BDCR register */
        RCC->BDCR = tmpreg;
 800453e:	4a63      	ldr	r2, [pc, #396]	@ (80046cc <HAL_RCCEx_PeriphCLKConfig+0x954>)
 8004540:	f8d7 310c 	ldr.w	r3, [r7, #268]	@ 0x10c
 8004544:	6713      	str	r3, [r2, #112]	@ 0x70
      }

      /* If LSE is selected as RTC clock source (and enabled prior to Backup Domain reset), wait for LSE reactivation */
      if (PeriphClkInit->RTCClockSelection == RCC_RTCCLKSOURCE_LSE)
 8004546:	f8d7 3104 	ldr.w	r3, [r7, #260]	@ 0x104
 800454a:	f8d3 30b0 	ldr.w	r3, [r3, #176]	@ 0xb0
 800454e:	f5b3 7f80 	cmp.w	r3, #256	@ 0x100
 8004552:	d118      	bne.n	8004586 <HAL_RCCEx_PeriphCLKConfig+0x80e>
      {
        /* Get Start Tick*/
        tickstart = HAL_GetTick();
 8004554:	f7fc fe4e 	bl	80011f4 <HAL_GetTick>
 8004558:	f8c7 0110 	str.w	r0, [r7, #272]	@ 0x110

        /* Wait till LSE is ready */
        while (__HAL_RCC_GET_FLAG(RCC_FLAG_LSERDY) == 0U)
 800455c:	e00d      	b.n	800457a <HAL_RCCEx_PeriphCLKConfig+0x802>
        {
          if ((HAL_GetTick() - tickstart) > RCC_LSE_TIMEOUT_VALUE)
 800455e:	f7fc fe49 	bl	80011f4 <HAL_GetTick>
 8004562:	4602      	mov	r2, r0
 8004564:	f8d7 3110 	ldr.w	r3, [r7, #272]	@ 0x110
 8004568:	1ad2      	subs	r2, r2, r3
 800456a:	f241 3388 	movw	r3, #5000	@ 0x1388
 800456e:	429a      	cmp	r2, r3
 8004570:	d903      	bls.n	800457a <HAL_RCCEx_PeriphCLKConfig+0x802>
          {
            ret = HAL_TIMEOUT;
 8004572:	2303      	movs	r3, #3
 8004574:	f887 3117 	strb.w	r3, [r7, #279]	@ 0x117
            break;
 8004578:	e005      	b.n	8004586 <HAL_RCCEx_PeriphCLKConfig+0x80e>
        while (__HAL_RCC_GET_FLAG(RCC_FLAG_LSERDY) == 0U)
 800457a:	4b54      	ldr	r3, [pc, #336]	@ (80046cc <HAL_RCCEx_PeriphCLKConfig+0x954>)
 800457c:	6f1b      	ldr	r3, [r3, #112]	@ 0x70
 800457e:	f003 0302 	and.w	r3, r3, #2
 8004582:	2b00      	cmp	r3, #0
 8004584:	d0eb      	beq.n	800455e <HAL_RCCEx_PeriphCLKConfig+0x7e6>
          }
        }
      }

      if (ret == HAL_OK)
 8004586:	f897 3117 	ldrb.w	r3, [r7, #279]	@ 0x117
 800458a:	2b00      	cmp	r3, #0
 800458c:	d129      	bne.n	80045e2 <HAL_RCCEx_PeriphCLKConfig+0x86a>
      {
        __HAL_RCC_RTC_CONFIG(PeriphClkInit->RTCClockSelection);
 800458e:	f8d7 3104 	ldr.w	r3, [r7, #260]	@ 0x104
 8004592:	f8d3 30b0 	ldr.w	r3, [r3, #176]	@ 0xb0
 8004596:	f403 7340 	and.w	r3, r3, #768	@ 0x300
 800459a:	f5b3 7f40 	cmp.w	r3, #768	@ 0x300
 800459e:	d10e      	bne.n	80045be <HAL_RCCEx_PeriphCLKConfig+0x846>
 80045a0:	4b4a      	ldr	r3, [pc, #296]	@ (80046cc <HAL_RCCEx_PeriphCLKConfig+0x954>)
 80045a2:	691b      	ldr	r3, [r3, #16]
 80045a4:	f423 517c 	bic.w	r1, r3, #16128	@ 0x3f00
 80045a8:	f8d7 3104 	ldr.w	r3, [r7, #260]	@ 0x104
 80045ac:	f8d3 30b0 	ldr.w	r3, [r3, #176]	@ 0xb0
 80045b0:	091a      	lsrs	r2, r3, #4
 80045b2:	4b48      	ldr	r3, [pc, #288]	@ (80046d4 <HAL_RCCEx_PeriphCLKConfig+0x95c>)
 80045b4:	4013      	ands	r3, r2
 80045b6:	4a45      	ldr	r2, [pc, #276]	@ (80046cc <HAL_RCCEx_PeriphCLKConfig+0x954>)
 80045b8:	430b      	orrs	r3, r1
 80045ba:	6113      	str	r3, [r2, #16]
 80045bc:	e005      	b.n	80045ca <HAL_RCCEx_PeriphCLKConfig+0x852>
 80045be:	4b43      	ldr	r3, [pc, #268]	@ (80046cc <HAL_RCCEx_PeriphCLKConfig+0x954>)
 80045c0:	691b      	ldr	r3, [r3, #16]
 80045c2:	4a42      	ldr	r2, [pc, #264]	@ (80046cc <HAL_RCCEx_PeriphCLKConfig+0x954>)
 80045c4:	f423 537c 	bic.w	r3, r3, #16128	@ 0x3f00
 80045c8:	6113      	str	r3, [r2, #16]
 80045ca:	4b40      	ldr	r3, [pc, #256]	@ (80046cc <HAL_RCCEx_PeriphCLKConfig+0x954>)
 80045cc:	6f19      	ldr	r1, [r3, #112]	@ 0x70
 80045ce:	f8d7 3104 	ldr.w	r3, [r7, #260]	@ 0x104
 80045d2:	f8d3 30b0 	ldr.w	r3, [r3, #176]	@ 0xb0
 80045d6:	f3c3 030b 	ubfx	r3, r3, #0, #12
 80045da:	4a3c      	ldr	r2, [pc, #240]	@ (80046cc <HAL_RCCEx_PeriphCLKConfig+0x954>)
 80045dc:	430b      	orrs	r3, r1
 80045de:	6713      	str	r3, [r2, #112]	@ 0x70
 80045e0:	e008      	b.n	80045f4 <HAL_RCCEx_PeriphCLKConfig+0x87c>
      }
      else
      {
        /* set overall return value */
        status = ret;
 80045e2:	f897 3117 	ldrb.w	r3, [r7, #279]	@ 0x117
 80045e6:	f887 3116 	strb.w	r3, [r7, #278]	@ 0x116
 80045ea:	e003      	b.n	80045f4 <HAL_RCCEx_PeriphCLKConfig+0x87c>
      }
    }
    else
    {
      /* set overall return value */
      status = ret;
 80045ec:	f897 3117 	ldrb.w	r3, [r7, #279]	@ 0x117
 80045f0:	f887 3116 	strb.w	r3, [r7, #278]	@ 0x116
    }
  }


  /*-------------------------- USART1/6 configuration --------------------------*/
  if (((PeriphClkInit->PeriphClockSelection) & RCC_PERIPHCLK_USART16) == RCC_PERIPHCLK_USART16)
 80045f4:	f8d7 3104 	ldr.w	r3, [r7, #260]	@ 0x104
 80045f8:	e9d3 2300 	ldrd	r2, r3, [r3]
 80045fc:	f002 0301 	and.w	r3, r2, #1
 8004600:	f8c7 30b8 	str.w	r3, [r7, #184]	@ 0xb8
 8004604:	2300      	movs	r3, #0
 8004606:	f8c7 30bc 	str.w	r3, [r7, #188]	@ 0xbc
 800460a:	e9d7 122e 	ldrd	r1, r2, [r7, #184]	@ 0xb8
 800460e:	460b      	mov	r3, r1
 8004610:	4313      	orrs	r3, r2
 8004612:	f000 808f 	beq.w	8004734 <HAL_RCCEx_PeriphCLKConfig+0x9bc>
  {
    switch (PeriphClkInit->Usart16ClockSelection)
 8004616:	f8d7 3104 	ldr.w	r3, [r7, #260]	@ 0x104
 800461a:	6f9b      	ldr	r3, [r3, #120]	@ 0x78
 800461c:	2b28      	cmp	r3, #40	@ 0x28
 800461e:	d871      	bhi.n	8004704 <HAL_RCCEx_PeriphCLKConfig+0x98c>
 8004620:	a201      	add	r2, pc, #4	@ (adr r2, 8004628 <HAL_RCCEx_PeriphCLKConfig+0x8b0>)
 8004622:	f852 f023 	ldr.w	pc, [r2, r3, lsl #2]
 8004626:	bf00      	nop
 8004628:	0800470d 	.word	0x0800470d
 800462c:	08004705 	.word	0x08004705
 8004630:	08004705 	.word	0x08004705
 8004634:	08004705 	.word	0x08004705
 8004638:	08004705 	.word	0x08004705
 800463c:	08004705 	.word	0x08004705
 8004640:	08004705 	.word	0x08004705
 8004644:	08004705 	.word	0x08004705
 8004648:	080046d9 	.word	0x080046d9
 800464c:	08004705 	.word	0x08004705
 8004650:	08004705 	.word	0x08004705
 8004654:	08004705 	.word	0x08004705
 8004658:	08004705 	.word	0x08004705
 800465c:	08004705 	.word	0x08004705
 8004660:	08004705 	.word	0x08004705
 8004664:	08004705 	.word	0x08004705
 8004668:	080046ef 	.word	0x080046ef
 800466c:	08004705 	.word	0x08004705
 8004670:	08004705 	.word	0x08004705
 8004674:	08004705 	.word	0x08004705
 8004678:	08004705 	.word	0x08004705
 800467c:	08004705 	.word	0x08004705
 8004680:	08004705 	.word	0x08004705
 8004684:	08004705 	.word	0x08004705
 8004688:	0800470d 	.word	0x0800470d
 800468c:	08004705 	.word	0x08004705
 8004690:	08004705 	.word	0x08004705
 8004694:	08004705 	.word	0x08004705
 8004698:	08004705 	.word	0x08004705
 800469c:	08004705 	.word	0x08004705
 80046a0:	08004705 	.word	0x08004705
 80046a4:	08004705 	.word	0x08004705
 80046a8:	0800470d 	.word	0x0800470d
 80046ac:	08004705 	.word	0x08004705
 80046b0:	08004705 	.word	0x08004705
 80046b4:	08004705 	.word	0x08004705
 80046b8:	08004705 	.word	0x08004705
 80046bc:	08004705 	.word	0x08004705
 80046c0:	08004705 	.word	0x08004705
 80046c4:	08004705 	.word	0x08004705
 80046c8:	0800470d 	.word	0x0800470d
 80046cc:	58024400 	.word	0x58024400
 80046d0:	58024800 	.word	0x58024800
 80046d4:	00ffffcf 	.word	0x00ffffcf
      case RCC_USART16CLKSOURCE_PCLK2: /* CD/D2 PCLK2 as clock source for USART1/6 */
        /* USART1/6 clock source configuration done later after clock selection check */
        break;

      case RCC_USART16CLKSOURCE_PLL2: /* PLL2 is used as clock source for USART1/6 */
        ret = RCCEx_PLL2_Config(&(PeriphClkInit->PLL2), DIVIDER_Q_UPDATE);
 80046d8:	f8d7 3104 	ldr.w	r3, [r7, #260]	@ 0x104
 80046dc:	3308      	adds	r3, #8
 80046de:	2101      	movs	r1, #1
 80046e0:	4618      	mov	r0, r3
 80046e2:	f000 fce9 	bl	80050b8 <RCCEx_PLL2_Config>
 80046e6:	4603      	mov	r3, r0
 80046e8:	f887 3117 	strb.w	r3, [r7, #279]	@ 0x117
        /* USART1/6 clock source configuration done later after clock selection check */
        break;
 80046ec:	e00f      	b.n	800470e <HAL_RCCEx_PeriphCLKConfig+0x996>

      case RCC_USART16CLKSOURCE_PLL3: /* PLL3 is used as clock source for USART1/6 */
        ret = RCCEx_PLL3_Config(&(PeriphClkInit->PLL3), DIVIDER_Q_UPDATE);
 80046ee:	f8d7 3104 	ldr.w	r3, [r7, #260]	@ 0x104
 80046f2:	3328      	adds	r3, #40	@ 0x28
 80046f4:	2101      	movs	r1, #1
 80046f6:	4618      	mov	r0, r3
 80046f8:	f000 fd90 	bl	800521c <RCCEx_PLL3_Config>
 80046fc:	4603      	mov	r3, r0
 80046fe:	f887 3117 	strb.w	r3, [r7, #279]	@ 0x117
        /* USART1/6 clock source configuration done later after clock selection check */
        break;
 8004702:	e004      	b.n	800470e <HAL_RCCEx_PeriphCLKConfig+0x996>
        /* LSE,  oscillator is used as source of USART1/6 clock */
        /* USART1/6 clock source configuration done later after clock selection check */
        break;

      default:
        ret = HAL_ERROR;
 8004704:	2301      	movs	r3, #1
 8004706:	f887 3117 	strb.w	r3, [r7, #279]	@ 0x117
        break;
 800470a:	e000      	b.n	800470e <HAL_RCCEx_PeriphCLKConfig+0x996>
        break;
 800470c:	bf00      	nop
    }

    if (ret == HAL_OK)
 800470e:	f897 3117 	ldrb.w	r3, [r7, #279]	@ 0x117
 8004712:	2b00      	cmp	r3, #0
 8004714:	d10a      	bne.n	800472c <HAL_RCCEx_PeriphCLKConfig+0x9b4>
    {
      /* Set the source of USART1/6 clock */
      __HAL_RCC_USART16_CONFIG(PeriphClkInit->Usart16ClockSelection);
 8004716:	4bbf      	ldr	r3, [pc, #764]	@ (8004a14 <HAL_RCCEx_PeriphCLKConfig+0xc9c>)
 8004718:	6d5b      	ldr	r3, [r3, #84]	@ 0x54
 800471a:	f023 0138 	bic.w	r1, r3, #56	@ 0x38
 800471e:	f8d7 3104 	ldr.w	r3, [r7, #260]	@ 0x104
 8004722:	6f9b      	ldr	r3, [r3, #120]	@ 0x78
 8004724:	4abb      	ldr	r2, [pc, #748]	@ (8004a14 <HAL_RCCEx_PeriphCLKConfig+0xc9c>)
 8004726:	430b      	orrs	r3, r1
 8004728:	6553      	str	r3, [r2, #84]	@ 0x54
 800472a:	e003      	b.n	8004734 <HAL_RCCEx_PeriphCLKConfig+0x9bc>
    }
    else
    {
      /* set overall return value */
      status = ret;
 800472c:	f897 3117 	ldrb.w	r3, [r7, #279]	@ 0x117
 8004730:	f887 3116 	strb.w	r3, [r7, #278]	@ 0x116
    }
  }

  /*-------------------------- USART2/3/4/5/7/8 Configuration --------------------------*/
  if (((PeriphClkInit->PeriphClockSelection) & RCC_PERIPHCLK_USART234578) == RCC_PERIPHCLK_USART234578)
 8004734:	f8d7 3104 	ldr.w	r3, [r7, #260]	@ 0x104
 8004738:	e9d3 2300 	ldrd	r2, r3, [r3]
 800473c:	f002 0302 	and.w	r3, r2, #2
 8004740:	f8c7 30b0 	str.w	r3, [r7, #176]	@ 0xb0
 8004744:	2300      	movs	r3, #0
 8004746:	f8c7 30b4 	str.w	r3, [r7, #180]	@ 0xb4
 800474a:	e9d7 122c 	ldrd	r1, r2, [r7, #176]	@ 0xb0
 800474e:	460b      	mov	r3, r1
 8004750:	4313      	orrs	r3, r2
 8004752:	d041      	beq.n	80047d8 <HAL_RCCEx_PeriphCLKConfig+0xa60>
  {
    switch (PeriphClkInit->Usart234578ClockSelection)
 8004754:	f8d7 3104 	ldr.w	r3, [r7, #260]	@ 0x104
 8004758:	6f5b      	ldr	r3, [r3, #116]	@ 0x74
 800475a:	2b05      	cmp	r3, #5
 800475c:	d824      	bhi.n	80047a8 <HAL_RCCEx_PeriphCLKConfig+0xa30>
 800475e:	a201      	add	r2, pc, #4	@ (adr r2, 8004764 <HAL_RCCEx_PeriphCLKConfig+0x9ec>)
 8004760:	f852 f023 	ldr.w	pc, [r2, r3, lsl #2]
 8004764:	080047b1 	.word	0x080047b1
 8004768:	0800477d 	.word	0x0800477d
 800476c:	08004793 	.word	0x08004793
 8004770:	080047b1 	.word	0x080047b1
 8004774:	080047b1 	.word	0x080047b1
 8004778:	080047b1 	.word	0x080047b1
      case RCC_USART234578CLKSOURCE_PCLK1: /* CD/D2 PCLK1 as clock source for USART2/3/4/5/7/8 */
        /* USART2/3/4/5/7/8 clock source configuration done later after clock selection check */
        break;

      case RCC_USART234578CLKSOURCE_PLL2: /* PLL2 is used as clock source for USART2/3/4/5/7/8 */
        ret = RCCEx_PLL2_Config(&(PeriphClkInit->PLL2), DIVIDER_Q_UPDATE);
 800477c:	f8d7 3104 	ldr.w	r3, [r7, #260]	@ 0x104
 8004780:	3308      	adds	r3, #8
 8004782:	2101      	movs	r1, #1
 8004784:	4618      	mov	r0, r3
 8004786:	f000 fc97 	bl	80050b8 <RCCEx_PLL2_Config>
 800478a:	4603      	mov	r3, r0
 800478c:	f887 3117 	strb.w	r3, [r7, #279]	@ 0x117
        /* USART2/3/4/5/7/8 clock source configuration done later after clock selection check */
        break;
 8004790:	e00f      	b.n	80047b2 <HAL_RCCEx_PeriphCLKConfig+0xa3a>

      case RCC_USART234578CLKSOURCE_PLL3: /* PLL3 is used as clock source for USART2/3/4/5/7/8 */
        ret = RCCEx_PLL3_Config(&(PeriphClkInit->PLL3), DIVIDER_Q_UPDATE);
 8004792:	f8d7 3104 	ldr.w	r3, [r7, #260]	@ 0x104
 8004796:	3328      	adds	r3, #40	@ 0x28
 8004798:	2101      	movs	r1, #1
 800479a:	4618      	mov	r0, r3
 800479c:	f000 fd3e 	bl	800521c <RCCEx_PLL3_Config>
 80047a0:	4603      	mov	r3, r0
 80047a2:	f887 3117 	strb.w	r3, [r7, #279]	@ 0x117
        /* USART2/3/4/5/7/8 clock source configuration done later after clock selection check */
        break;
 80047a6:	e004      	b.n	80047b2 <HAL_RCCEx_PeriphCLKConfig+0xa3a>
        /* LSE,  oscillator is used as source of USART2/3/4/5/7/8 clock */
        /* USART2/3/4/5/7/8 clock source configuration done later after clock selection check */
        break;

      default:
        ret = HAL_ERROR;
 80047a8:	2301      	movs	r3, #1
 80047aa:	f887 3117 	strb.w	r3, [r7, #279]	@ 0x117
        break;
 80047ae:	e000      	b.n	80047b2 <HAL_RCCEx_PeriphCLKConfig+0xa3a>
        break;
 80047b0:	bf00      	nop
    }

    if (ret == HAL_OK)
 80047b2:	f897 3117 	ldrb.w	r3, [r7, #279]	@ 0x117
 80047b6:	2b00      	cmp	r3, #0
 80047b8:	d10a      	bne.n	80047d0 <HAL_RCCEx_PeriphCLKConfig+0xa58>
    {
      /* Set the source of USART2/3/4/5/7/8 clock */
      __HAL_RCC_USART234578_CONFIG(PeriphClkInit->Usart234578ClockSelection);
 80047ba:	4b96      	ldr	r3, [pc, #600]	@ (8004a14 <HAL_RCCEx_PeriphCLKConfig+0xc9c>)
 80047bc:	6d5b      	ldr	r3, [r3, #84]	@ 0x54
 80047be:	f023 0107 	bic.w	r1, r3, #7
 80047c2:	f8d7 3104 	ldr.w	r3, [r7, #260]	@ 0x104
 80047c6:	6f5b      	ldr	r3, [r3, #116]	@ 0x74
 80047c8:	4a92      	ldr	r2, [pc, #584]	@ (8004a14 <HAL_RCCEx_PeriphCLKConfig+0xc9c>)
 80047ca:	430b      	orrs	r3, r1
 80047cc:	6553      	str	r3, [r2, #84]	@ 0x54
 80047ce:	e003      	b.n	80047d8 <HAL_RCCEx_PeriphCLKConfig+0xa60>
    }
    else
    {
      /* set overall return value */
      status = ret;
 80047d0:	f897 3117 	ldrb.w	r3, [r7, #279]	@ 0x117
 80047d4:	f887 3116 	strb.w	r3, [r7, #278]	@ 0x116
    }
  }

  /*-------------------------- LPUART1 Configuration -------------------------*/
  if (((PeriphClkInit->PeriphClockSelection) & RCC_PERIPHCLK_LPUART1) == RCC_PERIPHCLK_LPUART1)
 80047d8:	f8d7 3104 	ldr.w	r3, [r7, #260]	@ 0x104
 80047dc:	e9d3 2300 	ldrd	r2, r3, [r3]
 80047e0:	f002 0304 	and.w	r3, r2, #4
 80047e4:	f8c7 30a8 	str.w	r3, [r7, #168]	@ 0xa8
 80047e8:	2300      	movs	r3, #0
 80047ea:	f8c7 30ac 	str.w	r3, [r7, #172]	@ 0xac
 80047ee:	e9d7 122a 	ldrd	r1, r2, [r7, #168]	@ 0xa8
 80047f2:	460b      	mov	r3, r1
 80047f4:	4313      	orrs	r3, r2
 80047f6:	d044      	beq.n	8004882 <HAL_RCCEx_PeriphCLKConfig+0xb0a>
  {
    switch (PeriphClkInit->Lpuart1ClockSelection)
 80047f8:	f8d7 3104 	ldr.w	r3, [r7, #260]	@ 0x104
 80047fc:	f8d3 3090 	ldr.w	r3, [r3, #144]	@ 0x90
 8004800:	2b05      	cmp	r3, #5
 8004802:	d825      	bhi.n	8004850 <HAL_RCCEx_PeriphCLKConfig+0xad8>
 8004804:	a201      	add	r2, pc, #4	@ (adr r2, 800480c <HAL_RCCEx_PeriphCLKConfig+0xa94>)
 8004806:	f852 f023 	ldr.w	pc, [r2, r3, lsl #2]
 800480a:	bf00      	nop
 800480c:	08004859 	.word	0x08004859
 8004810:	08004825 	.word	0x08004825
 8004814:	0800483b 	.word	0x0800483b
 8004818:	08004859 	.word	0x08004859
 800481c:	08004859 	.word	0x08004859
 8004820:	08004859 	.word	0x08004859
      case RCC_LPUART1CLKSOURCE_PCLK4: /* SRD/D3 PCLK1 (PCLK4) as clock source for LPUART1 */
        /* LPUART1 clock source configuration done later after clock selection check */
        break;

      case RCC_LPUART1CLKSOURCE_PLL2: /* PLL2 is used as clock source for LPUART1 */
        ret = RCCEx_PLL2_Config(&(PeriphClkInit->PLL2), DIVIDER_Q_UPDATE);
 8004824:	f8d7 3104 	ldr.w	r3, [r7, #260]	@ 0x104
 8004828:	3308      	adds	r3, #8
 800482a:	2101      	movs	r1, #1
 800482c:	4618      	mov	r0, r3
 800482e:	f000 fc43 	bl	80050b8 <RCCEx_PLL2_Config>
 8004832:	4603      	mov	r3, r0
 8004834:	f887 3117 	strb.w	r3, [r7, #279]	@ 0x117
        /* LPUART1 clock source configuration done later after clock selection check */
        break;
 8004838:	e00f      	b.n	800485a <HAL_RCCEx_PeriphCLKConfig+0xae2>

      case RCC_LPUART1CLKSOURCE_PLL3: /* PLL3 is used as clock source for LPUART1 */
        ret = RCCEx_PLL3_Config(&(PeriphClkInit->PLL3), DIVIDER_Q_UPDATE);
 800483a:	f8d7 3104 	ldr.w	r3, [r7, #260]	@ 0x104
 800483e:	3328      	adds	r3, #40	@ 0x28
 8004840:	2101      	movs	r1, #1
 8004842:	4618      	mov	r0, r3
 8004844:	f000 fcea 	bl	800521c <RCCEx_PLL3_Config>
 8004848:	4603      	mov	r3, r0
 800484a:	f887 3117 	strb.w	r3, [r7, #279]	@ 0x117
        /* LPUART1 clock source configuration done later after clock selection check */
        break;
 800484e:	e004      	b.n	800485a <HAL_RCCEx_PeriphCLKConfig+0xae2>
        /* LSE,  oscillator is used as source of LPUART1 clock */
        /* LPUART1 clock source configuration done later after clock selection check */
        break;

      default:
        ret = HAL_ERROR;
 8004850:	2301      	movs	r3, #1
 8004852:	f887 3117 	strb.w	r3, [r7, #279]	@ 0x117
        break;
 8004856:	e000      	b.n	800485a <HAL_RCCEx_PeriphCLKConfig+0xae2>
        break;
 8004858:	bf00      	nop
    }

    if (ret == HAL_OK)
 800485a:	f897 3117 	ldrb.w	r3, [r7, #279]	@ 0x117
 800485e:	2b00      	cmp	r3, #0
 8004860:	d10b      	bne.n	800487a <HAL_RCCEx_PeriphCLKConfig+0xb02>
    {
      /* Set the source of LPUART1 clock */
      __HAL_RCC_LPUART1_CONFIG(PeriphClkInit->Lpuart1ClockSelection);
 8004862:	4b6c      	ldr	r3, [pc, #432]	@ (8004a14 <HAL_RCCEx_PeriphCLKConfig+0xc9c>)
 8004864:	6d9b      	ldr	r3, [r3, #88]	@ 0x58
 8004866:	f023 0107 	bic.w	r1, r3, #7
 800486a:	f8d7 3104 	ldr.w	r3, [r7, #260]	@ 0x104
 800486e:	f8d3 3090 	ldr.w	r3, [r3, #144]	@ 0x90
 8004872:	4a68      	ldr	r2, [pc, #416]	@ (8004a14 <HAL_RCCEx_PeriphCLKConfig+0xc9c>)
 8004874:	430b      	orrs	r3, r1
 8004876:	6593      	str	r3, [r2, #88]	@ 0x58
 8004878:	e003      	b.n	8004882 <HAL_RCCEx_PeriphCLKConfig+0xb0a>
    }
    else
    {
      /* set overall return value */
      status = ret;
 800487a:	f897 3117 	ldrb.w	r3, [r7, #279]	@ 0x117
 800487e:	f887 3116 	strb.w	r3, [r7, #278]	@ 0x116
    }
  }

  /*---------------------------- LPTIM1 configuration -------------------------------*/
  if (((PeriphClkInit->PeriphClockSelection) & RCC_PERIPHCLK_LPTIM1) == RCC_PERIPHCLK_LPTIM1)
 8004882:	f8d7 3104 	ldr.w	r3, [r7, #260]	@ 0x104
 8004886:	e9d3 2300 	ldrd	r2, r3, [r3]
 800488a:	f002 0320 	and.w	r3, r2, #32
 800488e:	f8c7 30a0 	str.w	r3, [r7, #160]	@ 0xa0
 8004892:	2300      	movs	r3, #0
 8004894:	f8c7 30a4 	str.w	r3, [r7, #164]	@ 0xa4
 8004898:	e9d7 1228 	ldrd	r1, r2, [r7, #160]	@ 0xa0
 800489c:	460b      	mov	r3, r1
 800489e:	4313      	orrs	r3, r2
 80048a0:	d055      	beq.n	800494e <HAL_RCCEx_PeriphCLKConfig+0xbd6>
  {
    switch (PeriphClkInit->Lptim1ClockSelection)
 80048a2:	f8d7 3104 	ldr.w	r3, [r7, #260]	@ 0x104
 80048a6:	f8d3 308c 	ldr.w	r3, [r3, #140]	@ 0x8c
 80048aa:	f1b3 4fa0 	cmp.w	r3, #1342177280	@ 0x50000000
 80048ae:	d033      	beq.n	8004918 <HAL_RCCEx_PeriphCLKConfig+0xba0>
 80048b0:	f1b3 4fa0 	cmp.w	r3, #1342177280	@ 0x50000000
 80048b4:	d82c      	bhi.n	8004910 <HAL_RCCEx_PeriphCLKConfig+0xb98>
 80048b6:	f1b3 4f80 	cmp.w	r3, #1073741824	@ 0x40000000
 80048ba:	d02f      	beq.n	800491c <HAL_RCCEx_PeriphCLKConfig+0xba4>
 80048bc:	f1b3 4f80 	cmp.w	r3, #1073741824	@ 0x40000000
 80048c0:	d826      	bhi.n	8004910 <HAL_RCCEx_PeriphCLKConfig+0xb98>
 80048c2:	f1b3 5f40 	cmp.w	r3, #805306368	@ 0x30000000
 80048c6:	d02b      	beq.n	8004920 <HAL_RCCEx_PeriphCLKConfig+0xba8>
 80048c8:	f1b3 5f40 	cmp.w	r3, #805306368	@ 0x30000000
 80048cc:	d820      	bhi.n	8004910 <HAL_RCCEx_PeriphCLKConfig+0xb98>
 80048ce:	f1b3 5f00 	cmp.w	r3, #536870912	@ 0x20000000
 80048d2:	d012      	beq.n	80048fa <HAL_RCCEx_PeriphCLKConfig+0xb82>
 80048d4:	f1b3 5f00 	cmp.w	r3, #536870912	@ 0x20000000
 80048d8:	d81a      	bhi.n	8004910 <HAL_RCCEx_PeriphCLKConfig+0xb98>
 80048da:	2b00      	cmp	r3, #0
 80048dc:	d022      	beq.n	8004924 <HAL_RCCEx_PeriphCLKConfig+0xbac>
 80048de:	f1b3 5f80 	cmp.w	r3, #268435456	@ 0x10000000
 80048e2:	d115      	bne.n	8004910 <HAL_RCCEx_PeriphCLKConfig+0xb98>
        /* LPTIM1 clock source configuration done later after clock selection check */
        break;

      case RCC_LPTIM1CLKSOURCE_PLL2: /* PLL2 is used as clock source for LPTIM1*/

        ret = RCCEx_PLL2_Config(&(PeriphClkInit->PLL2), DIVIDER_P_UPDATE);
 80048e4:	f8d7 3104 	ldr.w	r3, [r7, #260]	@ 0x104
 80048e8:	3308      	adds	r3, #8
 80048ea:	2100      	movs	r1, #0
 80048ec:	4618      	mov	r0, r3
 80048ee:	f000 fbe3 	bl	80050b8 <RCCEx_PLL2_Config>
 80048f2:	4603      	mov	r3, r0
 80048f4:	f887 3117 	strb.w	r3, [r7, #279]	@ 0x117

        /* LPTIM1 clock source configuration done later after clock selection check */
        break;
 80048f8:	e015      	b.n	8004926 <HAL_RCCEx_PeriphCLKConfig+0xbae>

      case RCC_LPTIM1CLKSOURCE_PLL3:  /* PLL3 is used as clock source for LPTIM1*/
        ret = RCCEx_PLL3_Config(&(PeriphClkInit->PLL3), DIVIDER_R_UPDATE);
 80048fa:	f8d7 3104 	ldr.w	r3, [r7, #260]	@ 0x104
 80048fe:	3328      	adds	r3, #40	@ 0x28
 8004900:	2102      	movs	r1, #2
 8004902:	4618      	mov	r0, r3
 8004904:	f000 fc8a 	bl	800521c <RCCEx_PLL3_Config>
 8004908:	4603      	mov	r3, r0
 800490a:	f887 3117 	strb.w	r3, [r7, #279]	@ 0x117

        /* LPTIM1 clock source configuration done later after clock selection check */
        break;
 800490e:	e00a      	b.n	8004926 <HAL_RCCEx_PeriphCLKConfig+0xbae>
        /* HSI, HSE, or CSI oscillator is used as source of LPTIM1 clock */
        /* LPTIM1 clock source configuration done later after clock selection check */
        break;

      default:
        ret = HAL_ERROR;
 8004910:	2301      	movs	r3, #1
 8004912:	f887 3117 	strb.w	r3, [r7, #279]	@ 0x117
        break;
 8004916:	e006      	b.n	8004926 <HAL_RCCEx_PeriphCLKConfig+0xbae>
        break;
 8004918:	bf00      	nop
 800491a:	e004      	b.n	8004926 <HAL_RCCEx_PeriphCLKConfig+0xbae>
        break;
 800491c:	bf00      	nop
 800491e:	e002      	b.n	8004926 <HAL_RCCEx_PeriphCLKConfig+0xbae>
        break;
 8004920:	bf00      	nop
 8004922:	e000      	b.n	8004926 <HAL_RCCEx_PeriphCLKConfig+0xbae>
        break;
 8004924:	bf00      	nop
    }

    if (ret == HAL_OK)
 8004926:	f897 3117 	ldrb.w	r3, [r7, #279]	@ 0x117
 800492a:	2b00      	cmp	r3, #0
 800492c:	d10b      	bne.n	8004946 <HAL_RCCEx_PeriphCLKConfig+0xbce>
    {
      /* Set the source of LPTIM1 clock*/
      __HAL_RCC_LPTIM1_CONFIG(PeriphClkInit->Lptim1ClockSelection);
 800492e:	4b39      	ldr	r3, [pc, #228]	@ (8004a14 <HAL_RCCEx_PeriphCLKConfig+0xc9c>)
 8004930:	6d5b      	ldr	r3, [r3, #84]	@ 0x54
 8004932:	f023 41e0 	bic.w	r1, r3, #1879048192	@ 0x70000000
 8004936:	f8d7 3104 	ldr.w	r3, [r7, #260]	@ 0x104
 800493a:	f8d3 308c 	ldr.w	r3, [r3, #140]	@ 0x8c
 800493e:	4a35      	ldr	r2, [pc, #212]	@ (8004a14 <HAL_RCCEx_PeriphCLKConfig+0xc9c>)
 8004940:	430b      	orrs	r3, r1
 8004942:	6553      	str	r3, [r2, #84]	@ 0x54
 8004944:	e003      	b.n	800494e <HAL_RCCEx_PeriphCLKConfig+0xbd6>
    }
    else
    {
      /* set overall return value */
      status = ret;
 8004946:	f897 3117 	ldrb.w	r3, [r7, #279]	@ 0x117
 800494a:	f887 3116 	strb.w	r3, [r7, #278]	@ 0x116
    }
  }

  /*---------------------------- LPTIM2 configuration -------------------------------*/
  if (((PeriphClkInit->PeriphClockSelection) & RCC_PERIPHCLK_LPTIM2) == RCC_PERIPHCLK_LPTIM2)
 800494e:	f8d7 3104 	ldr.w	r3, [r7, #260]	@ 0x104
 8004952:	e9d3 2300 	ldrd	r2, r3, [r3]
 8004956:	f002 0340 	and.w	r3, r2, #64	@ 0x40
 800495a:	f8c7 3098 	str.w	r3, [r7, #152]	@ 0x98
 800495e:	2300      	movs	r3, #0
 8004960:	f8c7 309c 	str.w	r3, [r7, #156]	@ 0x9c
 8004964:	e9d7 1226 	ldrd	r1, r2, [r7, #152]	@ 0x98
 8004968:	460b      	mov	r3, r1
 800496a:	4313      	orrs	r3, r2
 800496c:	d058      	beq.n	8004a20 <HAL_RCCEx_PeriphCLKConfig+0xca8>
  {
    switch (PeriphClkInit->Lptim2ClockSelection)
 800496e:	f8d7 3104 	ldr.w	r3, [r7, #260]	@ 0x104
 8004972:	f8d3 3098 	ldr.w	r3, [r3, #152]	@ 0x98
 8004976:	f5b3 5fa0 	cmp.w	r3, #5120	@ 0x1400
 800497a:	d033      	beq.n	80049e4 <HAL_RCCEx_PeriphCLKConfig+0xc6c>
 800497c:	f5b3 5fa0 	cmp.w	r3, #5120	@ 0x1400
 8004980:	d82c      	bhi.n	80049dc <HAL_RCCEx_PeriphCLKConfig+0xc64>
 8004982:	f5b3 5f80 	cmp.w	r3, #4096	@ 0x1000
 8004986:	d02f      	beq.n	80049e8 <HAL_RCCEx_PeriphCLKConfig+0xc70>
 8004988:	f5b3 5f80 	cmp.w	r3, #4096	@ 0x1000
 800498c:	d826      	bhi.n	80049dc <HAL_RCCEx_PeriphCLKConfig+0xc64>
 800498e:	f5b3 6f40 	cmp.w	r3, #3072	@ 0xc00
 8004992:	d02b      	beq.n	80049ec <HAL_RCCEx_PeriphCLKConfig+0xc74>
 8004994:	f5b3 6f40 	cmp.w	r3, #3072	@ 0xc00
 8004998:	d820      	bhi.n	80049dc <HAL_RCCEx_PeriphCLKConfig+0xc64>
 800499a:	f5b3 6f00 	cmp.w	r3, #2048	@ 0x800
 800499e:	d012      	beq.n	80049c6 <HAL_RCCEx_PeriphCLKConfig+0xc4e>
 80049a0:	f5b3 6f00 	cmp.w	r3, #2048	@ 0x800
 80049a4:	d81a      	bhi.n	80049dc <HAL_RCCEx_PeriphCLKConfig+0xc64>
 80049a6:	2b00      	cmp	r3, #0
 80049a8:	d022      	beq.n	80049f0 <HAL_RCCEx_PeriphCLKConfig+0xc78>
 80049aa:	f5b3 6f80 	cmp.w	r3, #1024	@ 0x400
 80049ae:	d115      	bne.n	80049dc <HAL_RCCEx_PeriphCLKConfig+0xc64>
        /* LPTIM2 clock source configuration done later after clock selection check */
        break;

      case RCC_LPTIM2CLKSOURCE_PLL2: /* PLL2 is used as clock source for LPTIM2*/

        ret = RCCEx_PLL2_Config(&(PeriphClkInit->PLL2), DIVIDER_P_UPDATE);
 80049b0:	f8d7 3104 	ldr.w	r3, [r7, #260]	@ 0x104
 80049b4:	3308      	adds	r3, #8
 80049b6:	2100      	movs	r1, #0
 80049b8:	4618      	mov	r0, r3
 80049ba:	f000 fb7d 	bl	80050b8 <RCCEx_PLL2_Config>
 80049be:	4603      	mov	r3, r0
 80049c0:	f887 3117 	strb.w	r3, [r7, #279]	@ 0x117

        /* LPTIM2 clock source configuration done later after clock selection check */
        break;
 80049c4:	e015      	b.n	80049f2 <HAL_RCCEx_PeriphCLKConfig+0xc7a>

      case RCC_LPTIM2CLKSOURCE_PLL3:  /* PLL3 is used as clock source for LPTIM2*/
        ret = RCCEx_PLL3_Config(&(PeriphClkInit->PLL3), DIVIDER_R_UPDATE);
 80049c6:	f8d7 3104 	ldr.w	r3, [r7, #260]	@ 0x104
 80049ca:	3328      	adds	r3, #40	@ 0x28
 80049cc:	2102      	movs	r1, #2
 80049ce:	4618      	mov	r0, r3
 80049d0:	f000 fc24 	bl	800521c <RCCEx_PLL3_Config>
 80049d4:	4603      	mov	r3, r0
 80049d6:	f887 3117 	strb.w	r3, [r7, #279]	@ 0x117

        /* LPTIM2 clock source configuration done later after clock selection check */
        break;
 80049da:	e00a      	b.n	80049f2 <HAL_RCCEx_PeriphCLKConfig+0xc7a>
        /* HSI, HSE, or CSI oscillator is used as source of LPTIM2 clock */
        /* LPTIM2 clock source configuration done later after clock selection check */
        break;

      default:
        ret = HAL_ERROR;
 80049dc:	2301      	movs	r3, #1
 80049de:	f887 3117 	strb.w	r3, [r7, #279]	@ 0x117
        break;
 80049e2:	e006      	b.n	80049f2 <HAL_RCCEx_PeriphCLKConfig+0xc7a>
        break;
 80049e4:	bf00      	nop
 80049e6:	e004      	b.n	80049f2 <HAL_RCCEx_PeriphCLKConfig+0xc7a>
        break;
 80049e8:	bf00      	nop
 80049ea:	e002      	b.n	80049f2 <HAL_RCCEx_PeriphCLKConfig+0xc7a>
        break;
 80049ec:	bf00      	nop
 80049ee:	e000      	b.n	80049f2 <HAL_RCCEx_PeriphCLKConfig+0xc7a>
        break;
 80049f0:	bf00      	nop
    }

    if (ret == HAL_OK)
 80049f2:	f897 3117 	ldrb.w	r3, [r7, #279]	@ 0x117
 80049f6:	2b00      	cmp	r3, #0
 80049f8:	d10e      	bne.n	8004a18 <HAL_RCCEx_PeriphCLKConfig+0xca0>
    {
      /* Set the source of LPTIM2 clock*/
      __HAL_RCC_LPTIM2_CONFIG(PeriphClkInit->Lptim2ClockSelection);
 80049fa:	4b06      	ldr	r3, [pc, #24]	@ (8004a14 <HAL_RCCEx_PeriphCLKConfig+0xc9c>)
 80049fc:	6d9b      	ldr	r3, [r3, #88]	@ 0x58
 80049fe:	f423 51e0 	bic.w	r1, r3, #7168	@ 0x1c00
 8004a02:	f8d7 3104 	ldr.w	r3, [r7, #260]	@ 0x104
 8004a06:	f8d3 3098 	ldr.w	r3, [r3, #152]	@ 0x98
 8004a0a:	4a02      	ldr	r2, [pc, #8]	@ (8004a14 <HAL_RCCEx_PeriphCLKConfig+0xc9c>)
 8004a0c:	430b      	orrs	r3, r1
 8004a0e:	6593      	str	r3, [r2, #88]	@ 0x58
 8004a10:	e006      	b.n	8004a20 <HAL_RCCEx_PeriphCLKConfig+0xca8>
 8004a12:	bf00      	nop
 8004a14:	58024400 	.word	0x58024400
    }
    else
    {
      /* set overall return value */
      status = ret;
 8004a18:	f897 3117 	ldrb.w	r3, [r7, #279]	@ 0x117
 8004a1c:	f887 3116 	strb.w	r3, [r7, #278]	@ 0x116
    }
  }

  /*---------------------------- LPTIM345 configuration -------------------------------*/
  if (((PeriphClkInit->PeriphClockSelection) & RCC_PERIPHCLK_LPTIM345) == RCC_PERIPHCLK_LPTIM345)
 8004a20:	f8d7 3104 	ldr.w	r3, [r7, #260]	@ 0x104
 8004a24:	e9d3 2300 	ldrd	r2, r3, [r3]
 8004a28:	f002 0380 	and.w	r3, r2, #128	@ 0x80
 8004a2c:	f8c7 3090 	str.w	r3, [r7, #144]	@ 0x90
 8004a30:	2300      	movs	r3, #0
 8004a32:	f8c7 3094 	str.w	r3, [r7, #148]	@ 0x94
 8004a36:	e9d7 1224 	ldrd	r1, r2, [r7, #144]	@ 0x90
 8004a3a:	460b      	mov	r3, r1
 8004a3c:	4313      	orrs	r3, r2
 8004a3e:	d055      	beq.n	8004aec <HAL_RCCEx_PeriphCLKConfig+0xd74>
  {
    switch (PeriphClkInit->Lptim345ClockSelection)
 8004a40:	f8d7 3104 	ldr.w	r3, [r7, #260]	@ 0x104
 8004a44:	f8d3 309c 	ldr.w	r3, [r3, #156]	@ 0x9c
 8004a48:	f5b3 4f20 	cmp.w	r3, #40960	@ 0xa000
 8004a4c:	d033      	beq.n	8004ab6 <HAL_RCCEx_PeriphCLKConfig+0xd3e>
 8004a4e:	f5b3 4f20 	cmp.w	r3, #40960	@ 0xa000
 8004a52:	d82c      	bhi.n	8004aae <HAL_RCCEx_PeriphCLKConfig+0xd36>
 8004a54:	f5b3 4f00 	cmp.w	r3, #32768	@ 0x8000
 8004a58:	d02f      	beq.n	8004aba <HAL_RCCEx_PeriphCLKConfig+0xd42>
 8004a5a:	f5b3 4f00 	cmp.w	r3, #32768	@ 0x8000
 8004a5e:	d826      	bhi.n	8004aae <HAL_RCCEx_PeriphCLKConfig+0xd36>
 8004a60:	f5b3 4fc0 	cmp.w	r3, #24576	@ 0x6000
 8004a64:	d02b      	beq.n	8004abe <HAL_RCCEx_PeriphCLKConfig+0xd46>
 8004a66:	f5b3 4fc0 	cmp.w	r3, #24576	@ 0x6000
 8004a6a:	d820      	bhi.n	8004aae <HAL_RCCEx_PeriphCLKConfig+0xd36>
 8004a6c:	f5b3 4f80 	cmp.w	r3, #16384	@ 0x4000
 8004a70:	d012      	beq.n	8004a98 <HAL_RCCEx_PeriphCLKConfig+0xd20>
 8004a72:	f5b3 4f80 	cmp.w	r3, #16384	@ 0x4000
 8004a76:	d81a      	bhi.n	8004aae <HAL_RCCEx_PeriphCLKConfig+0xd36>
 8004a78:	2b00      	cmp	r3, #0
 8004a7a:	d022      	beq.n	8004ac2 <HAL_RCCEx_PeriphCLKConfig+0xd4a>
 8004a7c:	f5b3 5f00 	cmp.w	r3, #8192	@ 0x2000
 8004a80:	d115      	bne.n	8004aae <HAL_RCCEx_PeriphCLKConfig+0xd36>
      case RCC_LPTIM345CLKSOURCE_PCLK4:      /* SRD/D3 PCLK1 (PCLK4) as clock source for LPTIM3/4/5 */
        /* LPTIM3/4/5 clock source configuration done later after clock selection check */
        break;

      case RCC_LPTIM345CLKSOURCE_PLL2: /* PLL2 is used as clock source for LPTIM3/4/5 */
        ret = RCCEx_PLL2_Config(&(PeriphClkInit->PLL2), DIVIDER_P_UPDATE);
 8004a82:	f8d7 3104 	ldr.w	r3, [r7, #260]	@ 0x104
 8004a86:	3308      	adds	r3, #8
 8004a88:	2100      	movs	r1, #0
 8004a8a:	4618      	mov	r0, r3
 8004a8c:	f000 fb14 	bl	80050b8 <RCCEx_PLL2_Config>
 8004a90:	4603      	mov	r3, r0
 8004a92:	f887 3117 	strb.w	r3, [r7, #279]	@ 0x117

        /* LPTIM3/4/5 clock source configuration done later after clock selection check */
        break;
 8004a96:	e015      	b.n	8004ac4 <HAL_RCCEx_PeriphCLKConfig+0xd4c>

      case RCC_LPTIM345CLKSOURCE_PLL3:  /* PLL3 is used as clock source for LPTIM3/4/5 */
        ret = RCCEx_PLL3_Config(&(PeriphClkInit->PLL3), DIVIDER_R_UPDATE);
 8004a98:	f8d7 3104 	ldr.w	r3, [r7, #260]	@ 0x104
 8004a9c:	3328      	adds	r3, #40	@ 0x28
 8004a9e:	2102      	movs	r1, #2
 8004aa0:	4618      	mov	r0, r3
 8004aa2:	f000 fbbb 	bl	800521c <RCCEx_PLL3_Config>
 8004aa6:	4603      	mov	r3, r0
 8004aa8:	f887 3117 	strb.w	r3, [r7, #279]	@ 0x117

        /* LPTIM3/4/5 clock source configuration done later after clock selection check */
        break;
 8004aac:	e00a      	b.n	8004ac4 <HAL_RCCEx_PeriphCLKConfig+0xd4c>
        /* HSI, HSE, or CSI oscillator is used as source of LPTIM3/4/5 clock */
        /* LPTIM3/4/5 clock source configuration done later after clock selection check */
        break;

      default:
        ret = HAL_ERROR;
 8004aae:	2301      	movs	r3, #1
 8004ab0:	f887 3117 	strb.w	r3, [r7, #279]	@ 0x117
        break;
 8004ab4:	e006      	b.n	8004ac4 <HAL_RCCEx_PeriphCLKConfig+0xd4c>
        break;
 8004ab6:	bf00      	nop
 8004ab8:	e004      	b.n	8004ac4 <HAL_RCCEx_PeriphCLKConfig+0xd4c>
        break;
 8004aba:	bf00      	nop
 8004abc:	e002      	b.n	8004ac4 <HAL_RCCEx_PeriphCLKConfig+0xd4c>
        break;
 8004abe:	bf00      	nop
 8004ac0:	e000      	b.n	8004ac4 <HAL_RCCEx_PeriphCLKConfig+0xd4c>
        break;
 8004ac2:	bf00      	nop
    }

    if (ret == HAL_OK)
 8004ac4:	f897 3117 	ldrb.w	r3, [r7, #279]	@ 0x117
 8004ac8:	2b00      	cmp	r3, #0
 8004aca:	d10b      	bne.n	8004ae4 <HAL_RCCEx_PeriphCLKConfig+0xd6c>
    {
      /* Set the source of LPTIM3/4/5 clock */
      __HAL_RCC_LPTIM345_CONFIG(PeriphClkInit->Lptim345ClockSelection);
 8004acc:	4ba0      	ldr	r3, [pc, #640]	@ (8004d50 <HAL_RCCEx_PeriphCLKConfig+0xfd8>)
 8004ace:	6d9b      	ldr	r3, [r3, #88]	@ 0x58
 8004ad0:	f423 4160 	bic.w	r1, r3, #57344	@ 0xe000
 8004ad4:	f8d7 3104 	ldr.w	r3, [r7, #260]	@ 0x104
 8004ad8:	f8d3 309c 	ldr.w	r3, [r3, #156]	@ 0x9c
 8004adc:	4a9c      	ldr	r2, [pc, #624]	@ (8004d50 <HAL_RCCEx_PeriphCLKConfig+0xfd8>)
 8004ade:	430b      	orrs	r3, r1
 8004ae0:	6593      	str	r3, [r2, #88]	@ 0x58
 8004ae2:	e003      	b.n	8004aec <HAL_RCCEx_PeriphCLKConfig+0xd74>
    }
    else
    {
      /* set overall return value */
      status = ret;
 8004ae4:	f897 3117 	ldrb.w	r3, [r7, #279]	@ 0x117
 8004ae8:	f887 3116 	strb.w	r3, [r7, #278]	@ 0x116
    }
  }

  /*------------------------------ I2C1/2/3/5* Configuration ------------------------*/
#if defined(I2C5)
  if (((PeriphClkInit->PeriphClockSelection) & RCC_PERIPHCLK_I2C1235) == RCC_PERIPHCLK_I2C1235)
 8004aec:	f8d7 3104 	ldr.w	r3, [r7, #260]	@ 0x104
 8004af0:	e9d3 2300 	ldrd	r2, r3, [r3]
 8004af4:	f002 0308 	and.w	r3, r2, #8
 8004af8:	f8c7 3088 	str.w	r3, [r7, #136]	@ 0x88
 8004afc:	2300      	movs	r3, #0
 8004afe:	f8c7 308c 	str.w	r3, [r7, #140]	@ 0x8c
 8004b02:	e9d7 1222 	ldrd	r1, r2, [r7, #136]	@ 0x88
 8004b06:	460b      	mov	r3, r1
 8004b08:	4313      	orrs	r3, r2
 8004b0a:	d01e      	beq.n	8004b4a <HAL_RCCEx_PeriphCLKConfig+0xdd2>
  {
    /* Check the parameters */
    assert_param(IS_RCC_I2C1235CLKSOURCE(PeriphClkInit->I2c1235ClockSelection));

    if ((PeriphClkInit->I2c1235ClockSelection) == RCC_I2C1235CLKSOURCE_PLL3)
 8004b0c:	f8d7 3104 	ldr.w	r3, [r7, #260]	@ 0x104
 8004b10:	f8d3 3080 	ldr.w	r3, [r3, #128]	@ 0x80
 8004b14:	f5b3 5f80 	cmp.w	r3, #4096	@ 0x1000
 8004b18:	d10c      	bne.n	8004b34 <HAL_RCCEx_PeriphCLKConfig+0xdbc>
    {
      if (RCCEx_PLL3_Config(&(PeriphClkInit->PLL3), DIVIDER_R_UPDATE) != HAL_OK)
 8004b1a:	f8d7 3104 	ldr.w	r3, [r7, #260]	@ 0x104
 8004b1e:	3328      	adds	r3, #40	@ 0x28
 8004b20:	2102      	movs	r1, #2
 8004b22:	4618      	mov	r0, r3
 8004b24:	f000 fb7a 	bl	800521c <RCCEx_PLL3_Config>
 8004b28:	4603      	mov	r3, r0
 8004b2a:	2b00      	cmp	r3, #0
 8004b2c:	d002      	beq.n	8004b34 <HAL_RCCEx_PeriphCLKConfig+0xdbc>
      {
        status = HAL_ERROR;
 8004b2e:	2301      	movs	r3, #1
 8004b30:	f887 3116 	strb.w	r3, [r7, #278]	@ 0x116
      }
    }

    __HAL_RCC_I2C1235_CONFIG(PeriphClkInit->I2c1235ClockSelection);
 8004b34:	4b86      	ldr	r3, [pc, #536]	@ (8004d50 <HAL_RCCEx_PeriphCLKConfig+0xfd8>)
 8004b36:	6d5b      	ldr	r3, [r3, #84]	@ 0x54
 8004b38:	f423 5140 	bic.w	r1, r3, #12288	@ 0x3000
 8004b3c:	f8d7 3104 	ldr.w	r3, [r7, #260]	@ 0x104
 8004b40:	f8d3 3080 	ldr.w	r3, [r3, #128]	@ 0x80
 8004b44:	4a82      	ldr	r2, [pc, #520]	@ (8004d50 <HAL_RCCEx_PeriphCLKConfig+0xfd8>)
 8004b46:	430b      	orrs	r3, r1
 8004b48:	6553      	str	r3, [r2, #84]	@ 0x54

  }
#endif /* I2C5 */

  /*------------------------------ I2C4 Configuration ------------------------*/
  if (((PeriphClkInit->PeriphClockSelection) & RCC_PERIPHCLK_I2C4) == RCC_PERIPHCLK_I2C4)
 8004b4a:	f8d7 3104 	ldr.w	r3, [r7, #260]	@ 0x104
 8004b4e:	e9d3 2300 	ldrd	r2, r3, [r3]
 8004b52:	f002 0310 	and.w	r3, r2, #16
 8004b56:	f8c7 3080 	str.w	r3, [r7, #128]	@ 0x80
 8004b5a:	2300      	movs	r3, #0
 8004b5c:	f8c7 3084 	str.w	r3, [r7, #132]	@ 0x84
 8004b60:	e9d7 1220 	ldrd	r1, r2, [r7, #128]	@ 0x80
 8004b64:	460b      	mov	r3, r1
 8004b66:	4313      	orrs	r3, r2
 8004b68:	d01e      	beq.n	8004ba8 <HAL_RCCEx_PeriphCLKConfig+0xe30>
  {
    /* Check the parameters */
    assert_param(IS_RCC_I2C4CLKSOURCE(PeriphClkInit->I2c4ClockSelection));

    if ((PeriphClkInit->I2c4ClockSelection) == RCC_I2C4CLKSOURCE_PLL3)
 8004b6a:	f8d7 3104 	ldr.w	r3, [r7, #260]	@ 0x104
 8004b6e:	f8d3 3094 	ldr.w	r3, [r3, #148]	@ 0x94
 8004b72:	f5b3 7f80 	cmp.w	r3, #256	@ 0x100
 8004b76:	d10c      	bne.n	8004b92 <HAL_RCCEx_PeriphCLKConfig+0xe1a>
    {
      if (RCCEx_PLL3_Config(&(PeriphClkInit->PLL3), DIVIDER_R_UPDATE) != HAL_OK)
 8004b78:	f8d7 3104 	ldr.w	r3, [r7, #260]	@ 0x104
 8004b7c:	3328      	adds	r3, #40	@ 0x28
 8004b7e:	2102      	movs	r1, #2
 8004b80:	4618      	mov	r0, r3
 8004b82:	f000 fb4b 	bl	800521c <RCCEx_PLL3_Config>
 8004b86:	4603      	mov	r3, r0
 8004b88:	2b00      	cmp	r3, #0
 8004b8a:	d002      	beq.n	8004b92 <HAL_RCCEx_PeriphCLKConfig+0xe1a>
      {
        status = HAL_ERROR;
 8004b8c:	2301      	movs	r3, #1
 8004b8e:	f887 3116 	strb.w	r3, [r7, #278]	@ 0x116
      }
    }

    __HAL_RCC_I2C4_CONFIG(PeriphClkInit->I2c4ClockSelection);
 8004b92:	4b6f      	ldr	r3, [pc, #444]	@ (8004d50 <HAL_RCCEx_PeriphCLKConfig+0xfd8>)
 8004b94:	6d9b      	ldr	r3, [r3, #88]	@ 0x58
 8004b96:	f423 7140 	bic.w	r1, r3, #768	@ 0x300
 8004b9a:	f8d7 3104 	ldr.w	r3, [r7, #260]	@ 0x104
 8004b9e:	f8d3 3094 	ldr.w	r3, [r3, #148]	@ 0x94
 8004ba2:	4a6b      	ldr	r2, [pc, #428]	@ (8004d50 <HAL_RCCEx_PeriphCLKConfig+0xfd8>)
 8004ba4:	430b      	orrs	r3, r1
 8004ba6:	6593      	str	r3, [r2, #88]	@ 0x58

  }

  /*---------------------------- ADC configuration -------------------------------*/
  if (((PeriphClkInit->PeriphClockSelection) & RCC_PERIPHCLK_ADC) == RCC_PERIPHCLK_ADC)
 8004ba8:	f8d7 3104 	ldr.w	r3, [r7, #260]	@ 0x104
 8004bac:	e9d3 2300 	ldrd	r2, r3, [r3]
 8004bb0:	f402 2300 	and.w	r3, r2, #524288	@ 0x80000
 8004bb4:	67bb      	str	r3, [r7, #120]	@ 0x78
 8004bb6:	2300      	movs	r3, #0
 8004bb8:	67fb      	str	r3, [r7, #124]	@ 0x7c
 8004bba:	e9d7 121e 	ldrd	r1, r2, [r7, #120]	@ 0x78
 8004bbe:	460b      	mov	r3, r1
 8004bc0:	4313      	orrs	r3, r2
 8004bc2:	d03e      	beq.n	8004c42 <HAL_RCCEx_PeriphCLKConfig+0xeca>
  {
    switch (PeriphClkInit->AdcClockSelection)
 8004bc4:	f8d7 3104 	ldr.w	r3, [r7, #260]	@ 0x104
 8004bc8:	f8d3 30a0 	ldr.w	r3, [r3, #160]	@ 0xa0
 8004bcc:	f5b3 3f00 	cmp.w	r3, #131072	@ 0x20000
 8004bd0:	d022      	beq.n	8004c18 <HAL_RCCEx_PeriphCLKConfig+0xea0>
 8004bd2:	f5b3 3f00 	cmp.w	r3, #131072	@ 0x20000
 8004bd6:	d81b      	bhi.n	8004c10 <HAL_RCCEx_PeriphCLKConfig+0xe98>
 8004bd8:	2b00      	cmp	r3, #0
 8004bda:	d003      	beq.n	8004be4 <HAL_RCCEx_PeriphCLKConfig+0xe6c>
 8004bdc:	f5b3 3f80 	cmp.w	r3, #65536	@ 0x10000
 8004be0:	d00b      	beq.n	8004bfa <HAL_RCCEx_PeriphCLKConfig+0xe82>
 8004be2:	e015      	b.n	8004c10 <HAL_RCCEx_PeriphCLKConfig+0xe98>
    {

      case RCC_ADCCLKSOURCE_PLL2: /* PLL2 is used as clock source for ADC*/

        ret = RCCEx_PLL2_Config(&(PeriphClkInit->PLL2), DIVIDER_P_UPDATE);
 8004be4:	f8d7 3104 	ldr.w	r3, [r7, #260]	@ 0x104
 8004be8:	3308      	adds	r3, #8
 8004bea:	2100      	movs	r1, #0
 8004bec:	4618      	mov	r0, r3
 8004bee:	f000 fa63 	bl	80050b8 <RCCEx_PLL2_Config>
 8004bf2:	4603      	mov	r3, r0
 8004bf4:	f887 3117 	strb.w	r3, [r7, #279]	@ 0x117

        /* ADC clock source configuration done later after clock selection check */
        break;
 8004bf8:	e00f      	b.n	8004c1a <HAL_RCCEx_PeriphCLKConfig+0xea2>

      case RCC_ADCCLKSOURCE_PLL3:  /* PLL3 is used as clock source for ADC*/
        ret = RCCEx_PLL3_Config(&(PeriphClkInit->PLL3), DIVIDER_R_UPDATE);
 8004bfa:	f8d7 3104 	ldr.w	r3, [r7, #260]	@ 0x104
 8004bfe:	3328      	adds	r3, #40	@ 0x28
 8004c00:	2102      	movs	r1, #2
 8004c02:	4618      	mov	r0, r3
 8004c04:	f000 fb0a 	bl	800521c <RCCEx_PLL3_Config>
 8004c08:	4603      	mov	r3, r0
 8004c0a:	f887 3117 	strb.w	r3, [r7, #279]	@ 0x117

        /* ADC clock source configuration done later after clock selection check */
        break;
 8004c0e:	e004      	b.n	8004c1a <HAL_RCCEx_PeriphCLKConfig+0xea2>
        /* HSI, HSE, or CSI oscillator is used as source of ADC clock */
        /* ADC clock source configuration done later after clock selection check */
        break;

      default:
        ret = HAL_ERROR;
 8004c10:	2301      	movs	r3, #1
 8004c12:	f887 3117 	strb.w	r3, [r7, #279]	@ 0x117
        break;
 8004c16:	e000      	b.n	8004c1a <HAL_RCCEx_PeriphCLKConfig+0xea2>
        break;
 8004c18:	bf00      	nop
    }

    if (ret == HAL_OK)
 8004c1a:	f897 3117 	ldrb.w	r3, [r7, #279]	@ 0x117
 8004c1e:	2b00      	cmp	r3, #0
 8004c20:	d10b      	bne.n	8004c3a <HAL_RCCEx_PeriphCLKConfig+0xec2>
    {
      /* Set the source of ADC clock*/
      __HAL_RCC_ADC_CONFIG(PeriphClkInit->AdcClockSelection);
 8004c22:	4b4b      	ldr	r3, [pc, #300]	@ (8004d50 <HAL_RCCEx_PeriphCLKConfig+0xfd8>)
 8004c24:	6d9b      	ldr	r3, [r3, #88]	@ 0x58
 8004c26:	f423 3140 	bic.w	r1, r3, #196608	@ 0x30000
 8004c2a:	f8d7 3104 	ldr.w	r3, [r7, #260]	@ 0x104
 8004c2e:	f8d3 30a0 	ldr.w	r3, [r3, #160]	@ 0xa0
 8004c32:	4a47      	ldr	r2, [pc, #284]	@ (8004d50 <HAL_RCCEx_PeriphCLKConfig+0xfd8>)
 8004c34:	430b      	orrs	r3, r1
 8004c36:	6593      	str	r3, [r2, #88]	@ 0x58
 8004c38:	e003      	b.n	8004c42 <HAL_RCCEx_PeriphCLKConfig+0xeca>
    }
    else
    {
      /* set overall return value */
      status = ret;
 8004c3a:	f897 3117 	ldrb.w	r3, [r7, #279]	@ 0x117
 8004c3e:	f887 3116 	strb.w	r3, [r7, #278]	@ 0x116
    }
  }

  /*------------------------------ USB Configuration -------------------------*/
  if (((PeriphClkInit->PeriphClockSelection) & RCC_PERIPHCLK_USB) == RCC_PERIPHCLK_USB)
 8004c42:	f8d7 3104 	ldr.w	r3, [r7, #260]	@ 0x104
 8004c46:	e9d3 2300 	ldrd	r2, r3, [r3]
 8004c4a:	f402 2380 	and.w	r3, r2, #262144	@ 0x40000
 8004c4e:	673b      	str	r3, [r7, #112]	@ 0x70
 8004c50:	2300      	movs	r3, #0
 8004c52:	677b      	str	r3, [r7, #116]	@ 0x74
 8004c54:	e9d7 121c 	ldrd	r1, r2, [r7, #112]	@ 0x70
 8004c58:	460b      	mov	r3, r1
 8004c5a:	4313      	orrs	r3, r2
 8004c5c:	d03b      	beq.n	8004cd6 <HAL_RCCEx_PeriphCLKConfig+0xf5e>
  {

    switch (PeriphClkInit->UsbClockSelection)
 8004c5e:	f8d7 3104 	ldr.w	r3, [r7, #260]	@ 0x104
 8004c62:	f8d3 3084 	ldr.w	r3, [r3, #132]	@ 0x84
 8004c66:	f5b3 1f40 	cmp.w	r3, #3145728	@ 0x300000
 8004c6a:	d01f      	beq.n	8004cac <HAL_RCCEx_PeriphCLKConfig+0xf34>
 8004c6c:	f5b3 1f40 	cmp.w	r3, #3145728	@ 0x300000
 8004c70:	d818      	bhi.n	8004ca4 <HAL_RCCEx_PeriphCLKConfig+0xf2c>
 8004c72:	f5b3 1f80 	cmp.w	r3, #1048576	@ 0x100000
 8004c76:	d003      	beq.n	8004c80 <HAL_RCCEx_PeriphCLKConfig+0xf08>
 8004c78:	f5b3 1f00 	cmp.w	r3, #2097152	@ 0x200000
 8004c7c:	d007      	beq.n	8004c8e <HAL_RCCEx_PeriphCLKConfig+0xf16>
 8004c7e:	e011      	b.n	8004ca4 <HAL_RCCEx_PeriphCLKConfig+0xf2c>
    {
      case RCC_USBCLKSOURCE_PLL:      /* PLL is used as clock source for USB*/
        /* Enable USB Clock output generated form System USB . */
        __HAL_RCC_PLLCLKOUT_ENABLE(RCC_PLL1_DIVQ);
 8004c80:	4b33      	ldr	r3, [pc, #204]	@ (8004d50 <HAL_RCCEx_PeriphCLKConfig+0xfd8>)
 8004c82:	6adb      	ldr	r3, [r3, #44]	@ 0x2c
 8004c84:	4a32      	ldr	r2, [pc, #200]	@ (8004d50 <HAL_RCCEx_PeriphCLKConfig+0xfd8>)
 8004c86:	f443 3300 	orr.w	r3, r3, #131072	@ 0x20000
 8004c8a:	62d3      	str	r3, [r2, #44]	@ 0x2c

        /* USB clock source configuration done later after clock selection check */
        break;
 8004c8c:	e00f      	b.n	8004cae <HAL_RCCEx_PeriphCLKConfig+0xf36>

      case RCC_USBCLKSOURCE_PLL3: /* PLL3 is used as clock source for USB*/

        ret = RCCEx_PLL3_Config(&(PeriphClkInit->PLL3), DIVIDER_Q_UPDATE);
 8004c8e:	f8d7 3104 	ldr.w	r3, [r7, #260]	@ 0x104
 8004c92:	3328      	adds	r3, #40	@ 0x28
 8004c94:	2101      	movs	r1, #1
 8004c96:	4618      	mov	r0, r3
 8004c98:	f000 fac0 	bl	800521c <RCCEx_PLL3_Config>
 8004c9c:	4603      	mov	r3, r0
 8004c9e:	f887 3117 	strb.w	r3, [r7, #279]	@ 0x117

        /* USB clock source configuration done later after clock selection check */
        break;
 8004ca2:	e004      	b.n	8004cae <HAL_RCCEx_PeriphCLKConfig+0xf36>
        /* HSI48 oscillator is used as source of USB clock */
        /* USB clock source configuration done later after clock selection check */
        break;

      default:
        ret = HAL_ERROR;
 8004ca4:	2301      	movs	r3, #1
 8004ca6:	f887 3117 	strb.w	r3, [r7, #279]	@ 0x117
        break;
 8004caa:	e000      	b.n	8004cae <HAL_RCCEx_PeriphCLKConfig+0xf36>
        break;
 8004cac:	bf00      	nop
    }

    if (ret == HAL_OK)
 8004cae:	f897 3117 	ldrb.w	r3, [r7, #279]	@ 0x117
 8004cb2:	2b00      	cmp	r3, #0
 8004cb4:	d10b      	bne.n	8004cce <HAL_RCCEx_PeriphCLKConfig+0xf56>
    {
      /* Set the source of USB clock*/
      __HAL_RCC_USB_CONFIG(PeriphClkInit->UsbClockSelection);
 8004cb6:	4b26      	ldr	r3, [pc, #152]	@ (8004d50 <HAL_RCCEx_PeriphCLKConfig+0xfd8>)
 8004cb8:	6d5b      	ldr	r3, [r3, #84]	@ 0x54
 8004cba:	f423 1140 	bic.w	r1, r3, #3145728	@ 0x300000
 8004cbe:	f8d7 3104 	ldr.w	r3, [r7, #260]	@ 0x104
 8004cc2:	f8d3 3084 	ldr.w	r3, [r3, #132]	@ 0x84
 8004cc6:	4a22      	ldr	r2, [pc, #136]	@ (8004d50 <HAL_RCCEx_PeriphCLKConfig+0xfd8>)
 8004cc8:	430b      	orrs	r3, r1
 8004cca:	6553      	str	r3, [r2, #84]	@ 0x54
 8004ccc:	e003      	b.n	8004cd6 <HAL_RCCEx_PeriphCLKConfig+0xf5e>
    }
    else
    {
      /* set overall return value */
      status = ret;
 8004cce:	f897 3117 	ldrb.w	r3, [r7, #279]	@ 0x117
 8004cd2:	f887 3116 	strb.w	r3, [r7, #278]	@ 0x116
    }

  }

  /*------------------------------------- SDMMC Configuration ------------------------------------*/
  if (((PeriphClkInit->PeriphClockSelection) & RCC_PERIPHCLK_SDMMC) == RCC_PERIPHCLK_SDMMC)
 8004cd6:	f8d7 3104 	ldr.w	r3, [r7, #260]	@ 0x104
 8004cda:	e9d3 2300 	ldrd	r2, r3, [r3]
 8004cde:	f402 3380 	and.w	r3, r2, #65536	@ 0x10000
 8004ce2:	66bb      	str	r3, [r7, #104]	@ 0x68
 8004ce4:	2300      	movs	r3, #0
 8004ce6:	66fb      	str	r3, [r7, #108]	@ 0x6c
 8004ce8:	e9d7 121a 	ldrd	r1, r2, [r7, #104]	@ 0x68
 8004cec:	460b      	mov	r3, r1
 8004cee:	4313      	orrs	r3, r2
 8004cf0:	d034      	beq.n	8004d5c <HAL_RCCEx_PeriphCLKConfig+0xfe4>
  {
    /* Check the parameters */
    assert_param(IS_RCC_SDMMC(PeriphClkInit->SdmmcClockSelection));

    switch (PeriphClkInit->SdmmcClockSelection)
 8004cf2:	f8d7 3104 	ldr.w	r3, [r7, #260]	@ 0x104
 8004cf6:	6d1b      	ldr	r3, [r3, #80]	@ 0x50
 8004cf8:	2b00      	cmp	r3, #0
 8004cfa:	d003      	beq.n	8004d04 <HAL_RCCEx_PeriphCLKConfig+0xf8c>
 8004cfc:	f5b3 3f80 	cmp.w	r3, #65536	@ 0x10000
 8004d00:	d007      	beq.n	8004d12 <HAL_RCCEx_PeriphCLKConfig+0xf9a>
 8004d02:	e011      	b.n	8004d28 <HAL_RCCEx_PeriphCLKConfig+0xfb0>
    {
      case RCC_SDMMCCLKSOURCE_PLL:      /* PLL is used as clock source for SDMMC*/
        /* Enable SDMMC Clock output generated form System PLL . */
        __HAL_RCC_PLLCLKOUT_ENABLE(RCC_PLL1_DIVQ);
 8004d04:	4b12      	ldr	r3, [pc, #72]	@ (8004d50 <HAL_RCCEx_PeriphCLKConfig+0xfd8>)
 8004d06:	6adb      	ldr	r3, [r3, #44]	@ 0x2c
 8004d08:	4a11      	ldr	r2, [pc, #68]	@ (8004d50 <HAL_RCCEx_PeriphCLKConfig+0xfd8>)
 8004d0a:	f443 3300 	orr.w	r3, r3, #131072	@ 0x20000
 8004d0e:	62d3      	str	r3, [r2, #44]	@ 0x2c

        /* SDMMC clock source configuration done later after clock selection check */
        break;
 8004d10:	e00e      	b.n	8004d30 <HAL_RCCEx_PeriphCLKConfig+0xfb8>

      case RCC_SDMMCCLKSOURCE_PLL2: /* PLL2 is used as clock source for SDMMC*/

        ret = RCCEx_PLL2_Config(&(PeriphClkInit->PLL2), DIVIDER_R_UPDATE);
 8004d12:	f8d7 3104 	ldr.w	r3, [r7, #260]	@ 0x104
 8004d16:	3308      	adds	r3, #8
 8004d18:	2102      	movs	r1, #2
 8004d1a:	4618      	mov	r0, r3
 8004d1c:	f000 f9cc 	bl	80050b8 <RCCEx_PLL2_Config>
 8004d20:	4603      	mov	r3, r0
 8004d22:	f887 3117 	strb.w	r3, [r7, #279]	@ 0x117

        /* SDMMC clock source configuration done later after clock selection check */
        break;
 8004d26:	e003      	b.n	8004d30 <HAL_RCCEx_PeriphCLKConfig+0xfb8>

      default:
        ret = HAL_ERROR;
 8004d28:	2301      	movs	r3, #1
 8004d2a:	f887 3117 	strb.w	r3, [r7, #279]	@ 0x117
        break;
 8004d2e:	bf00      	nop
    }

    if (ret == HAL_OK)
 8004d30:	f897 3117 	ldrb.w	r3, [r7, #279]	@ 0x117
 8004d34:	2b00      	cmp	r3, #0
 8004d36:	d10d      	bne.n	8004d54 <HAL_RCCEx_PeriphCLKConfig+0xfdc>
    {
      /* Set the source of SDMMC clock*/
      __HAL_RCC_SDMMC_CONFIG(PeriphClkInit->SdmmcClockSelection);
 8004d38:	4b05      	ldr	r3, [pc, #20]	@ (8004d50 <HAL_RCCEx_PeriphCLKConfig+0xfd8>)
 8004d3a:	6cdb      	ldr	r3, [r3, #76]	@ 0x4c
 8004d3c:	f423 3180 	bic.w	r1, r3, #65536	@ 0x10000
 8004d40:	f8d7 3104 	ldr.w	r3, [r7, #260]	@ 0x104
 8004d44:	6d1b      	ldr	r3, [r3, #80]	@ 0x50
 8004d46:	4a02      	ldr	r2, [pc, #8]	@ (8004d50 <HAL_RCCEx_PeriphCLKConfig+0xfd8>)
 8004d48:	430b      	orrs	r3, r1
 8004d4a:	64d3      	str	r3, [r2, #76]	@ 0x4c
 8004d4c:	e006      	b.n	8004d5c <HAL_RCCEx_PeriphCLKConfig+0xfe4>
 8004d4e:	bf00      	nop
 8004d50:	58024400 	.word	0x58024400
    }
    else
    {
      /* set overall return value */
      status = ret;
 8004d54:	f897 3117 	ldrb.w	r3, [r7, #279]	@ 0x117
 8004d58:	f887 3116 	strb.w	r3, [r7, #278]	@ 0x116
    }
  }

#if defined(LTDC)
  /*-------------------------------------- LTDC Configuration -----------------------------------*/
  if (((PeriphClkInit->PeriphClockSelection) & RCC_PERIPHCLK_LTDC) == RCC_PERIPHCLK_LTDC)
 8004d5c:	f8d7 3104 	ldr.w	r3, [r7, #260]	@ 0x104
 8004d60:	e9d3 2300 	ldrd	r2, r3, [r3]
 8004d64:	f002 5300 	and.w	r3, r2, #536870912	@ 0x20000000
 8004d68:	663b      	str	r3, [r7, #96]	@ 0x60
 8004d6a:	2300      	movs	r3, #0
 8004d6c:	667b      	str	r3, [r7, #100]	@ 0x64
 8004d6e:	e9d7 1218 	ldrd	r1, r2, [r7, #96]	@ 0x60
 8004d72:	460b      	mov	r3, r1
 8004d74:	4313      	orrs	r3, r2
 8004d76:	d00c      	beq.n	8004d92 <HAL_RCCEx_PeriphCLKConfig+0x101a>
  {
    if (RCCEx_PLL3_Config(&(PeriphClkInit->PLL3), DIVIDER_R_UPDATE) != HAL_OK)
 8004d78:	f8d7 3104 	ldr.w	r3, [r7, #260]	@ 0x104
 8004d7c:	3328      	adds	r3, #40	@ 0x28
 8004d7e:	2102      	movs	r1, #2
 8004d80:	4618      	mov	r0, r3
 8004d82:	f000 fa4b 	bl	800521c <RCCEx_PLL3_Config>
 8004d86:	4603      	mov	r3, r0
 8004d88:	2b00      	cmp	r3, #0
 8004d8a:	d002      	beq.n	8004d92 <HAL_RCCEx_PeriphCLKConfig+0x101a>
    {
      status = HAL_ERROR;
 8004d8c:	2301      	movs	r3, #1
 8004d8e:	f887 3116 	strb.w	r3, [r7, #278]	@ 0x116
    }
  }
#endif /* LTDC */

  /*------------------------------ RNG Configuration -------------------------*/
  if (((PeriphClkInit->PeriphClockSelection) & RCC_PERIPHCLK_RNG) == RCC_PERIPHCLK_RNG)
 8004d92:	f8d7 3104 	ldr.w	r3, [r7, #260]	@ 0x104
 8004d96:	e9d3 2300 	ldrd	r2, r3, [r3]
 8004d9a:	f402 3300 	and.w	r3, r2, #131072	@ 0x20000
 8004d9e:	65bb      	str	r3, [r7, #88]	@ 0x58
 8004da0:	2300      	movs	r3, #0
 8004da2:	65fb      	str	r3, [r7, #92]	@ 0x5c
 8004da4:	e9d7 1216 	ldrd	r1, r2, [r7, #88]	@ 0x58
 8004da8:	460b      	mov	r3, r1
 8004daa:	4313      	orrs	r3, r2
 8004dac:	d036      	beq.n	8004e1c <HAL_RCCEx_PeriphCLKConfig+0x10a4>
  {

    switch (PeriphClkInit->RngClockSelection)
 8004dae:	f8d7 3104 	ldr.w	r3, [r7, #260]	@ 0x104
 8004db2:	6fdb      	ldr	r3, [r3, #124]	@ 0x7c
 8004db4:	f5b3 7f40 	cmp.w	r3, #768	@ 0x300
 8004db8:	d018      	beq.n	8004dec <HAL_RCCEx_PeriphCLKConfig+0x1074>
 8004dba:	f5b3 7f40 	cmp.w	r3, #768	@ 0x300
 8004dbe:	d811      	bhi.n	8004de4 <HAL_RCCEx_PeriphCLKConfig+0x106c>
 8004dc0:	f5b3 7f00 	cmp.w	r3, #512	@ 0x200
 8004dc4:	d014      	beq.n	8004df0 <HAL_RCCEx_PeriphCLKConfig+0x1078>
 8004dc6:	f5b3 7f00 	cmp.w	r3, #512	@ 0x200
 8004dca:	d80b      	bhi.n	8004de4 <HAL_RCCEx_PeriphCLKConfig+0x106c>
 8004dcc:	2b00      	cmp	r3, #0
 8004dce:	d011      	beq.n	8004df4 <HAL_RCCEx_PeriphCLKConfig+0x107c>
 8004dd0:	f5b3 7f80 	cmp.w	r3, #256	@ 0x100
 8004dd4:	d106      	bne.n	8004de4 <HAL_RCCEx_PeriphCLKConfig+0x106c>
    {
      case RCC_RNGCLKSOURCE_PLL:     /* PLL is used as clock source for RNG*/
        /* Enable RNG Clock output generated form System RNG . */
        __HAL_RCC_PLLCLKOUT_ENABLE(RCC_PLL1_DIVQ);
 8004dd6:	4bb7      	ldr	r3, [pc, #732]	@ (80050b4 <HAL_RCCEx_PeriphCLKConfig+0x133c>)
 8004dd8:	6adb      	ldr	r3, [r3, #44]	@ 0x2c
 8004dda:	4ab6      	ldr	r2, [pc, #728]	@ (80050b4 <HAL_RCCEx_PeriphCLKConfig+0x133c>)
 8004ddc:	f443 3300 	orr.w	r3, r3, #131072	@ 0x20000
 8004de0:	62d3      	str	r3, [r2, #44]	@ 0x2c

        /* RNG clock source configuration done later after clock selection check */
        break;
 8004de2:	e008      	b.n	8004df6 <HAL_RCCEx_PeriphCLKConfig+0x107e>
        /* HSI48 oscillator is used as source of RNG clock */
        /* RNG clock source configuration done later after clock selection check */
        break;

      default:
        ret = HAL_ERROR;
 8004de4:	2301      	movs	r3, #1
 8004de6:	f887 3117 	strb.w	r3, [r7, #279]	@ 0x117
        break;
 8004dea:	e004      	b.n	8004df6 <HAL_RCCEx_PeriphCLKConfig+0x107e>
        break;
 8004dec:	bf00      	nop
 8004dee:	e002      	b.n	8004df6 <HAL_RCCEx_PeriphCLKConfig+0x107e>
        break;
 8004df0:	bf00      	nop
 8004df2:	e000      	b.n	8004df6 <HAL_RCCEx_PeriphCLKConfig+0x107e>
        break;
 8004df4:	bf00      	nop
    }

    if (ret == HAL_OK)
 8004df6:	f897 3117 	ldrb.w	r3, [r7, #279]	@ 0x117
 8004dfa:	2b00      	cmp	r3, #0
 8004dfc:	d10a      	bne.n	8004e14 <HAL_RCCEx_PeriphCLKConfig+0x109c>
    {
      /* Set the source of RNG clock*/
      __HAL_RCC_RNG_CONFIG(PeriphClkInit->RngClockSelection);
 8004dfe:	4bad      	ldr	r3, [pc, #692]	@ (80050b4 <HAL_RCCEx_PeriphCLKConfig+0x133c>)
 8004e00:	6d5b      	ldr	r3, [r3, #84]	@ 0x54
 8004e02:	f423 7140 	bic.w	r1, r3, #768	@ 0x300
 8004e06:	f8d7 3104 	ldr.w	r3, [r7, #260]	@ 0x104
 8004e0a:	6fdb      	ldr	r3, [r3, #124]	@ 0x7c
 8004e0c:	4aa9      	ldr	r2, [pc, #676]	@ (80050b4 <HAL_RCCEx_PeriphCLKConfig+0x133c>)
 8004e0e:	430b      	orrs	r3, r1
 8004e10:	6553      	str	r3, [r2, #84]	@ 0x54
 8004e12:	e003      	b.n	8004e1c <HAL_RCCEx_PeriphCLKConfig+0x10a4>
    }
    else
    {
      /* set overall return value */
      status = ret;
 8004e14:	f897 3117 	ldrb.w	r3, [r7, #279]	@ 0x117
 8004e18:	f887 3116 	strb.w	r3, [r7, #278]	@ 0x116
    }

  }

  /*------------------------------ SWPMI1 Configuration ------------------------*/
  if (((PeriphClkInit->PeriphClockSelection) & RCC_PERIPHCLK_SWPMI1) == RCC_PERIPHCLK_SWPMI1)
 8004e1c:	f8d7 3104 	ldr.w	r3, [r7, #260]	@ 0x104
 8004e20:	e9d3 2300 	ldrd	r2, r3, [r3]
 8004e24:	f402 1380 	and.w	r3, r2, #1048576	@ 0x100000
 8004e28:	653b      	str	r3, [r7, #80]	@ 0x50
 8004e2a:	2300      	movs	r3, #0
 8004e2c:	657b      	str	r3, [r7, #84]	@ 0x54
 8004e2e:	e9d7 1214 	ldrd	r1, r2, [r7, #80]	@ 0x50
 8004e32:	460b      	mov	r3, r1
 8004e34:	4313      	orrs	r3, r2
 8004e36:	d009      	beq.n	8004e4c <HAL_RCCEx_PeriphCLKConfig+0x10d4>
  {
    /* Check the parameters */
    assert_param(IS_RCC_SWPMI1CLKSOURCE(PeriphClkInit->Swpmi1ClockSelection));

    /* Configure the SWPMI1 interface clock source */
    __HAL_RCC_SWPMI1_CONFIG(PeriphClkInit->Swpmi1ClockSelection);
 8004e38:	4b9e      	ldr	r3, [pc, #632]	@ (80050b4 <HAL_RCCEx_PeriphCLKConfig+0x133c>)
 8004e3a:	6d1b      	ldr	r3, [r3, #80]	@ 0x50
 8004e3c:	f023 4100 	bic.w	r1, r3, #2147483648	@ 0x80000000
 8004e40:	f8d7 3104 	ldr.w	r3, [r7, #260]	@ 0x104
 8004e44:	6f1b      	ldr	r3, [r3, #112]	@ 0x70
 8004e46:	4a9b      	ldr	r2, [pc, #620]	@ (80050b4 <HAL_RCCEx_PeriphCLKConfig+0x133c>)
 8004e48:	430b      	orrs	r3, r1
 8004e4a:	6513      	str	r3, [r2, #80]	@ 0x50
    /* Configure the HRTIM1 clock source */
    __HAL_RCC_HRTIM1_CONFIG(PeriphClkInit->Hrtim1ClockSelection);
  }
#endif  /*HRTIM1*/
  /*------------------------------ DFSDM1 Configuration ------------------------*/
  if (((PeriphClkInit->PeriphClockSelection) & RCC_PERIPHCLK_DFSDM1) == RCC_PERIPHCLK_DFSDM1)
 8004e4c:	f8d7 3104 	ldr.w	r3, [r7, #260]	@ 0x104
 8004e50:	e9d3 2300 	ldrd	r2, r3, [r3]
 8004e54:	f402 1300 	and.w	r3, r2, #2097152	@ 0x200000
 8004e58:	64bb      	str	r3, [r7, #72]	@ 0x48
 8004e5a:	2300      	movs	r3, #0
 8004e5c:	64fb      	str	r3, [r7, #76]	@ 0x4c
 8004e5e:	e9d7 1212 	ldrd	r1, r2, [r7, #72]	@ 0x48
 8004e62:	460b      	mov	r3, r1
 8004e64:	4313      	orrs	r3, r2
 8004e66:	d009      	beq.n	8004e7c <HAL_RCCEx_PeriphCLKConfig+0x1104>
  {
    /* Check the parameters */
    assert_param(IS_RCC_DFSDM1CLKSOURCE(PeriphClkInit->Dfsdm1ClockSelection));

    /* Configure the DFSDM1 interface clock source */
    __HAL_RCC_DFSDM1_CONFIG(PeriphClkInit->Dfsdm1ClockSelection);
 8004e68:	4b92      	ldr	r3, [pc, #584]	@ (80050b4 <HAL_RCCEx_PeriphCLKConfig+0x133c>)
 8004e6a:	6d1b      	ldr	r3, [r3, #80]	@ 0x50
 8004e6c:	f023 7180 	bic.w	r1, r3, #16777216	@ 0x1000000
 8004e70:	f8d7 3104 	ldr.w	r3, [r7, #260]	@ 0x104
 8004e74:	6e9b      	ldr	r3, [r3, #104]	@ 0x68
 8004e76:	4a8f      	ldr	r2, [pc, #572]	@ (80050b4 <HAL_RCCEx_PeriphCLKConfig+0x133c>)
 8004e78:	430b      	orrs	r3, r1
 8004e7a:	6513      	str	r3, [r2, #80]	@ 0x50
    __HAL_RCC_DFSDM2_CONFIG(PeriphClkInit->Dfsdm2ClockSelection);
  }
#endif  /* DFSDM2 */

  /*------------------------------------ TIM configuration --------------------------------------*/
  if (((PeriphClkInit->PeriphClockSelection) & RCC_PERIPHCLK_TIM) == RCC_PERIPHCLK_TIM)
 8004e7c:	f8d7 3104 	ldr.w	r3, [r7, #260]	@ 0x104
 8004e80:	e9d3 2300 	ldrd	r2, r3, [r3]
 8004e84:	f002 4380 	and.w	r3, r2, #1073741824	@ 0x40000000
 8004e88:	643b      	str	r3, [r7, #64]	@ 0x40
 8004e8a:	2300      	movs	r3, #0
 8004e8c:	647b      	str	r3, [r7, #68]	@ 0x44
 8004e8e:	e9d7 1210 	ldrd	r1, r2, [r7, #64]	@ 0x40
 8004e92:	460b      	mov	r3, r1
 8004e94:	4313      	orrs	r3, r2
 8004e96:	d00e      	beq.n	8004eb6 <HAL_RCCEx_PeriphCLKConfig+0x113e>
  {
    /* Check the parameters */
    assert_param(IS_RCC_TIMPRES(PeriphClkInit->TIMPresSelection));

    /* Configure Timer Prescaler */
    __HAL_RCC_TIMCLKPRESCALER(PeriphClkInit->TIMPresSelection);
 8004e98:	4b86      	ldr	r3, [pc, #536]	@ (80050b4 <HAL_RCCEx_PeriphCLKConfig+0x133c>)
 8004e9a:	691b      	ldr	r3, [r3, #16]
 8004e9c:	4a85      	ldr	r2, [pc, #532]	@ (80050b4 <HAL_RCCEx_PeriphCLKConfig+0x133c>)
 8004e9e:	f423 4300 	bic.w	r3, r3, #32768	@ 0x8000
 8004ea2:	6113      	str	r3, [r2, #16]
 8004ea4:	4b83      	ldr	r3, [pc, #524]	@ (80050b4 <HAL_RCCEx_PeriphCLKConfig+0x133c>)
 8004ea6:	6919      	ldr	r1, [r3, #16]
 8004ea8:	f8d7 3104 	ldr.w	r3, [r7, #260]	@ 0x104
 8004eac:	f8d3 30b4 	ldr.w	r3, [r3, #180]	@ 0xb4
 8004eb0:	4a80      	ldr	r2, [pc, #512]	@ (80050b4 <HAL_RCCEx_PeriphCLKConfig+0x133c>)
 8004eb2:	430b      	orrs	r3, r1
 8004eb4:	6113      	str	r3, [r2, #16]
  }

  /*------------------------------------ CKPER configuration --------------------------------------*/
  if (((PeriphClkInit->PeriphClockSelection) & RCC_PERIPHCLK_CKPER) == RCC_PERIPHCLK_CKPER)
 8004eb6:	f8d7 3104 	ldr.w	r3, [r7, #260]	@ 0x104
 8004eba:	e9d3 2300 	ldrd	r2, r3, [r3]
 8004ebe:	f002 4300 	and.w	r3, r2, #2147483648	@ 0x80000000
 8004ec2:	63bb      	str	r3, [r7, #56]	@ 0x38
 8004ec4:	2300      	movs	r3, #0
 8004ec6:	63fb      	str	r3, [r7, #60]	@ 0x3c
 8004ec8:	e9d7 120e 	ldrd	r1, r2, [r7, #56]	@ 0x38
 8004ecc:	460b      	mov	r3, r1
 8004ece:	4313      	orrs	r3, r2
 8004ed0:	d009      	beq.n	8004ee6 <HAL_RCCEx_PeriphCLKConfig+0x116e>
  {
    /* Check the parameters */
    assert_param(IS_RCC_CLKPSOURCE(PeriphClkInit->CkperClockSelection));

    /* Configure the CKPER clock source */
    __HAL_RCC_CLKP_CONFIG(PeriphClkInit->CkperClockSelection);
 8004ed2:	4b78      	ldr	r3, [pc, #480]	@ (80050b4 <HAL_RCCEx_PeriphCLKConfig+0x133c>)
 8004ed4:	6cdb      	ldr	r3, [r3, #76]	@ 0x4c
 8004ed6:	f023 5140 	bic.w	r1, r3, #805306368	@ 0x30000000
 8004eda:	f8d7 3104 	ldr.w	r3, [r7, #260]	@ 0x104
 8004ede:	6d5b      	ldr	r3, [r3, #84]	@ 0x54
 8004ee0:	4a74      	ldr	r2, [pc, #464]	@ (80050b4 <HAL_RCCEx_PeriphCLKConfig+0x133c>)
 8004ee2:	430b      	orrs	r3, r1
 8004ee4:	64d3      	str	r3, [r2, #76]	@ 0x4c
  }

  /*------------------------------ CEC Configuration ------------------------*/
  if (((PeriphClkInit->PeriphClockSelection) & RCC_PERIPHCLK_CEC) == RCC_PERIPHCLK_CEC)
 8004ee6:	f8d7 3104 	ldr.w	r3, [r7, #260]	@ 0x104
 8004eea:	e9d3 2300 	ldrd	r2, r3, [r3]
 8004eee:	f402 0300 	and.w	r3, r2, #8388608	@ 0x800000
 8004ef2:	633b      	str	r3, [r7, #48]	@ 0x30
 8004ef4:	2300      	movs	r3, #0
 8004ef6:	637b      	str	r3, [r7, #52]	@ 0x34
 8004ef8:	e9d7 120c 	ldrd	r1, r2, [r7, #48]	@ 0x30
 8004efc:	460b      	mov	r3, r1
 8004efe:	4313      	orrs	r3, r2
 8004f00:	d00a      	beq.n	8004f18 <HAL_RCCEx_PeriphCLKConfig+0x11a0>
  {
    /* Check the parameters */
    assert_param(IS_RCC_CECCLKSOURCE(PeriphClkInit->CecClockSelection));

    /* Configure the CEC interface clock source */
    __HAL_RCC_CEC_CONFIG(PeriphClkInit->CecClockSelection);
 8004f02:	4b6c      	ldr	r3, [pc, #432]	@ (80050b4 <HAL_RCCEx_PeriphCLKConfig+0x133c>)
 8004f04:	6d5b      	ldr	r3, [r3, #84]	@ 0x54
 8004f06:	f423 0140 	bic.w	r1, r3, #12582912	@ 0xc00000
 8004f0a:	f8d7 3104 	ldr.w	r3, [r7, #260]	@ 0x104
 8004f0e:	f8d3 3088 	ldr.w	r3, [r3, #136]	@ 0x88
 8004f12:	4a68      	ldr	r2, [pc, #416]	@ (80050b4 <HAL_RCCEx_PeriphCLKConfig+0x133c>)
 8004f14:	430b      	orrs	r3, r1
 8004f16:	6553      	str	r3, [r2, #84]	@ 0x54
  }

  /*---------------------------- PLL2 configuration -------------------------------*/
  if (((PeriphClkInit->PeriphClockSelection) & RCC_PERIPHCLK_PLL2_DIVP) == RCC_PERIPHCLK_PLL2_DIVP)
 8004f18:	f8d7 3104 	ldr.w	r3, [r7, #260]	@ 0x104
 8004f1c:	e9d3 2300 	ldrd	r2, r3, [r3]
 8004f20:	2100      	movs	r1, #0
 8004f22:	62b9      	str	r1, [r7, #40]	@ 0x28
 8004f24:	f003 0301 	and.w	r3, r3, #1
 8004f28:	62fb      	str	r3, [r7, #44]	@ 0x2c
 8004f2a:	e9d7 120a 	ldrd	r1, r2, [r7, #40]	@ 0x28
 8004f2e:	460b      	mov	r3, r1
 8004f30:	4313      	orrs	r3, r2
 8004f32:	d011      	beq.n	8004f58 <HAL_RCCEx_PeriphCLKConfig+0x11e0>
  {
    ret = RCCEx_PLL2_Config(&(PeriphClkInit->PLL2), DIVIDER_P_UPDATE);
 8004f34:	f8d7 3104 	ldr.w	r3, [r7, #260]	@ 0x104
 8004f38:	3308      	adds	r3, #8
 8004f3a:	2100      	movs	r1, #0
 8004f3c:	4618      	mov	r0, r3
 8004f3e:	f000 f8bb 	bl	80050b8 <RCCEx_PLL2_Config>
 8004f42:	4603      	mov	r3, r0
 8004f44:	f887 3117 	strb.w	r3, [r7, #279]	@ 0x117
    
    if (ret == HAL_OK)
 8004f48:	f897 3117 	ldrb.w	r3, [r7, #279]	@ 0x117
 8004f4c:	2b00      	cmp	r3, #0
 8004f4e:	d003      	beq.n	8004f58 <HAL_RCCEx_PeriphCLKConfig+0x11e0>
      /*Nothing to do*/
    }
    else
    {
      /* set overall return value */
      status = ret;
 8004f50:	f897 3117 	ldrb.w	r3, [r7, #279]	@ 0x117
 8004f54:	f887 3116 	strb.w	r3, [r7, #278]	@ 0x116
    } 
  }
  
  
  if (((PeriphClkInit->PeriphClockSelection) & RCC_PERIPHCLK_PLL2_DIVQ) == RCC_PERIPHCLK_PLL2_DIVQ)
 8004f58:	f8d7 3104 	ldr.w	r3, [r7, #260]	@ 0x104
 8004f5c:	e9d3 2300 	ldrd	r2, r3, [r3]
 8004f60:	2100      	movs	r1, #0
 8004f62:	6239      	str	r1, [r7, #32]
 8004f64:	f003 0302 	and.w	r3, r3, #2
 8004f68:	627b      	str	r3, [r7, #36]	@ 0x24
 8004f6a:	e9d7 1208 	ldrd	r1, r2, [r7, #32]
 8004f6e:	460b      	mov	r3, r1
 8004f70:	4313      	orrs	r3, r2
 8004f72:	d011      	beq.n	8004f98 <HAL_RCCEx_PeriphCLKConfig+0x1220>
  {
    ret = RCCEx_PLL2_Config(&(PeriphClkInit->PLL2), DIVIDER_Q_UPDATE);
 8004f74:	f8d7 3104 	ldr.w	r3, [r7, #260]	@ 0x104
 8004f78:	3308      	adds	r3, #8
 8004f7a:	2101      	movs	r1, #1
 8004f7c:	4618      	mov	r0, r3
 8004f7e:	f000 f89b 	bl	80050b8 <RCCEx_PLL2_Config>
 8004f82:	4603      	mov	r3, r0
 8004f84:	f887 3117 	strb.w	r3, [r7, #279]	@ 0x117
    
    if (ret == HAL_OK)
 8004f88:	f897 3117 	ldrb.w	r3, [r7, #279]	@ 0x117
 8004f8c:	2b00      	cmp	r3, #0
 8004f8e:	d003      	beq.n	8004f98 <HAL_RCCEx_PeriphCLKConfig+0x1220>
      /*Nothing to do*/
    }
    else
    {
      /* set overall return value */
      status = ret;
 8004f90:	f897 3117 	ldrb.w	r3, [r7, #279]	@ 0x117
 8004f94:	f887 3116 	strb.w	r3, [r7, #278]	@ 0x116
    }
  }
  
  
  if (((PeriphClkInit->PeriphClockSelection) & RCC_PERIPHCLK_PLL2_DIVR) == RCC_PERIPHCLK_PLL2_DIVR)
 8004f98:	f8d7 3104 	ldr.w	r3, [r7, #260]	@ 0x104
 8004f9c:	e9d3 2300 	ldrd	r2, r3, [r3]
 8004fa0:	2100      	movs	r1, #0
 8004fa2:	61b9      	str	r1, [r7, #24]
 8004fa4:	f003 0304 	and.w	r3, r3, #4
 8004fa8:	61fb      	str	r3, [r7, #28]
 8004faa:	e9d7 1206 	ldrd	r1, r2, [r7, #24]
 8004fae:	460b      	mov	r3, r1
 8004fb0:	4313      	orrs	r3, r2
 8004fb2:	d011      	beq.n	8004fd8 <HAL_RCCEx_PeriphCLKConfig+0x1260>
  {
    ret = RCCEx_PLL2_Config(&(PeriphClkInit->PLL2), DIVIDER_R_UPDATE);
 8004fb4:	f8d7 3104 	ldr.w	r3, [r7, #260]	@ 0x104
 8004fb8:	3308      	adds	r3, #8
 8004fba:	2102      	movs	r1, #2
 8004fbc:	4618      	mov	r0, r3
 8004fbe:	f000 f87b 	bl	80050b8 <RCCEx_PLL2_Config>
 8004fc2:	4603      	mov	r3, r0
 8004fc4:	f887 3117 	strb.w	r3, [r7, #279]	@ 0x117
    
    if (ret == HAL_OK)
 8004fc8:	f897 3117 	ldrb.w	r3, [r7, #279]	@ 0x117
 8004fcc:	2b00      	cmp	r3, #0
 8004fce:	d003      	beq.n	8004fd8 <HAL_RCCEx_PeriphCLKConfig+0x1260>
      /*Nothing to do*/
    }
    else
    {
      /* set overall return value */
      status = ret;
 8004fd0:	f897 3117 	ldrb.w	r3, [r7, #279]	@ 0x117
 8004fd4:	f887 3116 	strb.w	r3, [r7, #278]	@ 0x116
    }
  }
  

  /*---------------------------- PLL3 configuration -------------------------------*/
  if (((PeriphClkInit->PeriphClockSelection) & RCC_PERIPHCLK_PLL3_DIVP) == RCC_PERIPHCLK_PLL3_DIVP)
 8004fd8:	f8d7 3104 	ldr.w	r3, [r7, #260]	@ 0x104
 8004fdc:	e9d3 2300 	ldrd	r2, r3, [r3]
 8004fe0:	2100      	movs	r1, #0
 8004fe2:	6139      	str	r1, [r7, #16]
 8004fe4:	f003 0308 	and.w	r3, r3, #8
 8004fe8:	617b      	str	r3, [r7, #20]
 8004fea:	e9d7 1204 	ldrd	r1, r2, [r7, #16]
 8004fee:	460b      	mov	r3, r1
 8004ff0:	4313      	orrs	r3, r2
 8004ff2:	d011      	beq.n	8005018 <HAL_RCCEx_PeriphCLKConfig+0x12a0>
  {
    ret = RCCEx_PLL3_Config(&(PeriphClkInit->PLL3), DIVIDER_P_UPDATE);
 8004ff4:	f8d7 3104 	ldr.w	r3, [r7, #260]	@ 0x104
 8004ff8:	3328      	adds	r3, #40	@ 0x28
 8004ffa:	2100      	movs	r1, #0
 8004ffc:	4618      	mov	r0, r3
 8004ffe:	f000 f90d 	bl	800521c <RCCEx_PLL3_Config>
 8005002:	4603      	mov	r3, r0
 8005004:	f887 3117 	strb.w	r3, [r7, #279]	@ 0x117
  
    if (ret == HAL_OK)
 8005008:	f897 3117 	ldrb.w	r3, [r7, #279]	@ 0x117
 800500c:	2b00      	cmp	r3, #0
 800500e:	d003      	beq.n	8005018 <HAL_RCCEx_PeriphCLKConfig+0x12a0>
      /*Nothing to do*/
    }
    else
    {
      /* set overall return value */
      status = ret;
 8005010:	f897 3117 	ldrb.w	r3, [r7, #279]	@ 0x117
 8005014:	f887 3116 	strb.w	r3, [r7, #278]	@ 0x116
    }
  }
  
  
  if (((PeriphClkInit->PeriphClockSelection) & RCC_PERIPHCLK_PLL3_DIVQ) == RCC_PERIPHCLK_PLL3_DIVQ)
 8005018:	f8d7 3104 	ldr.w	r3, [r7, #260]	@ 0x104
 800501c:	e9d3 2300 	ldrd	r2, r3, [r3]
 8005020:	2100      	movs	r1, #0
 8005022:	60b9      	str	r1, [r7, #8]
 8005024:	f003 0310 	and.w	r3, r3, #16
 8005028:	60fb      	str	r3, [r7, #12]
 800502a:	e9d7 1202 	ldrd	r1, r2, [r7, #8]
 800502e:	460b      	mov	r3, r1
 8005030:	4313      	orrs	r3, r2
 8005032:	d011      	beq.n	8005058 <HAL_RCCEx_PeriphCLKConfig+0x12e0>
  {
    ret = RCCEx_PLL3_Config(&(PeriphClkInit->PLL3), DIVIDER_Q_UPDATE);
 8005034:	f8d7 3104 	ldr.w	r3, [r7, #260]	@ 0x104
 8005038:	3328      	adds	r3, #40	@ 0x28
 800503a:	2101      	movs	r1, #1
 800503c:	4618      	mov	r0, r3
 800503e:	f000 f8ed 	bl	800521c <RCCEx_PLL3_Config>
 8005042:	4603      	mov	r3, r0
 8005044:	f887 3117 	strb.w	r3, [r7, #279]	@ 0x117
    
    if (ret == HAL_OK)
 8005048:	f897 3117 	ldrb.w	r3, [r7, #279]	@ 0x117
 800504c:	2b00      	cmp	r3, #0
 800504e:	d003      	beq.n	8005058 <HAL_RCCEx_PeriphCLKConfig+0x12e0>
      /*Nothing to do*/
    }
    else
    {
      /* set overall return value */
      status = ret;
 8005050:	f897 3117 	ldrb.w	r3, [r7, #279]	@ 0x117
 8005054:	f887 3116 	strb.w	r3, [r7, #278]	@ 0x116
    }
  }
  
  
  if (((PeriphClkInit->PeriphClockSelection) & RCC_PERIPHCLK_PLL3_DIVR) == RCC_PERIPHCLK_PLL3_DIVR)
 8005058:	f8d7 3104 	ldr.w	r3, [r7, #260]	@ 0x104
 800505c:	e9d3 2300 	ldrd	r2, r3, [r3]
 8005060:	2100      	movs	r1, #0
 8005062:	6039      	str	r1, [r7, #0]
 8005064:	f003 0320 	and.w	r3, r3, #32
 8005068:	607b      	str	r3, [r7, #4]
 800506a:	e9d7 1200 	ldrd	r1, r2, [r7]
 800506e:	460b      	mov	r3, r1
 8005070:	4313      	orrs	r3, r2
 8005072:	d011      	beq.n	8005098 <HAL_RCCEx_PeriphCLKConfig+0x1320>
  {
    ret = RCCEx_PLL3_Config(&(PeriphClkInit->PLL3), DIVIDER_R_UPDATE);
 8005074:	f8d7 3104 	ldr.w	r3, [r7, #260]	@ 0x104
 8005078:	3328      	adds	r3, #40	@ 0x28
 800507a:	2102      	movs	r1, #2
 800507c:	4618      	mov	r0, r3
 800507e:	f000 f8cd 	bl	800521c <RCCEx_PLL3_Config>
 8005082:	4603      	mov	r3, r0
 8005084:	f887 3117 	strb.w	r3, [r7, #279]	@ 0x117
    
    if (ret == HAL_OK)
 8005088:	f897 3117 	ldrb.w	r3, [r7, #279]	@ 0x117
 800508c:	2b00      	cmp	r3, #0
 800508e:	d003      	beq.n	8005098 <HAL_RCCEx_PeriphCLKConfig+0x1320>
      /*Nothing to do*/
    }
    else
    {
      /* set overall return value */
      status = ret;
 8005090:	f897 3117 	ldrb.w	r3, [r7, #279]	@ 0x117
 8005094:	f887 3116 	strb.w	r3, [r7, #278]	@ 0x116
    } 
  }

  if (status == HAL_OK)
 8005098:	f897 3116 	ldrb.w	r3, [r7, #278]	@ 0x116
 800509c:	2b00      	cmp	r3, #0
 800509e:	d101      	bne.n	80050a4 <HAL_RCCEx_PeriphCLKConfig+0x132c>
  {
    return HAL_OK;
 80050a0:	2300      	movs	r3, #0
 80050a2:	e000      	b.n	80050a6 <HAL_RCCEx_PeriphCLKConfig+0x132e>
  }
  return HAL_ERROR;
 80050a4:	2301      	movs	r3, #1
}
 80050a6:	4618      	mov	r0, r3
 80050a8:	f507 778c 	add.w	r7, r7, #280	@ 0x118
 80050ac:	46bd      	mov	sp, r7
 80050ae:	e8bd 8fb0 	ldmia.w	sp!, {r4, r5, r7, r8, r9, sl, fp, pc}
 80050b2:	bf00      	nop
 80050b4:	58024400 	.word	0x58024400

080050b8 <RCCEx_PLL2_Config>:
  * @note   PLL2 is temporary disabled to apply new parameters
  *
  * @retval HAL status
  */
static HAL_StatusTypeDef RCCEx_PLL2_Config(const RCC_PLL2InitTypeDef *pll2, uint32_t Divider)
{
 80050b8:	b580      	push	{r7, lr}
 80050ba:	b084      	sub	sp, #16
 80050bc:	af00      	add	r7, sp, #0
 80050be:	6078      	str	r0, [r7, #4]
 80050c0:	6039      	str	r1, [r7, #0]

  uint32_t tickstart;
  HAL_StatusTypeDef status = HAL_OK;
 80050c2:	2300      	movs	r3, #0
 80050c4:	73fb      	strb	r3, [r7, #15]
  assert_param(IS_RCC_PLL2RGE_VALUE(pll2->PLL2RGE));
  assert_param(IS_RCC_PLL2VCO_VALUE(pll2->PLL2VCOSEL));
  assert_param(IS_RCC_PLLFRACN_VALUE(pll2->PLL2FRACN));

  /* Check that PLL2 OSC clock source is already set */
  if (__HAL_RCC_GET_PLL_OSCSOURCE() == RCC_PLLSOURCE_NONE)
 80050c6:	4b53      	ldr	r3, [pc, #332]	@ (8005214 <RCCEx_PLL2_Config+0x15c>)
 80050c8:	6a9b      	ldr	r3, [r3, #40]	@ 0x28
 80050ca:	f003 0303 	and.w	r3, r3, #3
 80050ce:	2b03      	cmp	r3, #3
 80050d0:	d101      	bne.n	80050d6 <RCCEx_PLL2_Config+0x1e>
  {
    return HAL_ERROR;
 80050d2:	2301      	movs	r3, #1
 80050d4:	e099      	b.n	800520a <RCCEx_PLL2_Config+0x152>


  else
  {
    /* Disable  PLL2. */
    __HAL_RCC_PLL2_DISABLE();
 80050d6:	4b4f      	ldr	r3, [pc, #316]	@ (8005214 <RCCEx_PLL2_Config+0x15c>)
 80050d8:	681b      	ldr	r3, [r3, #0]
 80050da:	4a4e      	ldr	r2, [pc, #312]	@ (8005214 <RCCEx_PLL2_Config+0x15c>)
 80050dc:	f023 6380 	bic.w	r3, r3, #67108864	@ 0x4000000
 80050e0:	6013      	str	r3, [r2, #0]

    /* Get Start Tick*/
    tickstart = HAL_GetTick();
 80050e2:	f7fc f887 	bl	80011f4 <HAL_GetTick>
 80050e6:	60b8      	str	r0, [r7, #8]

    /* Wait till PLL is disabled */
    while (__HAL_RCC_GET_FLAG(RCC_FLAG_PLL2RDY) != 0U)
 80050e8:	e008      	b.n	80050fc <RCCEx_PLL2_Config+0x44>
    {
      if ((HAL_GetTick() - tickstart) > PLL2_TIMEOUT_VALUE)
 80050ea:	f7fc f883 	bl	80011f4 <HAL_GetTick>
 80050ee:	4602      	mov	r2, r0
 80050f0:	68bb      	ldr	r3, [r7, #8]
 80050f2:	1ad3      	subs	r3, r2, r3
 80050f4:	2b02      	cmp	r3, #2
 80050f6:	d901      	bls.n	80050fc <RCCEx_PLL2_Config+0x44>
      {
        return HAL_TIMEOUT;
 80050f8:	2303      	movs	r3, #3
 80050fa:	e086      	b.n	800520a <RCCEx_PLL2_Config+0x152>
    while (__HAL_RCC_GET_FLAG(RCC_FLAG_PLL2RDY) != 0U)
 80050fc:	4b45      	ldr	r3, [pc, #276]	@ (8005214 <RCCEx_PLL2_Config+0x15c>)
 80050fe:	681b      	ldr	r3, [r3, #0]
 8005100:	f003 6300 	and.w	r3, r3, #134217728	@ 0x8000000
 8005104:	2b00      	cmp	r3, #0
 8005106:	d1f0      	bne.n	80050ea <RCCEx_PLL2_Config+0x32>
      }
    }

    /* Configure PLL2 multiplication and division factors. */
    __HAL_RCC_PLL2_CONFIG(pll2->PLL2M,
 8005108:	4b42      	ldr	r3, [pc, #264]	@ (8005214 <RCCEx_PLL2_Config+0x15c>)
 800510a:	6a9b      	ldr	r3, [r3, #40]	@ 0x28
 800510c:	f423 327c 	bic.w	r2, r3, #258048	@ 0x3f000
 8005110:	687b      	ldr	r3, [r7, #4]
 8005112:	681b      	ldr	r3, [r3, #0]
 8005114:	031b      	lsls	r3, r3, #12
 8005116:	493f      	ldr	r1, [pc, #252]	@ (8005214 <RCCEx_PLL2_Config+0x15c>)
 8005118:	4313      	orrs	r3, r2
 800511a:	628b      	str	r3, [r1, #40]	@ 0x28
 800511c:	687b      	ldr	r3, [r7, #4]
 800511e:	685b      	ldr	r3, [r3, #4]
 8005120:	3b01      	subs	r3, #1
 8005122:	f3c3 0208 	ubfx	r2, r3, #0, #9
 8005126:	687b      	ldr	r3, [r7, #4]
 8005128:	689b      	ldr	r3, [r3, #8]
 800512a:	3b01      	subs	r3, #1
 800512c:	025b      	lsls	r3, r3, #9
 800512e:	b29b      	uxth	r3, r3
 8005130:	431a      	orrs	r2, r3
 8005132:	687b      	ldr	r3, [r7, #4]
 8005134:	68db      	ldr	r3, [r3, #12]
 8005136:	3b01      	subs	r3, #1
 8005138:	041b      	lsls	r3, r3, #16
 800513a:	f403 03fe 	and.w	r3, r3, #8323072	@ 0x7f0000
 800513e:	431a      	orrs	r2, r3
 8005140:	687b      	ldr	r3, [r7, #4]
 8005142:	691b      	ldr	r3, [r3, #16]
 8005144:	3b01      	subs	r3, #1
 8005146:	061b      	lsls	r3, r3, #24
 8005148:	f003 43fe 	and.w	r3, r3, #2130706432	@ 0x7f000000
 800514c:	4931      	ldr	r1, [pc, #196]	@ (8005214 <RCCEx_PLL2_Config+0x15c>)
 800514e:	4313      	orrs	r3, r2
 8005150:	638b      	str	r3, [r1, #56]	@ 0x38
                          pll2->PLL2P,
                          pll2->PLL2Q,
                          pll2->PLL2R);

    /* Select PLL2 input reference frequency range: VCI */
    __HAL_RCC_PLL2_VCIRANGE(pll2->PLL2RGE) ;
 8005152:	4b30      	ldr	r3, [pc, #192]	@ (8005214 <RCCEx_PLL2_Config+0x15c>)
 8005154:	6adb      	ldr	r3, [r3, #44]	@ 0x2c
 8005156:	f023 02c0 	bic.w	r2, r3, #192	@ 0xc0
 800515a:	687b      	ldr	r3, [r7, #4]
 800515c:	695b      	ldr	r3, [r3, #20]
 800515e:	492d      	ldr	r1, [pc, #180]	@ (8005214 <RCCEx_PLL2_Config+0x15c>)
 8005160:	4313      	orrs	r3, r2
 8005162:	62cb      	str	r3, [r1, #44]	@ 0x2c

    /* Select PLL2 output frequency range : VCO */
    __HAL_RCC_PLL2_VCORANGE(pll2->PLL2VCOSEL) ;
 8005164:	4b2b      	ldr	r3, [pc, #172]	@ (8005214 <RCCEx_PLL2_Config+0x15c>)
 8005166:	6adb      	ldr	r3, [r3, #44]	@ 0x2c
 8005168:	f023 0220 	bic.w	r2, r3, #32
 800516c:	687b      	ldr	r3, [r7, #4]
 800516e:	699b      	ldr	r3, [r3, #24]
 8005170:	4928      	ldr	r1, [pc, #160]	@ (8005214 <RCCEx_PLL2_Config+0x15c>)
 8005172:	4313      	orrs	r3, r2
 8005174:	62cb      	str	r3, [r1, #44]	@ 0x2c

    /* Disable PLL2FRACN . */
    __HAL_RCC_PLL2FRACN_DISABLE();
 8005176:	4b27      	ldr	r3, [pc, #156]	@ (8005214 <RCCEx_PLL2_Config+0x15c>)
 8005178:	6adb      	ldr	r3, [r3, #44]	@ 0x2c
 800517a:	4a26      	ldr	r2, [pc, #152]	@ (8005214 <RCCEx_PLL2_Config+0x15c>)
 800517c:	f023 0310 	bic.w	r3, r3, #16
 8005180:	62d3      	str	r3, [r2, #44]	@ 0x2c

    /* Configures PLL2 clock Fractional Part Of The Multiplication Factor */
    __HAL_RCC_PLL2FRACN_CONFIG(pll2->PLL2FRACN);
 8005182:	4b24      	ldr	r3, [pc, #144]	@ (8005214 <RCCEx_PLL2_Config+0x15c>)
 8005184:	6bda      	ldr	r2, [r3, #60]	@ 0x3c
 8005186:	4b24      	ldr	r3, [pc, #144]	@ (8005218 <RCCEx_PLL2_Config+0x160>)
 8005188:	4013      	ands	r3, r2
 800518a:	687a      	ldr	r2, [r7, #4]
 800518c:	69d2      	ldr	r2, [r2, #28]
 800518e:	00d2      	lsls	r2, r2, #3
 8005190:	4920      	ldr	r1, [pc, #128]	@ (8005214 <RCCEx_PLL2_Config+0x15c>)
 8005192:	4313      	orrs	r3, r2
 8005194:	63cb      	str	r3, [r1, #60]	@ 0x3c

    /* Enable PLL2FRACN . */
    __HAL_RCC_PLL2FRACN_ENABLE();
 8005196:	4b1f      	ldr	r3, [pc, #124]	@ (8005214 <RCCEx_PLL2_Config+0x15c>)
 8005198:	6adb      	ldr	r3, [r3, #44]	@ 0x2c
 800519a:	4a1e      	ldr	r2, [pc, #120]	@ (8005214 <RCCEx_PLL2_Config+0x15c>)
 800519c:	f043 0310 	orr.w	r3, r3, #16
 80051a0:	62d3      	str	r3, [r2, #44]	@ 0x2c

    /* Enable the PLL2 clock output */
    if (Divider == DIVIDER_P_UPDATE)
 80051a2:	683b      	ldr	r3, [r7, #0]
 80051a4:	2b00      	cmp	r3, #0
 80051a6:	d106      	bne.n	80051b6 <RCCEx_PLL2_Config+0xfe>
    {
      __HAL_RCC_PLL2CLKOUT_ENABLE(RCC_PLL2_DIVP);
 80051a8:	4b1a      	ldr	r3, [pc, #104]	@ (8005214 <RCCEx_PLL2_Config+0x15c>)
 80051aa:	6adb      	ldr	r3, [r3, #44]	@ 0x2c
 80051ac:	4a19      	ldr	r2, [pc, #100]	@ (8005214 <RCCEx_PLL2_Config+0x15c>)
 80051ae:	f443 2300 	orr.w	r3, r3, #524288	@ 0x80000
 80051b2:	62d3      	str	r3, [r2, #44]	@ 0x2c
 80051b4:	e00f      	b.n	80051d6 <RCCEx_PLL2_Config+0x11e>
    }
    else if (Divider == DIVIDER_Q_UPDATE)
 80051b6:	683b      	ldr	r3, [r7, #0]
 80051b8:	2b01      	cmp	r3, #1
 80051ba:	d106      	bne.n	80051ca <RCCEx_PLL2_Config+0x112>
    {
      __HAL_RCC_PLL2CLKOUT_ENABLE(RCC_PLL2_DIVQ);
 80051bc:	4b15      	ldr	r3, [pc, #84]	@ (8005214 <RCCEx_PLL2_Config+0x15c>)
 80051be:	6adb      	ldr	r3, [r3, #44]	@ 0x2c
 80051c0:	4a14      	ldr	r2, [pc, #80]	@ (8005214 <RCCEx_PLL2_Config+0x15c>)
 80051c2:	f443 1380 	orr.w	r3, r3, #1048576	@ 0x100000
 80051c6:	62d3      	str	r3, [r2, #44]	@ 0x2c
 80051c8:	e005      	b.n	80051d6 <RCCEx_PLL2_Config+0x11e>
    }
    else
    {
      __HAL_RCC_PLL2CLKOUT_ENABLE(RCC_PLL2_DIVR);
 80051ca:	4b12      	ldr	r3, [pc, #72]	@ (8005214 <RCCEx_PLL2_Config+0x15c>)
 80051cc:	6adb      	ldr	r3, [r3, #44]	@ 0x2c
 80051ce:	4a11      	ldr	r2, [pc, #68]	@ (8005214 <RCCEx_PLL2_Config+0x15c>)
 80051d0:	f443 1300 	orr.w	r3, r3, #2097152	@ 0x200000
 80051d4:	62d3      	str	r3, [r2, #44]	@ 0x2c
    }

    /* Enable  PLL2. */
    __HAL_RCC_PLL2_ENABLE();
 80051d6:	4b0f      	ldr	r3, [pc, #60]	@ (8005214 <RCCEx_PLL2_Config+0x15c>)
 80051d8:	681b      	ldr	r3, [r3, #0]
 80051da:	4a0e      	ldr	r2, [pc, #56]	@ (8005214 <RCCEx_PLL2_Config+0x15c>)
 80051dc:	f043 6380 	orr.w	r3, r3, #67108864	@ 0x4000000
 80051e0:	6013      	str	r3, [r2, #0]

    /* Get Start Tick*/
    tickstart = HAL_GetTick();
 80051e2:	f7fc f807 	bl	80011f4 <HAL_GetTick>
 80051e6:	60b8      	str	r0, [r7, #8]

    /* Wait till PLL2 is ready */
    while (__HAL_RCC_GET_FLAG(RCC_FLAG_PLL2RDY) == 0U)
 80051e8:	e008      	b.n	80051fc <RCCEx_PLL2_Config+0x144>
    {
      if ((HAL_GetTick() - tickstart) > PLL2_TIMEOUT_VALUE)
 80051ea:	f7fc f803 	bl	80011f4 <HAL_GetTick>
 80051ee:	4602      	mov	r2, r0
 80051f0:	68bb      	ldr	r3, [r7, #8]
 80051f2:	1ad3      	subs	r3, r2, r3
 80051f4:	2b02      	cmp	r3, #2
 80051f6:	d901      	bls.n	80051fc <RCCEx_PLL2_Config+0x144>
      {
        return HAL_TIMEOUT;
 80051f8:	2303      	movs	r3, #3
 80051fa:	e006      	b.n	800520a <RCCEx_PLL2_Config+0x152>
    while (__HAL_RCC_GET_FLAG(RCC_FLAG_PLL2RDY) == 0U)
 80051fc:	4b05      	ldr	r3, [pc, #20]	@ (8005214 <RCCEx_PLL2_Config+0x15c>)
 80051fe:	681b      	ldr	r3, [r3, #0]
 8005200:	f003 6300 	and.w	r3, r3, #134217728	@ 0x8000000
 8005204:	2b00      	cmp	r3, #0
 8005206:	d0f0      	beq.n	80051ea <RCCEx_PLL2_Config+0x132>
    }

  }


  return status;
 8005208:	7bfb      	ldrb	r3, [r7, #15]
}
 800520a:	4618      	mov	r0, r3
 800520c:	3710      	adds	r7, #16
 800520e:	46bd      	mov	sp, r7
 8005210:	bd80      	pop	{r7, pc}
 8005212:	bf00      	nop
 8005214:	58024400 	.word	0x58024400
 8005218:	ffff0007 	.word	0xffff0007

0800521c <RCCEx_PLL3_Config>:
  * @note   PLL3 is temporary disabled to apply new parameters
  *
  * @retval HAL status
  */
static HAL_StatusTypeDef RCCEx_PLL3_Config(const RCC_PLL3InitTypeDef *pll3, uint32_t Divider)
{
 800521c:	b580      	push	{r7, lr}
 800521e:	b084      	sub	sp, #16
 8005220:	af00      	add	r7, sp, #0
 8005222:	6078      	str	r0, [r7, #4]
 8005224:	6039      	str	r1, [r7, #0]
  uint32_t tickstart;
  HAL_StatusTypeDef status = HAL_OK;
 8005226:	2300      	movs	r3, #0
 8005228:	73fb      	strb	r3, [r7, #15]
  assert_param(IS_RCC_PLL3RGE_VALUE(pll3->PLL3RGE));
  assert_param(IS_RCC_PLL3VCO_VALUE(pll3->PLL3VCOSEL));
  assert_param(IS_RCC_PLLFRACN_VALUE(pll3->PLL3FRACN));

  /* Check that PLL3 OSC clock source is already set */
  if (__HAL_RCC_GET_PLL_OSCSOURCE() == RCC_PLLSOURCE_NONE)
 800522a:	4b53      	ldr	r3, [pc, #332]	@ (8005378 <RCCEx_PLL3_Config+0x15c>)
 800522c:	6a9b      	ldr	r3, [r3, #40]	@ 0x28
 800522e:	f003 0303 	and.w	r3, r3, #3
 8005232:	2b03      	cmp	r3, #3
 8005234:	d101      	bne.n	800523a <RCCEx_PLL3_Config+0x1e>
  {
    return HAL_ERROR;
 8005236:	2301      	movs	r3, #1
 8005238:	e099      	b.n	800536e <RCCEx_PLL3_Config+0x152>


  else
  {
    /* Disable  PLL3. */
    __HAL_RCC_PLL3_DISABLE();
 800523a:	4b4f      	ldr	r3, [pc, #316]	@ (8005378 <RCCEx_PLL3_Config+0x15c>)
 800523c:	681b      	ldr	r3, [r3, #0]
 800523e:	4a4e      	ldr	r2, [pc, #312]	@ (8005378 <RCCEx_PLL3_Config+0x15c>)
 8005240:	f023 5380 	bic.w	r3, r3, #268435456	@ 0x10000000
 8005244:	6013      	str	r3, [r2, #0]

    /* Get Start Tick*/
    tickstart = HAL_GetTick();
 8005246:	f7fb ffd5 	bl	80011f4 <HAL_GetTick>
 800524a:	60b8      	str	r0, [r7, #8]
    /* Wait till PLL3 is ready */
    while (__HAL_RCC_GET_FLAG(RCC_FLAG_PLL3RDY) != 0U)
 800524c:	e008      	b.n	8005260 <RCCEx_PLL3_Config+0x44>
    {
      if ((HAL_GetTick() - tickstart) > PLL3_TIMEOUT_VALUE)
 800524e:	f7fb ffd1 	bl	80011f4 <HAL_GetTick>
 8005252:	4602      	mov	r2, r0
 8005254:	68bb      	ldr	r3, [r7, #8]
 8005256:	1ad3      	subs	r3, r2, r3
 8005258:	2b02      	cmp	r3, #2
 800525a:	d901      	bls.n	8005260 <RCCEx_PLL3_Config+0x44>
      {
        return HAL_TIMEOUT;
 800525c:	2303      	movs	r3, #3
 800525e:	e086      	b.n	800536e <RCCEx_PLL3_Config+0x152>
    while (__HAL_RCC_GET_FLAG(RCC_FLAG_PLL3RDY) != 0U)
 8005260:	4b45      	ldr	r3, [pc, #276]	@ (8005378 <RCCEx_PLL3_Config+0x15c>)
 8005262:	681b      	ldr	r3, [r3, #0]
 8005264:	f003 5300 	and.w	r3, r3, #536870912	@ 0x20000000
 8005268:	2b00      	cmp	r3, #0
 800526a:	d1f0      	bne.n	800524e <RCCEx_PLL3_Config+0x32>
      }
    }

    /* Configure the PLL3  multiplication and division factors. */
    __HAL_RCC_PLL3_CONFIG(pll3->PLL3M,
 800526c:	4b42      	ldr	r3, [pc, #264]	@ (8005378 <RCCEx_PLL3_Config+0x15c>)
 800526e:	6a9b      	ldr	r3, [r3, #40]	@ 0x28
 8005270:	f023 727c 	bic.w	r2, r3, #66060288	@ 0x3f00000
 8005274:	687b      	ldr	r3, [r7, #4]
 8005276:	681b      	ldr	r3, [r3, #0]
 8005278:	051b      	lsls	r3, r3, #20
 800527a:	493f      	ldr	r1, [pc, #252]	@ (8005378 <RCCEx_PLL3_Config+0x15c>)
 800527c:	4313      	orrs	r3, r2
 800527e:	628b      	str	r3, [r1, #40]	@ 0x28
 8005280:	687b      	ldr	r3, [r7, #4]
 8005282:	685b      	ldr	r3, [r3, #4]
 8005284:	3b01      	subs	r3, #1
 8005286:	f3c3 0208 	ubfx	r2, r3, #0, #9
 800528a:	687b      	ldr	r3, [r7, #4]
 800528c:	689b      	ldr	r3, [r3, #8]
 800528e:	3b01      	subs	r3, #1
 8005290:	025b      	lsls	r3, r3, #9
 8005292:	b29b      	uxth	r3, r3
 8005294:	431a      	orrs	r2, r3
 8005296:	687b      	ldr	r3, [r7, #4]
 8005298:	68db      	ldr	r3, [r3, #12]
 800529a:	3b01      	subs	r3, #1
 800529c:	041b      	lsls	r3, r3, #16
 800529e:	f403 03fe 	and.w	r3, r3, #8323072	@ 0x7f0000
 80052a2:	431a      	orrs	r2, r3
 80052a4:	687b      	ldr	r3, [r7, #4]
 80052a6:	691b      	ldr	r3, [r3, #16]
 80052a8:	3b01      	subs	r3, #1
 80052aa:	061b      	lsls	r3, r3, #24
 80052ac:	f003 43fe 	and.w	r3, r3, #2130706432	@ 0x7f000000
 80052b0:	4931      	ldr	r1, [pc, #196]	@ (8005378 <RCCEx_PLL3_Config+0x15c>)
 80052b2:	4313      	orrs	r3, r2
 80052b4:	640b      	str	r3, [r1, #64]	@ 0x40
                          pll3->PLL3P,
                          pll3->PLL3Q,
                          pll3->PLL3R);

    /* Select PLL3 input reference frequency range: VCI */
    __HAL_RCC_PLL3_VCIRANGE(pll3->PLL3RGE) ;
 80052b6:	4b30      	ldr	r3, [pc, #192]	@ (8005378 <RCCEx_PLL3_Config+0x15c>)
 80052b8:	6adb      	ldr	r3, [r3, #44]	@ 0x2c
 80052ba:	f423 6240 	bic.w	r2, r3, #3072	@ 0xc00
 80052be:	687b      	ldr	r3, [r7, #4]
 80052c0:	695b      	ldr	r3, [r3, #20]
 80052c2:	492d      	ldr	r1, [pc, #180]	@ (8005378 <RCCEx_PLL3_Config+0x15c>)
 80052c4:	4313      	orrs	r3, r2
 80052c6:	62cb      	str	r3, [r1, #44]	@ 0x2c

    /* Select PLL3 output frequency range : VCO */
    __HAL_RCC_PLL3_VCORANGE(pll3->PLL3VCOSEL) ;
 80052c8:	4b2b      	ldr	r3, [pc, #172]	@ (8005378 <RCCEx_PLL3_Config+0x15c>)
 80052ca:	6adb      	ldr	r3, [r3, #44]	@ 0x2c
 80052cc:	f423 7200 	bic.w	r2, r3, #512	@ 0x200
 80052d0:	687b      	ldr	r3, [r7, #4]
 80052d2:	699b      	ldr	r3, [r3, #24]
 80052d4:	4928      	ldr	r1, [pc, #160]	@ (8005378 <RCCEx_PLL3_Config+0x15c>)
 80052d6:	4313      	orrs	r3, r2
 80052d8:	62cb      	str	r3, [r1, #44]	@ 0x2c

    /* Disable PLL3FRACN . */
    __HAL_RCC_PLL3FRACN_DISABLE();
 80052da:	4b27      	ldr	r3, [pc, #156]	@ (8005378 <RCCEx_PLL3_Config+0x15c>)
 80052dc:	6adb      	ldr	r3, [r3, #44]	@ 0x2c
 80052de:	4a26      	ldr	r2, [pc, #152]	@ (8005378 <RCCEx_PLL3_Config+0x15c>)
 80052e0:	f423 7380 	bic.w	r3, r3, #256	@ 0x100
 80052e4:	62d3      	str	r3, [r2, #44]	@ 0x2c

    /* Configures PLL3 clock Fractional Part Of The Multiplication Factor */
    __HAL_RCC_PLL3FRACN_CONFIG(pll3->PLL3FRACN);
 80052e6:	4b24      	ldr	r3, [pc, #144]	@ (8005378 <RCCEx_PLL3_Config+0x15c>)
 80052e8:	6c5a      	ldr	r2, [r3, #68]	@ 0x44
 80052ea:	4b24      	ldr	r3, [pc, #144]	@ (800537c <RCCEx_PLL3_Config+0x160>)
 80052ec:	4013      	ands	r3, r2
 80052ee:	687a      	ldr	r2, [r7, #4]
 80052f0:	69d2      	ldr	r2, [r2, #28]
 80052f2:	00d2      	lsls	r2, r2, #3
 80052f4:	4920      	ldr	r1, [pc, #128]	@ (8005378 <RCCEx_PLL3_Config+0x15c>)
 80052f6:	4313      	orrs	r3, r2
 80052f8:	644b      	str	r3, [r1, #68]	@ 0x44

    /* Enable PLL3FRACN . */
    __HAL_RCC_PLL3FRACN_ENABLE();
 80052fa:	4b1f      	ldr	r3, [pc, #124]	@ (8005378 <RCCEx_PLL3_Config+0x15c>)
 80052fc:	6adb      	ldr	r3, [r3, #44]	@ 0x2c
 80052fe:	4a1e      	ldr	r2, [pc, #120]	@ (8005378 <RCCEx_PLL3_Config+0x15c>)
 8005300:	f443 7380 	orr.w	r3, r3, #256	@ 0x100
 8005304:	62d3      	str	r3, [r2, #44]	@ 0x2c

    /* Enable the PLL3 clock output */
    if (Divider == DIVIDER_P_UPDATE)
 8005306:	683b      	ldr	r3, [r7, #0]
 8005308:	2b00      	cmp	r3, #0
 800530a:	d106      	bne.n	800531a <RCCEx_PLL3_Config+0xfe>
    {
      __HAL_RCC_PLL3CLKOUT_ENABLE(RCC_PLL3_DIVP);
 800530c:	4b1a      	ldr	r3, [pc, #104]	@ (8005378 <RCCEx_PLL3_Config+0x15c>)
 800530e:	6adb      	ldr	r3, [r3, #44]	@ 0x2c
 8005310:	4a19      	ldr	r2, [pc, #100]	@ (8005378 <RCCEx_PLL3_Config+0x15c>)
 8005312:	f443 0380 	orr.w	r3, r3, #4194304	@ 0x400000
 8005316:	62d3      	str	r3, [r2, #44]	@ 0x2c
 8005318:	e00f      	b.n	800533a <RCCEx_PLL3_Config+0x11e>
    }
    else if (Divider == DIVIDER_Q_UPDATE)
 800531a:	683b      	ldr	r3, [r7, #0]
 800531c:	2b01      	cmp	r3, #1
 800531e:	d106      	bne.n	800532e <RCCEx_PLL3_Config+0x112>
    {
      __HAL_RCC_PLL3CLKOUT_ENABLE(RCC_PLL3_DIVQ);
 8005320:	4b15      	ldr	r3, [pc, #84]	@ (8005378 <RCCEx_PLL3_Config+0x15c>)
 8005322:	6adb      	ldr	r3, [r3, #44]	@ 0x2c
 8005324:	4a14      	ldr	r2, [pc, #80]	@ (8005378 <RCCEx_PLL3_Config+0x15c>)
 8005326:	f443 0300 	orr.w	r3, r3, #8388608	@ 0x800000
 800532a:	62d3      	str	r3, [r2, #44]	@ 0x2c
 800532c:	e005      	b.n	800533a <RCCEx_PLL3_Config+0x11e>
    }
    else
    {
      __HAL_RCC_PLL3CLKOUT_ENABLE(RCC_PLL3_DIVR);
 800532e:	4b12      	ldr	r3, [pc, #72]	@ (8005378 <RCCEx_PLL3_Config+0x15c>)
 8005330:	6adb      	ldr	r3, [r3, #44]	@ 0x2c
 8005332:	4a11      	ldr	r2, [pc, #68]	@ (8005378 <RCCEx_PLL3_Config+0x15c>)
 8005334:	f043 7380 	orr.w	r3, r3, #16777216	@ 0x1000000
 8005338:	62d3      	str	r3, [r2, #44]	@ 0x2c
    }

    /* Enable  PLL3. */
    __HAL_RCC_PLL3_ENABLE();
 800533a:	4b0f      	ldr	r3, [pc, #60]	@ (8005378 <RCCEx_PLL3_Config+0x15c>)
 800533c:	681b      	ldr	r3, [r3, #0]
 800533e:	4a0e      	ldr	r2, [pc, #56]	@ (8005378 <RCCEx_PLL3_Config+0x15c>)
 8005340:	f043 5380 	orr.w	r3, r3, #268435456	@ 0x10000000
 8005344:	6013      	str	r3, [r2, #0]

    /* Get Start Tick*/
    tickstart = HAL_GetTick();
 8005346:	f7fb ff55 	bl	80011f4 <HAL_GetTick>
 800534a:	60b8      	str	r0, [r7, #8]

    /* Wait till PLL3 is ready */
    while (__HAL_RCC_GET_FLAG(RCC_FLAG_PLL3RDY) == 0U)
 800534c:	e008      	b.n	8005360 <RCCEx_PLL3_Config+0x144>
    {
      if ((HAL_GetTick() - tickstart) > PLL3_TIMEOUT_VALUE)
 800534e:	f7fb ff51 	bl	80011f4 <HAL_GetTick>
 8005352:	4602      	mov	r2, r0
 8005354:	68bb      	ldr	r3, [r7, #8]
 8005356:	1ad3      	subs	r3, r2, r3
 8005358:	2b02      	cmp	r3, #2
 800535a:	d901      	bls.n	8005360 <RCCEx_PLL3_Config+0x144>
      {
        return HAL_TIMEOUT;
 800535c:	2303      	movs	r3, #3
 800535e:	e006      	b.n	800536e <RCCEx_PLL3_Config+0x152>
    while (__HAL_RCC_GET_FLAG(RCC_FLAG_PLL3RDY) == 0U)
 8005360:	4b05      	ldr	r3, [pc, #20]	@ (8005378 <RCCEx_PLL3_Config+0x15c>)
 8005362:	681b      	ldr	r3, [r3, #0]
 8005364:	f003 5300 	and.w	r3, r3, #536870912	@ 0x20000000
 8005368:	2b00      	cmp	r3, #0
 800536a:	d0f0      	beq.n	800534e <RCCEx_PLL3_Config+0x132>
    }

  }


  return status;
 800536c:	7bfb      	ldrb	r3, [r7, #15]
}
 800536e:	4618      	mov	r0, r3
 8005370:	3710      	adds	r7, #16
 8005372:	46bd      	mov	sp, r7
 8005374:	bd80      	pop	{r7, pc}
 8005376:	bf00      	nop
 8005378:	58024400 	.word	0x58024400
 800537c:	ffff0007 	.word	0xffff0007

08005380 <HAL_TIM_Base_Init>:
  *         Ex: call @ref HAL_TIM_Base_DeInit() before HAL_TIM_Base_Init()
  * @param  htim TIM Base handle
  * @retval HAL status
  */
HAL_StatusTypeDef HAL_TIM_Base_Init(TIM_HandleTypeDef *htim)
{
 8005380:	b580      	push	{r7, lr}
 8005382:	b082      	sub	sp, #8
 8005384:	af00      	add	r7, sp, #0
 8005386:	6078      	str	r0, [r7, #4]
  /* Check the TIM handle allocation */
  if (htim == NULL)
 8005388:	687b      	ldr	r3, [r7, #4]
 800538a:	2b00      	cmp	r3, #0
 800538c:	d101      	bne.n	8005392 <HAL_TIM_Base_Init+0x12>
  {
    return HAL_ERROR;
 800538e:	2301      	movs	r3, #1
 8005390:	e049      	b.n	8005426 <HAL_TIM_Base_Init+0xa6>
  assert_param(IS_TIM_COUNTER_MODE(htim->Init.CounterMode));
  assert_param(IS_TIM_CLOCKDIVISION_DIV(htim->Init.ClockDivision));
  assert_param(IS_TIM_PERIOD(htim, htim->Init.Period));
  assert_param(IS_TIM_AUTORELOAD_PRELOAD(htim->Init.AutoReloadPreload));

  if (htim->State == HAL_TIM_STATE_RESET)
 8005392:	687b      	ldr	r3, [r7, #4]
 8005394:	f893 303d 	ldrb.w	r3, [r3, #61]	@ 0x3d
 8005398:	b2db      	uxtb	r3, r3
 800539a:	2b00      	cmp	r3, #0
 800539c:	d106      	bne.n	80053ac <HAL_TIM_Base_Init+0x2c>
  {
    /* Allocate lock resource and initialize it */
    htim->Lock = HAL_UNLOCKED;
 800539e:	687b      	ldr	r3, [r7, #4]
 80053a0:	2200      	movs	r2, #0
 80053a2:	f883 203c 	strb.w	r2, [r3, #60]	@ 0x3c
    }
    /* Init the low level hardware : GPIO, CLOCK, NVIC */
    htim->Base_MspInitCallback(htim);
#else
    /* Init the low level hardware : GPIO, CLOCK, NVIC */
    HAL_TIM_Base_MspInit(htim);
 80053a6:	6878      	ldr	r0, [r7, #4]
 80053a8:	f7fb fe4a 	bl	8001040 <HAL_TIM_Base_MspInit>
#endif /* USE_HAL_TIM_REGISTER_CALLBACKS */
  }

  /* Set the TIM state */
  htim->State = HAL_TIM_STATE_BUSY;
 80053ac:	687b      	ldr	r3, [r7, #4]
 80053ae:	2202      	movs	r2, #2
 80053b0:	f883 203d 	strb.w	r2, [r3, #61]	@ 0x3d

  /* Set the Time Base configuration */
  TIM_Base_SetConfig(htim->Instance, &htim->Init);
 80053b4:	687b      	ldr	r3, [r7, #4]
 80053b6:	681a      	ldr	r2, [r3, #0]
 80053b8:	687b      	ldr	r3, [r7, #4]
 80053ba:	3304      	adds	r3, #4
 80053bc:	4619      	mov	r1, r3
 80053be:	4610      	mov	r0, r2
 80053c0:	f000 f9ec 	bl	800579c <TIM_Base_SetConfig>

  /* Initialize the DMA burst operation state */
  htim->DMABurstState = HAL_DMA_BURST_STATE_READY;
 80053c4:	687b      	ldr	r3, [r7, #4]
 80053c6:	2201      	movs	r2, #1
 80053c8:	f883 2048 	strb.w	r2, [r3, #72]	@ 0x48

  /* Initialize the TIM channels state */
  TIM_CHANNEL_STATE_SET_ALL(htim, HAL_TIM_CHANNEL_STATE_READY);
 80053cc:	687b      	ldr	r3, [r7, #4]
 80053ce:	2201      	movs	r2, #1
 80053d0:	f883 203e 	strb.w	r2, [r3, #62]	@ 0x3e
 80053d4:	687b      	ldr	r3, [r7, #4]
 80053d6:	2201      	movs	r2, #1
 80053d8:	f883 203f 	strb.w	r2, [r3, #63]	@ 0x3f
 80053dc:	687b      	ldr	r3, [r7, #4]
 80053de:	2201      	movs	r2, #1
 80053e0:	f883 2040 	strb.w	r2, [r3, #64]	@ 0x40
 80053e4:	687b      	ldr	r3, [r7, #4]
 80053e6:	2201      	movs	r2, #1
 80053e8:	f883 2041 	strb.w	r2, [r3, #65]	@ 0x41
 80053ec:	687b      	ldr	r3, [r7, #4]
 80053ee:	2201      	movs	r2, #1
 80053f0:	f883 2042 	strb.w	r2, [r3, #66]	@ 0x42
 80053f4:	687b      	ldr	r3, [r7, #4]
 80053f6:	2201      	movs	r2, #1
 80053f8:	f883 2043 	strb.w	r2, [r3, #67]	@ 0x43
  TIM_CHANNEL_N_STATE_SET_ALL(htim, HAL_TIM_CHANNEL_STATE_READY);
 80053fc:	687b      	ldr	r3, [r7, #4]
 80053fe:	2201      	movs	r2, #1
 8005400:	f883 2044 	strb.w	r2, [r3, #68]	@ 0x44
 8005404:	687b      	ldr	r3, [r7, #4]
 8005406:	2201      	movs	r2, #1
 8005408:	f883 2045 	strb.w	r2, [r3, #69]	@ 0x45
 800540c:	687b      	ldr	r3, [r7, #4]
 800540e:	2201      	movs	r2, #1
 8005410:	f883 2046 	strb.w	r2, [r3, #70]	@ 0x46
 8005414:	687b      	ldr	r3, [r7, #4]
 8005416:	2201      	movs	r2, #1
 8005418:	f883 2047 	strb.w	r2, [r3, #71]	@ 0x47

  /* Initialize the TIM state*/
  htim->State = HAL_TIM_STATE_READY;
 800541c:	687b      	ldr	r3, [r7, #4]
 800541e:	2201      	movs	r2, #1
 8005420:	f883 203d 	strb.w	r2, [r3, #61]	@ 0x3d

  return HAL_OK;
 8005424:	2300      	movs	r3, #0
}
 8005426:	4618      	mov	r0, r3
 8005428:	3708      	adds	r7, #8
 800542a:	46bd      	mov	sp, r7
 800542c:	bd80      	pop	{r7, pc}
	...

08005430 <HAL_TIM_Base_Start_IT>:
  * @brief  Starts the TIM Base generation in interrupt mode.
  * @param  htim TIM Base handle
  * @retval HAL status
  */
HAL_StatusTypeDef HAL_TIM_Base_Start_IT(TIM_HandleTypeDef *htim)
{
 8005430:	b480      	push	{r7}
 8005432:	b085      	sub	sp, #20
 8005434:	af00      	add	r7, sp, #0
 8005436:	6078      	str	r0, [r7, #4]

  /* Check the parameters */
  assert_param(IS_TIM_INSTANCE(htim->Instance));

  /* Check the TIM state */
  if (htim->State != HAL_TIM_STATE_READY)
 8005438:	687b      	ldr	r3, [r7, #4]
 800543a:	f893 303d 	ldrb.w	r3, [r3, #61]	@ 0x3d
 800543e:	b2db      	uxtb	r3, r3
 8005440:	2b01      	cmp	r3, #1
 8005442:	d001      	beq.n	8005448 <HAL_TIM_Base_Start_IT+0x18>
  {
    return HAL_ERROR;
 8005444:	2301      	movs	r3, #1
 8005446:	e05e      	b.n	8005506 <HAL_TIM_Base_Start_IT+0xd6>
  }

  /* Set the TIM state */
  htim->State = HAL_TIM_STATE_BUSY;
 8005448:	687b      	ldr	r3, [r7, #4]
 800544a:	2202      	movs	r2, #2
 800544c:	f883 203d 	strb.w	r2, [r3, #61]	@ 0x3d

  /* Enable the TIM Update interrupt */
  __HAL_TIM_ENABLE_IT(htim, TIM_IT_UPDATE);
 8005450:	687b      	ldr	r3, [r7, #4]
 8005452:	681b      	ldr	r3, [r3, #0]
 8005454:	68da      	ldr	r2, [r3, #12]
 8005456:	687b      	ldr	r3, [r7, #4]
 8005458:	681b      	ldr	r3, [r3, #0]
 800545a:	f042 0201 	orr.w	r2, r2, #1
 800545e:	60da      	str	r2, [r3, #12]

  /* Enable the Peripheral, except in trigger mode where enable is automatically done with trigger */
  if (IS_TIM_SLAVE_INSTANCE(htim->Instance))
 8005460:	687b      	ldr	r3, [r7, #4]
 8005462:	681b      	ldr	r3, [r3, #0]
 8005464:	4a2b      	ldr	r2, [pc, #172]	@ (8005514 <HAL_TIM_Base_Start_IT+0xe4>)
 8005466:	4293      	cmp	r3, r2
 8005468:	d02c      	beq.n	80054c4 <HAL_TIM_Base_Start_IT+0x94>
 800546a:	687b      	ldr	r3, [r7, #4]
 800546c:	681b      	ldr	r3, [r3, #0]
 800546e:	f1b3 4f80 	cmp.w	r3, #1073741824	@ 0x40000000
 8005472:	d027      	beq.n	80054c4 <HAL_TIM_Base_Start_IT+0x94>
 8005474:	687b      	ldr	r3, [r7, #4]
 8005476:	681b      	ldr	r3, [r3, #0]
 8005478:	4a27      	ldr	r2, [pc, #156]	@ (8005518 <HAL_TIM_Base_Start_IT+0xe8>)
 800547a:	4293      	cmp	r3, r2
 800547c:	d022      	beq.n	80054c4 <HAL_TIM_Base_Start_IT+0x94>
 800547e:	687b      	ldr	r3, [r7, #4]
 8005480:	681b      	ldr	r3, [r3, #0]
 8005482:	4a26      	ldr	r2, [pc, #152]	@ (800551c <HAL_TIM_Base_Start_IT+0xec>)
 8005484:	4293      	cmp	r3, r2
 8005486:	d01d      	beq.n	80054c4 <HAL_TIM_Base_Start_IT+0x94>
 8005488:	687b      	ldr	r3, [r7, #4]
 800548a:	681b      	ldr	r3, [r3, #0]
 800548c:	4a24      	ldr	r2, [pc, #144]	@ (8005520 <HAL_TIM_Base_Start_IT+0xf0>)
 800548e:	4293      	cmp	r3, r2
 8005490:	d018      	beq.n	80054c4 <HAL_TIM_Base_Start_IT+0x94>
 8005492:	687b      	ldr	r3, [r7, #4]
 8005494:	681b      	ldr	r3, [r3, #0]
 8005496:	4a23      	ldr	r2, [pc, #140]	@ (8005524 <HAL_TIM_Base_Start_IT+0xf4>)
 8005498:	4293      	cmp	r3, r2
 800549a:	d013      	beq.n	80054c4 <HAL_TIM_Base_Start_IT+0x94>
 800549c:	687b      	ldr	r3, [r7, #4]
 800549e:	681b      	ldr	r3, [r3, #0]
 80054a0:	4a21      	ldr	r2, [pc, #132]	@ (8005528 <HAL_TIM_Base_Start_IT+0xf8>)
 80054a2:	4293      	cmp	r3, r2
 80054a4:	d00e      	beq.n	80054c4 <HAL_TIM_Base_Start_IT+0x94>
 80054a6:	687b      	ldr	r3, [r7, #4]
 80054a8:	681b      	ldr	r3, [r3, #0]
 80054aa:	4a20      	ldr	r2, [pc, #128]	@ (800552c <HAL_TIM_Base_Start_IT+0xfc>)
 80054ac:	4293      	cmp	r3, r2
 80054ae:	d009      	beq.n	80054c4 <HAL_TIM_Base_Start_IT+0x94>
 80054b0:	687b      	ldr	r3, [r7, #4]
 80054b2:	681b      	ldr	r3, [r3, #0]
 80054b4:	4a1e      	ldr	r2, [pc, #120]	@ (8005530 <HAL_TIM_Base_Start_IT+0x100>)
 80054b6:	4293      	cmp	r3, r2
 80054b8:	d004      	beq.n	80054c4 <HAL_TIM_Base_Start_IT+0x94>
 80054ba:	687b      	ldr	r3, [r7, #4]
 80054bc:	681b      	ldr	r3, [r3, #0]
 80054be:	4a1d      	ldr	r2, [pc, #116]	@ (8005534 <HAL_TIM_Base_Start_IT+0x104>)
 80054c0:	4293      	cmp	r3, r2
 80054c2:	d115      	bne.n	80054f0 <HAL_TIM_Base_Start_IT+0xc0>
  {
    tmpsmcr = htim->Instance->SMCR & TIM_SMCR_SMS;
 80054c4:	687b      	ldr	r3, [r7, #4]
 80054c6:	681b      	ldr	r3, [r3, #0]
 80054c8:	689a      	ldr	r2, [r3, #8]
 80054ca:	4b1b      	ldr	r3, [pc, #108]	@ (8005538 <HAL_TIM_Base_Start_IT+0x108>)
 80054cc:	4013      	ands	r3, r2
 80054ce:	60fb      	str	r3, [r7, #12]
    if (!IS_TIM_SLAVEMODE_TRIGGER_ENABLED(tmpsmcr))
 80054d0:	68fb      	ldr	r3, [r7, #12]
 80054d2:	2b06      	cmp	r3, #6
 80054d4:	d015      	beq.n	8005502 <HAL_TIM_Base_Start_IT+0xd2>
 80054d6:	68fb      	ldr	r3, [r7, #12]
 80054d8:	f5b3 3f80 	cmp.w	r3, #65536	@ 0x10000
 80054dc:	d011      	beq.n	8005502 <HAL_TIM_Base_Start_IT+0xd2>
    {
      __HAL_TIM_ENABLE(htim);
 80054de:	687b      	ldr	r3, [r7, #4]
 80054e0:	681b      	ldr	r3, [r3, #0]
 80054e2:	681a      	ldr	r2, [r3, #0]
 80054e4:	687b      	ldr	r3, [r7, #4]
 80054e6:	681b      	ldr	r3, [r3, #0]
 80054e8:	f042 0201 	orr.w	r2, r2, #1
 80054ec:	601a      	str	r2, [r3, #0]
    if (!IS_TIM_SLAVEMODE_TRIGGER_ENABLED(tmpsmcr))
 80054ee:	e008      	b.n	8005502 <HAL_TIM_Base_Start_IT+0xd2>
    }
  }
  else
  {
    __HAL_TIM_ENABLE(htim);
 80054f0:	687b      	ldr	r3, [r7, #4]
 80054f2:	681b      	ldr	r3, [r3, #0]
 80054f4:	681a      	ldr	r2, [r3, #0]
 80054f6:	687b      	ldr	r3, [r7, #4]
 80054f8:	681b      	ldr	r3, [r3, #0]
 80054fa:	f042 0201 	orr.w	r2, r2, #1
 80054fe:	601a      	str	r2, [r3, #0]
 8005500:	e000      	b.n	8005504 <HAL_TIM_Base_Start_IT+0xd4>
    if (!IS_TIM_SLAVEMODE_TRIGGER_ENABLED(tmpsmcr))
 8005502:	bf00      	nop
  }

  /* Return function status */
  return HAL_OK;
 8005504:	2300      	movs	r3, #0
}
 8005506:	4618      	mov	r0, r3
 8005508:	3714      	adds	r7, #20
 800550a:	46bd      	mov	sp, r7
 800550c:	f85d 7b04 	ldr.w	r7, [sp], #4
 8005510:	4770      	bx	lr
 8005512:	bf00      	nop
 8005514:	40010000 	.word	0x40010000
 8005518:	40000400 	.word	0x40000400
 800551c:	40000800 	.word	0x40000800
 8005520:	40000c00 	.word	0x40000c00
 8005524:	40010400 	.word	0x40010400
 8005528:	40001800 	.word	0x40001800
 800552c:	40014000 	.word	0x40014000
 8005530:	4000e000 	.word	0x4000e000
 8005534:	4000e400 	.word	0x4000e400
 8005538:	00010007 	.word	0x00010007

0800553c <HAL_TIM_IRQHandler>:
  * @brief  This function handles TIM interrupts requests.
  * @param  htim TIM  handle
  * @retval None
  */
void HAL_TIM_IRQHandler(TIM_HandleTypeDef *htim)
{
 800553c:	b580      	push	{r7, lr}
 800553e:	b084      	sub	sp, #16
 8005540:	af00      	add	r7, sp, #0
 8005542:	6078      	str	r0, [r7, #4]
  uint32_t itsource = htim->Instance->DIER;
 8005544:	687b      	ldr	r3, [r7, #4]
 8005546:	681b      	ldr	r3, [r3, #0]
 8005548:	68db      	ldr	r3, [r3, #12]
 800554a:	60fb      	str	r3, [r7, #12]
  uint32_t itflag   = htim->Instance->SR;
 800554c:	687b      	ldr	r3, [r7, #4]
 800554e:	681b      	ldr	r3, [r3, #0]
 8005550:	691b      	ldr	r3, [r3, #16]
 8005552:	60bb      	str	r3, [r7, #8]

  /* Capture compare 1 event */
  if ((itflag & (TIM_FLAG_CC1)) == (TIM_FLAG_CC1))
 8005554:	68bb      	ldr	r3, [r7, #8]
 8005556:	f003 0302 	and.w	r3, r3, #2
 800555a:	2b00      	cmp	r3, #0
 800555c:	d020      	beq.n	80055a0 <HAL_TIM_IRQHandler+0x64>
  {
    if ((itsource & (TIM_IT_CC1)) == (TIM_IT_CC1))
 800555e:	68fb      	ldr	r3, [r7, #12]
 8005560:	f003 0302 	and.w	r3, r3, #2
 8005564:	2b00      	cmp	r3, #0
 8005566:	d01b      	beq.n	80055a0 <HAL_TIM_IRQHandler+0x64>
    {
      {
        __HAL_TIM_CLEAR_FLAG(htim, TIM_FLAG_CC1);
 8005568:	687b      	ldr	r3, [r7, #4]
 800556a:	681b      	ldr	r3, [r3, #0]
 800556c:	f06f 0202 	mvn.w	r2, #2
 8005570:	611a      	str	r2, [r3, #16]
        htim->Channel = HAL_TIM_ACTIVE_CHANNEL_1;
 8005572:	687b      	ldr	r3, [r7, #4]
 8005574:	2201      	movs	r2, #1
 8005576:	771a      	strb	r2, [r3, #28]

        /* Input capture event */
        if ((htim->Instance->CCMR1 & TIM_CCMR1_CC1S) != 0x00U)
 8005578:	687b      	ldr	r3, [r7, #4]
 800557a:	681b      	ldr	r3, [r3, #0]
 800557c:	699b      	ldr	r3, [r3, #24]
 800557e:	f003 0303 	and.w	r3, r3, #3
 8005582:	2b00      	cmp	r3, #0
 8005584:	d003      	beq.n	800558e <HAL_TIM_IRQHandler+0x52>
        {
#if (USE_HAL_TIM_REGISTER_CALLBACKS == 1)
          htim->IC_CaptureCallback(htim);
#else
          HAL_TIM_IC_CaptureCallback(htim);
 8005586:	6878      	ldr	r0, [r7, #4]
 8005588:	f000 f8e9 	bl	800575e <HAL_TIM_IC_CaptureCallback>
 800558c:	e005      	b.n	800559a <HAL_TIM_IRQHandler+0x5e>
        {
#if (USE_HAL_TIM_REGISTER_CALLBACKS == 1)
          htim->OC_DelayElapsedCallback(htim);
          htim->PWM_PulseFinishedCallback(htim);
#else
          HAL_TIM_OC_DelayElapsedCallback(htim);
 800558e:	6878      	ldr	r0, [r7, #4]
 8005590:	f000 f8db 	bl	800574a <HAL_TIM_OC_DelayElapsedCallback>
          HAL_TIM_PWM_PulseFinishedCallback(htim);
 8005594:	6878      	ldr	r0, [r7, #4]
 8005596:	f000 f8ec 	bl	8005772 <HAL_TIM_PWM_PulseFinishedCallback>
#endif /* USE_HAL_TIM_REGISTER_CALLBACKS */
        }
        htim->Channel = HAL_TIM_ACTIVE_CHANNEL_CLEARED;
 800559a:	687b      	ldr	r3, [r7, #4]
 800559c:	2200      	movs	r2, #0
 800559e:	771a      	strb	r2, [r3, #28]
      }
    }
  }
  /* Capture compare 2 event */
  if ((itflag & (TIM_FLAG_CC2)) == (TIM_FLAG_CC2))
 80055a0:	68bb      	ldr	r3, [r7, #8]
 80055a2:	f003 0304 	and.w	r3, r3, #4
 80055a6:	2b00      	cmp	r3, #0
 80055a8:	d020      	beq.n	80055ec <HAL_TIM_IRQHandler+0xb0>
  {
    if ((itsource & (TIM_IT_CC2)) == (TIM_IT_CC2))
 80055aa:	68fb      	ldr	r3, [r7, #12]
 80055ac:	f003 0304 	and.w	r3, r3, #4
 80055b0:	2b00      	cmp	r3, #0
 80055b2:	d01b      	beq.n	80055ec <HAL_TIM_IRQHandler+0xb0>
    {
      __HAL_TIM_CLEAR_FLAG(htim, TIM_FLAG_CC2);
 80055b4:	687b      	ldr	r3, [r7, #4]
 80055b6:	681b      	ldr	r3, [r3, #0]
 80055b8:	f06f 0204 	mvn.w	r2, #4
 80055bc:	611a      	str	r2, [r3, #16]
      htim->Channel = HAL_TIM_ACTIVE_CHANNEL_2;
 80055be:	687b      	ldr	r3, [r7, #4]
 80055c0:	2202      	movs	r2, #2
 80055c2:	771a      	strb	r2, [r3, #28]
      /* Input capture event */
      if ((htim->Instance->CCMR1 & TIM_CCMR1_CC2S) != 0x00U)
 80055c4:	687b      	ldr	r3, [r7, #4]
 80055c6:	681b      	ldr	r3, [r3, #0]
 80055c8:	699b      	ldr	r3, [r3, #24]
 80055ca:	f403 7340 	and.w	r3, r3, #768	@ 0x300
 80055ce:	2b00      	cmp	r3, #0
 80055d0:	d003      	beq.n	80055da <HAL_TIM_IRQHandler+0x9e>
      {
#if (USE_HAL_TIM_REGISTER_CALLBACKS == 1)
        htim->IC_CaptureCallback(htim);
#else
        HAL_TIM_IC_CaptureCallback(htim);
 80055d2:	6878      	ldr	r0, [r7, #4]
 80055d4:	f000 f8c3 	bl	800575e <HAL_TIM_IC_CaptureCallback>
 80055d8:	e005      	b.n	80055e6 <HAL_TIM_IRQHandler+0xaa>
      {
#if (USE_HAL_TIM_REGISTER_CALLBACKS == 1)
        htim->OC_DelayElapsedCallback(htim);
        htim->PWM_PulseFinishedCallback(htim);
#else
        HAL_TIM_OC_DelayElapsedCallback(htim);
 80055da:	6878      	ldr	r0, [r7, #4]
 80055dc:	f000 f8b5 	bl	800574a <HAL_TIM_OC_DelayElapsedCallback>
        HAL_TIM_PWM_PulseFinishedCallback(htim);
 80055e0:	6878      	ldr	r0, [r7, #4]
 80055e2:	f000 f8c6 	bl	8005772 <HAL_TIM_PWM_PulseFinishedCallback>
#endif /* USE_HAL_TIM_REGISTER_CALLBACKS */
      }
      htim->Channel = HAL_TIM_ACTIVE_CHANNEL_CLEARED;
 80055e6:	687b      	ldr	r3, [r7, #4]
 80055e8:	2200      	movs	r2, #0
 80055ea:	771a      	strb	r2, [r3, #28]
    }
  }
  /* Capture compare 3 event */
  if ((itflag & (TIM_FLAG_CC3)) == (TIM_FLAG_CC3))
 80055ec:	68bb      	ldr	r3, [r7, #8]
 80055ee:	f003 0308 	and.w	r3, r3, #8
 80055f2:	2b00      	cmp	r3, #0
 80055f4:	d020      	beq.n	8005638 <HAL_TIM_IRQHandler+0xfc>
  {
    if ((itsource & (TIM_IT_CC3)) == (TIM_IT_CC3))
 80055f6:	68fb      	ldr	r3, [r7, #12]
 80055f8:	f003 0308 	and.w	r3, r3, #8
 80055fc:	2b00      	cmp	r3, #0
 80055fe:	d01b      	beq.n	8005638 <HAL_TIM_IRQHandler+0xfc>
    {
      __HAL_TIM_CLEAR_FLAG(htim, TIM_FLAG_CC3);
 8005600:	687b      	ldr	r3, [r7, #4]
 8005602:	681b      	ldr	r3, [r3, #0]
 8005604:	f06f 0208 	mvn.w	r2, #8
 8005608:	611a      	str	r2, [r3, #16]
      htim->Channel = HAL_TIM_ACTIVE_CHANNEL_3;
 800560a:	687b      	ldr	r3, [r7, #4]
 800560c:	2204      	movs	r2, #4
 800560e:	771a      	strb	r2, [r3, #28]
      /* Input capture event */
      if ((htim->Instance->CCMR2 & TIM_CCMR2_CC3S) != 0x00U)
 8005610:	687b      	ldr	r3, [r7, #4]
 8005612:	681b      	ldr	r3, [r3, #0]
 8005614:	69db      	ldr	r3, [r3, #28]
 8005616:	f003 0303 	and.w	r3, r3, #3
 800561a:	2b00      	cmp	r3, #0
 800561c:	d003      	beq.n	8005626 <HAL_TIM_IRQHandler+0xea>
      {
#if (USE_HAL_TIM_REGISTER_CALLBACKS == 1)
        htim->IC_CaptureCallback(htim);
#else
        HAL_TIM_IC_CaptureCallback(htim);
 800561e:	6878      	ldr	r0, [r7, #4]
 8005620:	f000 f89d 	bl	800575e <HAL_TIM_IC_CaptureCallback>
 8005624:	e005      	b.n	8005632 <HAL_TIM_IRQHandler+0xf6>
      {
#if (USE_HAL_TIM_REGISTER_CALLBACKS == 1)
        htim->OC_DelayElapsedCallback(htim);
        htim->PWM_PulseFinishedCallback(htim);
#else
        HAL_TIM_OC_DelayElapsedCallback(htim);
 8005626:	6878      	ldr	r0, [r7, #4]
 8005628:	f000 f88f 	bl	800574a <HAL_TIM_OC_DelayElapsedCallback>
        HAL_TIM_PWM_PulseFinishedCallback(htim);
 800562c:	6878      	ldr	r0, [r7, #4]
 800562e:	f000 f8a0 	bl	8005772 <HAL_TIM_PWM_PulseFinishedCallback>
#endif /* USE_HAL_TIM_REGISTER_CALLBACKS */
      }
      htim->Channel = HAL_TIM_ACTIVE_CHANNEL_CLEARED;
 8005632:	687b      	ldr	r3, [r7, #4]
 8005634:	2200      	movs	r2, #0
 8005636:	771a      	strb	r2, [r3, #28]
    }
  }
  /* Capture compare 4 event */
  if ((itflag & (TIM_FLAG_CC4)) == (TIM_FLAG_CC4))
 8005638:	68bb      	ldr	r3, [r7, #8]
 800563a:	f003 0310 	and.w	r3, r3, #16
 800563e:	2b00      	cmp	r3, #0
 8005640:	d020      	beq.n	8005684 <HAL_TIM_IRQHandler+0x148>
  {
    if ((itsource & (TIM_IT_CC4)) == (TIM_IT_CC4))
 8005642:	68fb      	ldr	r3, [r7, #12]
 8005644:	f003 0310 	and.w	r3, r3, #16
 8005648:	2b00      	cmp	r3, #0
 800564a:	d01b      	beq.n	8005684 <HAL_TIM_IRQHandler+0x148>
    {
      __HAL_TIM_CLEAR_FLAG(htim, TIM_FLAG_CC4);
 800564c:	687b      	ldr	r3, [r7, #4]
 800564e:	681b      	ldr	r3, [r3, #0]
 8005650:	f06f 0210 	mvn.w	r2, #16
 8005654:	611a      	str	r2, [r3, #16]
      htim->Channel = HAL_TIM_ACTIVE_CHANNEL_4;
 8005656:	687b      	ldr	r3, [r7, #4]
 8005658:	2208      	movs	r2, #8
 800565a:	771a      	strb	r2, [r3, #28]
      /* Input capture event */
      if ((htim->Instance->CCMR2 & TIM_CCMR2_CC4S) != 0x00U)
 800565c:	687b      	ldr	r3, [r7, #4]
 800565e:	681b      	ldr	r3, [r3, #0]
 8005660:	69db      	ldr	r3, [r3, #28]
 8005662:	f403 7340 	and.w	r3, r3, #768	@ 0x300
 8005666:	2b00      	cmp	r3, #0
 8005668:	d003      	beq.n	8005672 <HAL_TIM_IRQHandler+0x136>
      {
#if (USE_HAL_TIM_REGISTER_CALLBACKS == 1)
        htim->IC_CaptureCallback(htim);
#else
        HAL_TIM_IC_CaptureCallback(htim);
 800566a:	6878      	ldr	r0, [r7, #4]
 800566c:	f000 f877 	bl	800575e <HAL_TIM_IC_CaptureCallback>
 8005670:	e005      	b.n	800567e <HAL_TIM_IRQHandler+0x142>
      {
#if (USE_HAL_TIM_REGISTER_CALLBACKS == 1)
        htim->OC_DelayElapsedCallback(htim);
        htim->PWM_PulseFinishedCallback(htim);
#else
        HAL_TIM_OC_DelayElapsedCallback(htim);
 8005672:	6878      	ldr	r0, [r7, #4]
 8005674:	f000 f869 	bl	800574a <HAL_TIM_OC_DelayElapsedCallback>
        HAL_TIM_PWM_PulseFinishedCallback(htim);
 8005678:	6878      	ldr	r0, [r7, #4]
 800567a:	f000 f87a 	bl	8005772 <HAL_TIM_PWM_PulseFinishedCallback>
#endif /* USE_HAL_TIM_REGISTER_CALLBACKS */
      }
      htim->Channel = HAL_TIM_ACTIVE_CHANNEL_CLEARED;
 800567e:	687b      	ldr	r3, [r7, #4]
 8005680:	2200      	movs	r2, #0
 8005682:	771a      	strb	r2, [r3, #28]
    }
  }
  /* TIM Update event */
  if ((itflag & (TIM_FLAG_UPDATE)) == (TIM_FLAG_UPDATE))
 8005684:	68bb      	ldr	r3, [r7, #8]
 8005686:	f003 0301 	and.w	r3, r3, #1
 800568a:	2b00      	cmp	r3, #0
 800568c:	d00c      	beq.n	80056a8 <HAL_TIM_IRQHandler+0x16c>
  {
    if ((itsource & (TIM_IT_UPDATE)) == (TIM_IT_UPDATE))
 800568e:	68fb      	ldr	r3, [r7, #12]
 8005690:	f003 0301 	and.w	r3, r3, #1
 8005694:	2b00      	cmp	r3, #0
 8005696:	d007      	beq.n	80056a8 <HAL_TIM_IRQHandler+0x16c>
    {
      __HAL_TIM_CLEAR_FLAG(htim, TIM_FLAG_UPDATE);
 8005698:	687b      	ldr	r3, [r7, #4]
 800569a:	681b      	ldr	r3, [r3, #0]
 800569c:	f06f 0201 	mvn.w	r2, #1
 80056a0:	611a      	str	r2, [r3, #16]
#if (USE_HAL_TIM_REGISTER_CALLBACKS == 1)
      htim->PeriodElapsedCallback(htim);
#else
      HAL_TIM_PeriodElapsedCallback(htim);
 80056a2:	6878      	ldr	r0, [r7, #4]
 80056a4:	f7fa ffcc 	bl	8000640 <HAL_TIM_PeriodElapsedCallback>
#endif /* USE_HAL_TIM_REGISTER_CALLBACKS */
    }
  }
  /* TIM Break input event */
  if (((itflag & (TIM_FLAG_BREAK)) == (TIM_FLAG_BREAK)) || \
 80056a8:	68bb      	ldr	r3, [r7, #8]
 80056aa:	f003 0380 	and.w	r3, r3, #128	@ 0x80
 80056ae:	2b00      	cmp	r3, #0
 80056b0:	d104      	bne.n	80056bc <HAL_TIM_IRQHandler+0x180>
      ((itflag & (TIM_FLAG_SYSTEM_BREAK)) == (TIM_FLAG_SYSTEM_BREAK)))
 80056b2:	68bb      	ldr	r3, [r7, #8]
 80056b4:	f403 5300 	and.w	r3, r3, #8192	@ 0x2000
  if (((itflag & (TIM_FLAG_BREAK)) == (TIM_FLAG_BREAK)) || \
 80056b8:	2b00      	cmp	r3, #0
 80056ba:	d00c      	beq.n	80056d6 <HAL_TIM_IRQHandler+0x19a>
  {
    if ((itsource & (TIM_IT_BREAK)) == (TIM_IT_BREAK))
 80056bc:	68fb      	ldr	r3, [r7, #12]
 80056be:	f003 0380 	and.w	r3, r3, #128	@ 0x80
 80056c2:	2b00      	cmp	r3, #0
 80056c4:	d007      	beq.n	80056d6 <HAL_TIM_IRQHandler+0x19a>
    {
      __HAL_TIM_CLEAR_FLAG(htim, TIM_FLAG_BREAK | TIM_FLAG_SYSTEM_BREAK);
 80056c6:	687b      	ldr	r3, [r7, #4]
 80056c8:	681b      	ldr	r3, [r3, #0]
 80056ca:	f46f 5202 	mvn.w	r2, #8320	@ 0x2080
 80056ce:	611a      	str	r2, [r3, #16]
#if (USE_HAL_TIM_REGISTER_CALLBACKS == 1)
      htim->BreakCallback(htim);
#else
      HAL_TIMEx_BreakCallback(htim);
 80056d0:	6878      	ldr	r0, [r7, #4]
 80056d2:	f000 f9b5 	bl	8005a40 <HAL_TIMEx_BreakCallback>
#endif /* USE_HAL_TIM_REGISTER_CALLBACKS */
    }
  }
  /* TIM Break2 input event */
  if ((itflag & (TIM_FLAG_BREAK2)) == (TIM_FLAG_BREAK2))
 80056d6:	68bb      	ldr	r3, [r7, #8]
 80056d8:	f403 7380 	and.w	r3, r3, #256	@ 0x100
 80056dc:	2b00      	cmp	r3, #0
 80056de:	d00c      	beq.n	80056fa <HAL_TIM_IRQHandler+0x1be>
  {
    if ((itsource & (TIM_IT_BREAK)) == (TIM_IT_BREAK))
 80056e0:	68fb      	ldr	r3, [r7, #12]
 80056e2:	f003 0380 	and.w	r3, r3, #128	@ 0x80
 80056e6:	2b00      	cmp	r3, #0
 80056e8:	d007      	beq.n	80056fa <HAL_TIM_IRQHandler+0x1be>
    {
      __HAL_TIM_CLEAR_FLAG(htim, TIM_FLAG_BREAK2);
 80056ea:	687b      	ldr	r3, [r7, #4]
 80056ec:	681b      	ldr	r3, [r3, #0]
 80056ee:	f46f 7280 	mvn.w	r2, #256	@ 0x100
 80056f2:	611a      	str	r2, [r3, #16]
#if (USE_HAL_TIM_REGISTER_CALLBACKS == 1)
      htim->Break2Callback(htim);
#else
      HAL_TIMEx_Break2Callback(htim);
 80056f4:	6878      	ldr	r0, [r7, #4]
 80056f6:	f000 f9ad 	bl	8005a54 <HAL_TIMEx_Break2Callback>
#endif /* USE_HAL_TIM_REGISTER_CALLBACKS */
    }
  }
  /* TIM Trigger detection event */
  if ((itflag & (TIM_FLAG_TRIGGER)) == (TIM_FLAG_TRIGGER))
 80056fa:	68bb      	ldr	r3, [r7, #8]
 80056fc:	f003 0340 	and.w	r3, r3, #64	@ 0x40
 8005700:	2b00      	cmp	r3, #0
 8005702:	d00c      	beq.n	800571e <HAL_TIM_IRQHandler+0x1e2>
  {
    if ((itsource & (TIM_IT_TRIGGER)) == (TIM_IT_TRIGGER))
 8005704:	68fb      	ldr	r3, [r7, #12]
 8005706:	f003 0340 	and.w	r3, r3, #64	@ 0x40
 800570a:	2b00      	cmp	r3, #0
 800570c:	d007      	beq.n	800571e <HAL_TIM_IRQHandler+0x1e2>
    {
      __HAL_TIM_CLEAR_FLAG(htim, TIM_FLAG_TRIGGER);
 800570e:	687b      	ldr	r3, [r7, #4]
 8005710:	681b      	ldr	r3, [r3, #0]
 8005712:	f06f 0240 	mvn.w	r2, #64	@ 0x40
 8005716:	611a      	str	r2, [r3, #16]
#if (USE_HAL_TIM_REGISTER_CALLBACKS == 1)
      htim->TriggerCallback(htim);
#else
      HAL_TIM_TriggerCallback(htim);
 8005718:	6878      	ldr	r0, [r7, #4]
 800571a:	f000 f834 	bl	8005786 <HAL_TIM_TriggerCallback>
#endif /* USE_HAL_TIM_REGISTER_CALLBACKS */
    }
  }
  /* TIM commutation event */
  if ((itflag & (TIM_FLAG_COM)) == (TIM_FLAG_COM))
 800571e:	68bb      	ldr	r3, [r7, #8]
 8005720:	f003 0320 	and.w	r3, r3, #32
 8005724:	2b00      	cmp	r3, #0
 8005726:	d00c      	beq.n	8005742 <HAL_TIM_IRQHandler+0x206>
  {
    if ((itsource & (TIM_IT_COM)) == (TIM_IT_COM))
 8005728:	68fb      	ldr	r3, [r7, #12]
 800572a:	f003 0320 	and.w	r3, r3, #32
 800572e:	2b00      	cmp	r3, #0
 8005730:	d007      	beq.n	8005742 <HAL_TIM_IRQHandler+0x206>
    {
      __HAL_TIM_CLEAR_FLAG(htim, TIM_FLAG_COM);
 8005732:	687b      	ldr	r3, [r7, #4]
 8005734:	681b      	ldr	r3, [r3, #0]
 8005736:	f06f 0220 	mvn.w	r2, #32
 800573a:	611a      	str	r2, [r3, #16]
#if (USE_HAL_TIM_REGISTER_CALLBACKS == 1)
      htim->CommutationCallback(htim);
#else
      HAL_TIMEx_CommutCallback(htim);
 800573c:	6878      	ldr	r0, [r7, #4]
 800573e:	f000 f975 	bl	8005a2c <HAL_TIMEx_CommutCallback>
#endif /* USE_HAL_TIM_REGISTER_CALLBACKS */
    }
  }
}
 8005742:	bf00      	nop
 8005744:	3710      	adds	r7, #16
 8005746:	46bd      	mov	sp, r7
 8005748:	bd80      	pop	{r7, pc}

0800574a <HAL_TIM_OC_DelayElapsedCallback>:
  * @brief  Output Compare callback in non-blocking mode
  * @param  htim TIM OC handle
  * @retval None
  */
__weak void HAL_TIM_OC_DelayElapsedCallback(TIM_HandleTypeDef *htim)
{
 800574a:	b480      	push	{r7}
 800574c:	b083      	sub	sp, #12
 800574e:	af00      	add	r7, sp, #0
 8005750:	6078      	str	r0, [r7, #4]
  UNUSED(htim);

  /* NOTE : This function should not be modified, when the callback is needed,
            the HAL_TIM_OC_DelayElapsedCallback could be implemented in the user file
   */
}
 8005752:	bf00      	nop
 8005754:	370c      	adds	r7, #12
 8005756:	46bd      	mov	sp, r7
 8005758:	f85d 7b04 	ldr.w	r7, [sp], #4
 800575c:	4770      	bx	lr

0800575e <HAL_TIM_IC_CaptureCallback>:
  * @brief  Input Capture callback in non-blocking mode
  * @param  htim TIM IC handle
  * @retval None
  */
__weak void HAL_TIM_IC_CaptureCallback(TIM_HandleTypeDef *htim)
{
 800575e:	b480      	push	{r7}
 8005760:	b083      	sub	sp, #12
 8005762:	af00      	add	r7, sp, #0
 8005764:	6078      	str	r0, [r7, #4]
  UNUSED(htim);

  /* NOTE : This function should not be modified, when the callback is needed,
            the HAL_TIM_IC_CaptureCallback could be implemented in the user file
   */
}
 8005766:	bf00      	nop
 8005768:	370c      	adds	r7, #12
 800576a:	46bd      	mov	sp, r7
 800576c:	f85d 7b04 	ldr.w	r7, [sp], #4
 8005770:	4770      	bx	lr

08005772 <HAL_TIM_PWM_PulseFinishedCallback>:
  * @brief  PWM Pulse finished callback in non-blocking mode
  * @param  htim TIM handle
  * @retval None
  */
__weak void HAL_TIM_PWM_PulseFinishedCallback(TIM_HandleTypeDef *htim)
{
 8005772:	b480      	push	{r7}
 8005774:	b083      	sub	sp, #12
 8005776:	af00      	add	r7, sp, #0
 8005778:	6078      	str	r0, [r7, #4]
  UNUSED(htim);

  /* NOTE : This function should not be modified, when the callback is needed,
            the HAL_TIM_PWM_PulseFinishedCallback could be implemented in the user file
   */
}
 800577a:	bf00      	nop
 800577c:	370c      	adds	r7, #12
 800577e:	46bd      	mov	sp, r7
 8005780:	f85d 7b04 	ldr.w	r7, [sp], #4
 8005784:	4770      	bx	lr

08005786 <HAL_TIM_TriggerCallback>:
  * @brief  Hall Trigger detection callback in non-blocking mode
  * @param  htim TIM handle
  * @retval None
  */
__weak void HAL_TIM_TriggerCallback(TIM_HandleTypeDef *htim)
{
 8005786:	b480      	push	{r7}
 8005788:	b083      	sub	sp, #12
 800578a:	af00      	add	r7, sp, #0
 800578c:	6078      	str	r0, [r7, #4]
  UNUSED(htim);

  /* NOTE : This function should not be modified, when the callback is needed,
            the HAL_TIM_TriggerCallback could be implemented in the user file
   */
}
 800578e:	bf00      	nop
 8005790:	370c      	adds	r7, #12
 8005792:	46bd      	mov	sp, r7
 8005794:	f85d 7b04 	ldr.w	r7, [sp], #4
 8005798:	4770      	bx	lr
	...

0800579c <TIM_Base_SetConfig>:
  * @param  TIMx TIM peripheral
  * @param  Structure TIM Base configuration structure
  * @retval None
  */
void TIM_Base_SetConfig(TIM_TypeDef *TIMx, const TIM_Base_InitTypeDef *Structure)
{
 800579c:	b480      	push	{r7}
 800579e:	b085      	sub	sp, #20
 80057a0:	af00      	add	r7, sp, #0
 80057a2:	6078      	str	r0, [r7, #4]
 80057a4:	6039      	str	r1, [r7, #0]
  uint32_t tmpcr1;
  tmpcr1 = TIMx->CR1;
 80057a6:	687b      	ldr	r3, [r7, #4]
 80057a8:	681b      	ldr	r3, [r3, #0]
 80057aa:	60fb      	str	r3, [r7, #12]

  /* Set TIM Time Base Unit parameters ---------------------------------------*/
  if (IS_TIM_COUNTER_MODE_SELECT_INSTANCE(TIMx))
 80057ac:	687b      	ldr	r3, [r7, #4]
 80057ae:	4a47      	ldr	r2, [pc, #284]	@ (80058cc <TIM_Base_SetConfig+0x130>)
 80057b0:	4293      	cmp	r3, r2
 80057b2:	d013      	beq.n	80057dc <TIM_Base_SetConfig+0x40>
 80057b4:	687b      	ldr	r3, [r7, #4]
 80057b6:	f1b3 4f80 	cmp.w	r3, #1073741824	@ 0x40000000
 80057ba:	d00f      	beq.n	80057dc <TIM_Base_SetConfig+0x40>
 80057bc:	687b      	ldr	r3, [r7, #4]
 80057be:	4a44      	ldr	r2, [pc, #272]	@ (80058d0 <TIM_Base_SetConfig+0x134>)
 80057c0:	4293      	cmp	r3, r2
 80057c2:	d00b      	beq.n	80057dc <TIM_Base_SetConfig+0x40>
 80057c4:	687b      	ldr	r3, [r7, #4]
 80057c6:	4a43      	ldr	r2, [pc, #268]	@ (80058d4 <TIM_Base_SetConfig+0x138>)
 80057c8:	4293      	cmp	r3, r2
 80057ca:	d007      	beq.n	80057dc <TIM_Base_SetConfig+0x40>
 80057cc:	687b      	ldr	r3, [r7, #4]
 80057ce:	4a42      	ldr	r2, [pc, #264]	@ (80058d8 <TIM_Base_SetConfig+0x13c>)
 80057d0:	4293      	cmp	r3, r2
 80057d2:	d003      	beq.n	80057dc <TIM_Base_SetConfig+0x40>
 80057d4:	687b      	ldr	r3, [r7, #4]
 80057d6:	4a41      	ldr	r2, [pc, #260]	@ (80058dc <TIM_Base_SetConfig+0x140>)
 80057d8:	4293      	cmp	r3, r2
 80057da:	d108      	bne.n	80057ee <TIM_Base_SetConfig+0x52>
  {
    /* Select the Counter Mode */
    tmpcr1 &= ~(TIM_CR1_DIR | TIM_CR1_CMS);
 80057dc:	68fb      	ldr	r3, [r7, #12]
 80057de:	f023 0370 	bic.w	r3, r3, #112	@ 0x70
 80057e2:	60fb      	str	r3, [r7, #12]
    tmpcr1 |= Structure->CounterMode;
 80057e4:	683b      	ldr	r3, [r7, #0]
 80057e6:	685b      	ldr	r3, [r3, #4]
 80057e8:	68fa      	ldr	r2, [r7, #12]
 80057ea:	4313      	orrs	r3, r2
 80057ec:	60fb      	str	r3, [r7, #12]
  }

  if (IS_TIM_CLOCK_DIVISION_INSTANCE(TIMx))
 80057ee:	687b      	ldr	r3, [r7, #4]
 80057f0:	4a36      	ldr	r2, [pc, #216]	@ (80058cc <TIM_Base_SetConfig+0x130>)
 80057f2:	4293      	cmp	r3, r2
 80057f4:	d027      	beq.n	8005846 <TIM_Base_SetConfig+0xaa>
 80057f6:	687b      	ldr	r3, [r7, #4]
 80057f8:	f1b3 4f80 	cmp.w	r3, #1073741824	@ 0x40000000
 80057fc:	d023      	beq.n	8005846 <TIM_Base_SetConfig+0xaa>
 80057fe:	687b      	ldr	r3, [r7, #4]
 8005800:	4a33      	ldr	r2, [pc, #204]	@ (80058d0 <TIM_Base_SetConfig+0x134>)
 8005802:	4293      	cmp	r3, r2
 8005804:	d01f      	beq.n	8005846 <TIM_Base_SetConfig+0xaa>
 8005806:	687b      	ldr	r3, [r7, #4]
 8005808:	4a32      	ldr	r2, [pc, #200]	@ (80058d4 <TIM_Base_SetConfig+0x138>)
 800580a:	4293      	cmp	r3, r2
 800580c:	d01b      	beq.n	8005846 <TIM_Base_SetConfig+0xaa>
 800580e:	687b      	ldr	r3, [r7, #4]
 8005810:	4a31      	ldr	r2, [pc, #196]	@ (80058d8 <TIM_Base_SetConfig+0x13c>)
 8005812:	4293      	cmp	r3, r2
 8005814:	d017      	beq.n	8005846 <TIM_Base_SetConfig+0xaa>
 8005816:	687b      	ldr	r3, [r7, #4]
 8005818:	4a30      	ldr	r2, [pc, #192]	@ (80058dc <TIM_Base_SetConfig+0x140>)
 800581a:	4293      	cmp	r3, r2
 800581c:	d013      	beq.n	8005846 <TIM_Base_SetConfig+0xaa>
 800581e:	687b      	ldr	r3, [r7, #4]
 8005820:	4a2f      	ldr	r2, [pc, #188]	@ (80058e0 <TIM_Base_SetConfig+0x144>)
 8005822:	4293      	cmp	r3, r2
 8005824:	d00f      	beq.n	8005846 <TIM_Base_SetConfig+0xaa>
 8005826:	687b      	ldr	r3, [r7, #4]
 8005828:	4a2e      	ldr	r2, [pc, #184]	@ (80058e4 <TIM_Base_SetConfig+0x148>)
 800582a:	4293      	cmp	r3, r2
 800582c:	d00b      	beq.n	8005846 <TIM_Base_SetConfig+0xaa>
 800582e:	687b      	ldr	r3, [r7, #4]
 8005830:	4a2d      	ldr	r2, [pc, #180]	@ (80058e8 <TIM_Base_SetConfig+0x14c>)
 8005832:	4293      	cmp	r3, r2
 8005834:	d007      	beq.n	8005846 <TIM_Base_SetConfig+0xaa>
 8005836:	687b      	ldr	r3, [r7, #4]
 8005838:	4a2c      	ldr	r2, [pc, #176]	@ (80058ec <TIM_Base_SetConfig+0x150>)
 800583a:	4293      	cmp	r3, r2
 800583c:	d003      	beq.n	8005846 <TIM_Base_SetConfig+0xaa>
 800583e:	687b      	ldr	r3, [r7, #4]
 8005840:	4a2b      	ldr	r2, [pc, #172]	@ (80058f0 <TIM_Base_SetConfig+0x154>)
 8005842:	4293      	cmp	r3, r2
 8005844:	d108      	bne.n	8005858 <TIM_Base_SetConfig+0xbc>
  {
    /* Set the clock division */
    tmpcr1 &= ~TIM_CR1_CKD;
 8005846:	68fb      	ldr	r3, [r7, #12]
 8005848:	f423 7340 	bic.w	r3, r3, #768	@ 0x300
 800584c:	60fb      	str	r3, [r7, #12]
    tmpcr1 |= (uint32_t)Structure->ClockDivision;
 800584e:	683b      	ldr	r3, [r7, #0]
 8005850:	68db      	ldr	r3, [r3, #12]
 8005852:	68fa      	ldr	r2, [r7, #12]
 8005854:	4313      	orrs	r3, r2
 8005856:	60fb      	str	r3, [r7, #12]
  }

  /* Set the auto-reload preload */
  MODIFY_REG(tmpcr1, TIM_CR1_ARPE, Structure->AutoReloadPreload);
 8005858:	68fb      	ldr	r3, [r7, #12]
 800585a:	f023 0280 	bic.w	r2, r3, #128	@ 0x80
 800585e:	683b      	ldr	r3, [r7, #0]
 8005860:	695b      	ldr	r3, [r3, #20]
 8005862:	4313      	orrs	r3, r2
 8005864:	60fb      	str	r3, [r7, #12]

  /* Set the Autoreload value */
  TIMx->ARR = (uint32_t)Structure->Period ;
 8005866:	683b      	ldr	r3, [r7, #0]
 8005868:	689a      	ldr	r2, [r3, #8]
 800586a:	687b      	ldr	r3, [r7, #4]
 800586c:	62da      	str	r2, [r3, #44]	@ 0x2c

  /* Set the Prescaler value */
  TIMx->PSC = Structure->Prescaler;
 800586e:	683b      	ldr	r3, [r7, #0]
 8005870:	681a      	ldr	r2, [r3, #0]
 8005872:	687b      	ldr	r3, [r7, #4]
 8005874:	629a      	str	r2, [r3, #40]	@ 0x28

  if (IS_TIM_REPETITION_COUNTER_INSTANCE(TIMx))
 8005876:	687b      	ldr	r3, [r7, #4]
 8005878:	4a14      	ldr	r2, [pc, #80]	@ (80058cc <TIM_Base_SetConfig+0x130>)
 800587a:	4293      	cmp	r3, r2
 800587c:	d00f      	beq.n	800589e <TIM_Base_SetConfig+0x102>
 800587e:	687b      	ldr	r3, [r7, #4]
 8005880:	4a16      	ldr	r2, [pc, #88]	@ (80058dc <TIM_Base_SetConfig+0x140>)
 8005882:	4293      	cmp	r3, r2
 8005884:	d00b      	beq.n	800589e <TIM_Base_SetConfig+0x102>
 8005886:	687b      	ldr	r3, [r7, #4]
 8005888:	4a15      	ldr	r2, [pc, #84]	@ (80058e0 <TIM_Base_SetConfig+0x144>)
 800588a:	4293      	cmp	r3, r2
 800588c:	d007      	beq.n	800589e <TIM_Base_SetConfig+0x102>
 800588e:	687b      	ldr	r3, [r7, #4]
 8005890:	4a14      	ldr	r2, [pc, #80]	@ (80058e4 <TIM_Base_SetConfig+0x148>)
 8005892:	4293      	cmp	r3, r2
 8005894:	d003      	beq.n	800589e <TIM_Base_SetConfig+0x102>
 8005896:	687b      	ldr	r3, [r7, #4]
 8005898:	4a13      	ldr	r2, [pc, #76]	@ (80058e8 <TIM_Base_SetConfig+0x14c>)
 800589a:	4293      	cmp	r3, r2
 800589c:	d103      	bne.n	80058a6 <TIM_Base_SetConfig+0x10a>
  {
    /* Set the Repetition Counter value */
    TIMx->RCR = Structure->RepetitionCounter;
 800589e:	683b      	ldr	r3, [r7, #0]
 80058a0:	691a      	ldr	r2, [r3, #16]
 80058a2:	687b      	ldr	r3, [r7, #4]
 80058a4:	631a      	str	r2, [r3, #48]	@ 0x30
  }

  /* Disable Update Event (UEV) with Update Generation (UG)
     by changing Update Request Source (URS) to avoid Update flag (UIF) */
  SET_BIT(TIMx->CR1, TIM_CR1_URS);
 80058a6:	687b      	ldr	r3, [r7, #4]
 80058a8:	681b      	ldr	r3, [r3, #0]
 80058aa:	f043 0204 	orr.w	r2, r3, #4
 80058ae:	687b      	ldr	r3, [r7, #4]
 80058b0:	601a      	str	r2, [r3, #0]

  /* Generate an update event to reload the Prescaler
     and the repetition counter (only for advanced timer) value immediately */
  TIMx->EGR = TIM_EGR_UG;
 80058b2:	687b      	ldr	r3, [r7, #4]
 80058b4:	2201      	movs	r2, #1
 80058b6:	615a      	str	r2, [r3, #20]

  TIMx->CR1 = tmpcr1;
 80058b8:	687b      	ldr	r3, [r7, #4]
 80058ba:	68fa      	ldr	r2, [r7, #12]
 80058bc:	601a      	str	r2, [r3, #0]
}
 80058be:	bf00      	nop
 80058c0:	3714      	adds	r7, #20
 80058c2:	46bd      	mov	sp, r7
 80058c4:	f85d 7b04 	ldr.w	r7, [sp], #4
 80058c8:	4770      	bx	lr
 80058ca:	bf00      	nop
 80058cc:	40010000 	.word	0x40010000
 80058d0:	40000400 	.word	0x40000400
 80058d4:	40000800 	.word	0x40000800
 80058d8:	40000c00 	.word	0x40000c00
 80058dc:	40010400 	.word	0x40010400
 80058e0:	40014000 	.word	0x40014000
 80058e4:	40014400 	.word	0x40014400
 80058e8:	40014800 	.word	0x40014800
 80058ec:	4000e000 	.word	0x4000e000
 80058f0:	4000e400 	.word	0x4000e400

080058f4 <HAL_TIMEx_MasterConfigSynchronization>:
  *         mode.
  * @retval HAL status
  */
HAL_StatusTypeDef HAL_TIMEx_MasterConfigSynchronization(TIM_HandleTypeDef *htim,
                                                        const TIM_MasterConfigTypeDef *sMasterConfig)
{
 80058f4:	b480      	push	{r7}
 80058f6:	b085      	sub	sp, #20
 80058f8:	af00      	add	r7, sp, #0
 80058fa:	6078      	str	r0, [r7, #4]
 80058fc:	6039      	str	r1, [r7, #0]
  assert_param(IS_TIM_MASTER_INSTANCE(htim->Instance));
  assert_param(IS_TIM_TRGO_SOURCE(sMasterConfig->MasterOutputTrigger));
  assert_param(IS_TIM_MSM_STATE(sMasterConfig->MasterSlaveMode));

  /* Check input state */
  __HAL_LOCK(htim);
 80058fe:	687b      	ldr	r3, [r7, #4]
 8005900:	f893 303c 	ldrb.w	r3, [r3, #60]	@ 0x3c
 8005904:	2b01      	cmp	r3, #1
 8005906:	d101      	bne.n	800590c <HAL_TIMEx_MasterConfigSynchronization+0x18>
 8005908:	2302      	movs	r3, #2
 800590a:	e077      	b.n	80059fc <HAL_TIMEx_MasterConfigSynchronization+0x108>
 800590c:	687b      	ldr	r3, [r7, #4]
 800590e:	2201      	movs	r2, #1
 8005910:	f883 203c 	strb.w	r2, [r3, #60]	@ 0x3c

  /* Change the handler state */
  htim->State = HAL_TIM_STATE_BUSY;
 8005914:	687b      	ldr	r3, [r7, #4]
 8005916:	2202      	movs	r2, #2
 8005918:	f883 203d 	strb.w	r2, [r3, #61]	@ 0x3d

  /* Get the TIMx CR2 register value */
  tmpcr2 = htim->Instance->CR2;
 800591c:	687b      	ldr	r3, [r7, #4]
 800591e:	681b      	ldr	r3, [r3, #0]
 8005920:	685b      	ldr	r3, [r3, #4]
 8005922:	60fb      	str	r3, [r7, #12]

  /* Get the TIMx SMCR register value */
  tmpsmcr = htim->Instance->SMCR;
 8005924:	687b      	ldr	r3, [r7, #4]
 8005926:	681b      	ldr	r3, [r3, #0]
 8005928:	689b      	ldr	r3, [r3, #8]
 800592a:	60bb      	str	r3, [r7, #8]

  /* If the timer supports ADC synchronization through TRGO2, set the master mode selection 2 */
  if (IS_TIM_TRGO2_INSTANCE(htim->Instance))
 800592c:	687b      	ldr	r3, [r7, #4]
 800592e:	681b      	ldr	r3, [r3, #0]
 8005930:	4a35      	ldr	r2, [pc, #212]	@ (8005a08 <HAL_TIMEx_MasterConfigSynchronization+0x114>)
 8005932:	4293      	cmp	r3, r2
 8005934:	d004      	beq.n	8005940 <HAL_TIMEx_MasterConfigSynchronization+0x4c>
 8005936:	687b      	ldr	r3, [r7, #4]
 8005938:	681b      	ldr	r3, [r3, #0]
 800593a:	4a34      	ldr	r2, [pc, #208]	@ (8005a0c <HAL_TIMEx_MasterConfigSynchronization+0x118>)
 800593c:	4293      	cmp	r3, r2
 800593e:	d108      	bne.n	8005952 <HAL_TIMEx_MasterConfigSynchronization+0x5e>
  {
    /* Check the parameters */
    assert_param(IS_TIM_TRGO2_SOURCE(sMasterConfig->MasterOutputTrigger2));

    /* Clear the MMS2 bits */
    tmpcr2 &= ~TIM_CR2_MMS2;
 8005940:	68fb      	ldr	r3, [r7, #12]
 8005942:	f423 0370 	bic.w	r3, r3, #15728640	@ 0xf00000
 8005946:	60fb      	str	r3, [r7, #12]
    /* Select the TRGO2 source*/
    tmpcr2 |= sMasterConfig->MasterOutputTrigger2;
 8005948:	683b      	ldr	r3, [r7, #0]
 800594a:	685b      	ldr	r3, [r3, #4]
 800594c:	68fa      	ldr	r2, [r7, #12]
 800594e:	4313      	orrs	r3, r2
 8005950:	60fb      	str	r3, [r7, #12]
  }

  /* Reset the MMS Bits */
  tmpcr2 &= ~TIM_CR2_MMS;
 8005952:	68fb      	ldr	r3, [r7, #12]
 8005954:	f023 0370 	bic.w	r3, r3, #112	@ 0x70
 8005958:	60fb      	str	r3, [r7, #12]
  /* Select the TRGO source */
  tmpcr2 |=  sMasterConfig->MasterOutputTrigger;
 800595a:	683b      	ldr	r3, [r7, #0]
 800595c:	681b      	ldr	r3, [r3, #0]
 800595e:	68fa      	ldr	r2, [r7, #12]
 8005960:	4313      	orrs	r3, r2
 8005962:	60fb      	str	r3, [r7, #12]

  /* Update TIMx CR2 */
  htim->Instance->CR2 = tmpcr2;
 8005964:	687b      	ldr	r3, [r7, #4]
 8005966:	681b      	ldr	r3, [r3, #0]
 8005968:	68fa      	ldr	r2, [r7, #12]
 800596a:	605a      	str	r2, [r3, #4]

  if (IS_TIM_SLAVE_INSTANCE(htim->Instance))
 800596c:	687b      	ldr	r3, [r7, #4]
 800596e:	681b      	ldr	r3, [r3, #0]
 8005970:	4a25      	ldr	r2, [pc, #148]	@ (8005a08 <HAL_TIMEx_MasterConfigSynchronization+0x114>)
 8005972:	4293      	cmp	r3, r2
 8005974:	d02c      	beq.n	80059d0 <HAL_TIMEx_MasterConfigSynchronization+0xdc>
 8005976:	687b      	ldr	r3, [r7, #4]
 8005978:	681b      	ldr	r3, [r3, #0]
 800597a:	f1b3 4f80 	cmp.w	r3, #1073741824	@ 0x40000000
 800597e:	d027      	beq.n	80059d0 <HAL_TIMEx_MasterConfigSynchronization+0xdc>
 8005980:	687b      	ldr	r3, [r7, #4]
 8005982:	681b      	ldr	r3, [r3, #0]
 8005984:	4a22      	ldr	r2, [pc, #136]	@ (8005a10 <HAL_TIMEx_MasterConfigSynchronization+0x11c>)
 8005986:	4293      	cmp	r3, r2
 8005988:	d022      	beq.n	80059d0 <HAL_TIMEx_MasterConfigSynchronization+0xdc>
 800598a:	687b      	ldr	r3, [r7, #4]
 800598c:	681b      	ldr	r3, [r3, #0]
 800598e:	4a21      	ldr	r2, [pc, #132]	@ (8005a14 <HAL_TIMEx_MasterConfigSynchronization+0x120>)
 8005990:	4293      	cmp	r3, r2
 8005992:	d01d      	beq.n	80059d0 <HAL_TIMEx_MasterConfigSynchronization+0xdc>
 8005994:	687b      	ldr	r3, [r7, #4]
 8005996:	681b      	ldr	r3, [r3, #0]
 8005998:	4a1f      	ldr	r2, [pc, #124]	@ (8005a18 <HAL_TIMEx_MasterConfigSynchronization+0x124>)
 800599a:	4293      	cmp	r3, r2
 800599c:	d018      	beq.n	80059d0 <HAL_TIMEx_MasterConfigSynchronization+0xdc>
 800599e:	687b      	ldr	r3, [r7, #4]
 80059a0:	681b      	ldr	r3, [r3, #0]
 80059a2:	4a1a      	ldr	r2, [pc, #104]	@ (8005a0c <HAL_TIMEx_MasterConfigSynchronization+0x118>)
 80059a4:	4293      	cmp	r3, r2
 80059a6:	d013      	beq.n	80059d0 <HAL_TIMEx_MasterConfigSynchronization+0xdc>
 80059a8:	687b      	ldr	r3, [r7, #4]
 80059aa:	681b      	ldr	r3, [r3, #0]
 80059ac:	4a1b      	ldr	r2, [pc, #108]	@ (8005a1c <HAL_TIMEx_MasterConfigSynchronization+0x128>)
 80059ae:	4293      	cmp	r3, r2
 80059b0:	d00e      	beq.n	80059d0 <HAL_TIMEx_MasterConfigSynchronization+0xdc>
 80059b2:	687b      	ldr	r3, [r7, #4]
 80059b4:	681b      	ldr	r3, [r3, #0]
 80059b6:	4a1a      	ldr	r2, [pc, #104]	@ (8005a20 <HAL_TIMEx_MasterConfigSynchronization+0x12c>)
 80059b8:	4293      	cmp	r3, r2
 80059ba:	d009      	beq.n	80059d0 <HAL_TIMEx_MasterConfigSynchronization+0xdc>
 80059bc:	687b      	ldr	r3, [r7, #4]
 80059be:	681b      	ldr	r3, [r3, #0]
 80059c0:	4a18      	ldr	r2, [pc, #96]	@ (8005a24 <HAL_TIMEx_MasterConfigSynchronization+0x130>)
 80059c2:	4293      	cmp	r3, r2
 80059c4:	d004      	beq.n	80059d0 <HAL_TIMEx_MasterConfigSynchronization+0xdc>
 80059c6:	687b      	ldr	r3, [r7, #4]
 80059c8:	681b      	ldr	r3, [r3, #0]
 80059ca:	4a17      	ldr	r2, [pc, #92]	@ (8005a28 <HAL_TIMEx_MasterConfigSynchronization+0x134>)
 80059cc:	4293      	cmp	r3, r2
 80059ce:	d10c      	bne.n	80059ea <HAL_TIMEx_MasterConfigSynchronization+0xf6>
  {
    /* Reset the MSM Bit */
    tmpsmcr &= ~TIM_SMCR_MSM;
 80059d0:	68bb      	ldr	r3, [r7, #8]
 80059d2:	f023 0380 	bic.w	r3, r3, #128	@ 0x80
 80059d6:	60bb      	str	r3, [r7, #8]
    /* Set master mode */
    tmpsmcr |= sMasterConfig->MasterSlaveMode;
 80059d8:	683b      	ldr	r3, [r7, #0]
 80059da:	689b      	ldr	r3, [r3, #8]
 80059dc:	68ba      	ldr	r2, [r7, #8]
 80059de:	4313      	orrs	r3, r2
 80059e0:	60bb      	str	r3, [r7, #8]

    /* Update TIMx SMCR */
    htim->Instance->SMCR = tmpsmcr;
 80059e2:	687b      	ldr	r3, [r7, #4]
 80059e4:	681b      	ldr	r3, [r3, #0]
 80059e6:	68ba      	ldr	r2, [r7, #8]
 80059e8:	609a      	str	r2, [r3, #8]
  }

  /* Change the htim state */
  htim->State = HAL_TIM_STATE_READY;
 80059ea:	687b      	ldr	r3, [r7, #4]
 80059ec:	2201      	movs	r2, #1
 80059ee:	f883 203d 	strb.w	r2, [r3, #61]	@ 0x3d

  __HAL_UNLOCK(htim);
 80059f2:	687b      	ldr	r3, [r7, #4]
 80059f4:	2200      	movs	r2, #0
 80059f6:	f883 203c 	strb.w	r2, [r3, #60]	@ 0x3c

  return HAL_OK;
 80059fa:	2300      	movs	r3, #0
}
 80059fc:	4618      	mov	r0, r3
 80059fe:	3714      	adds	r7, #20
 8005a00:	46bd      	mov	sp, r7
 8005a02:	f85d 7b04 	ldr.w	r7, [sp], #4
 8005a06:	4770      	bx	lr
 8005a08:	40010000 	.word	0x40010000
 8005a0c:	40010400 	.word	0x40010400
 8005a10:	40000400 	.word	0x40000400
 8005a14:	40000800 	.word	0x40000800
 8005a18:	40000c00 	.word	0x40000c00
 8005a1c:	40001800 	.word	0x40001800
 8005a20:	40014000 	.word	0x40014000
 8005a24:	4000e000 	.word	0x4000e000
 8005a28:	4000e400 	.word	0x4000e400

08005a2c <HAL_TIMEx_CommutCallback>:
  * @brief  Commutation callback in non-blocking mode
  * @param  htim TIM handle
  * @retval None
  */
__weak void HAL_TIMEx_CommutCallback(TIM_HandleTypeDef *htim)
{
 8005a2c:	b480      	push	{r7}
 8005a2e:	b083      	sub	sp, #12
 8005a30:	af00      	add	r7, sp, #0
 8005a32:	6078      	str	r0, [r7, #4]
  UNUSED(htim);

  /* NOTE : This function should not be modified, when the callback is needed,
            the HAL_TIMEx_CommutCallback could be implemented in the user file
   */
}
 8005a34:	bf00      	nop
 8005a36:	370c      	adds	r7, #12
 8005a38:	46bd      	mov	sp, r7
 8005a3a:	f85d 7b04 	ldr.w	r7, [sp], #4
 8005a3e:	4770      	bx	lr

08005a40 <HAL_TIMEx_BreakCallback>:
  * @brief  Break detection callback in non-blocking mode
  * @param  htim TIM handle
  * @retval None
  */
__weak void HAL_TIMEx_BreakCallback(TIM_HandleTypeDef *htim)
{
 8005a40:	b480      	push	{r7}
 8005a42:	b083      	sub	sp, #12
 8005a44:	af00      	add	r7, sp, #0
 8005a46:	6078      	str	r0, [r7, #4]
  UNUSED(htim);

  /* NOTE : This function should not be modified, when the callback is needed,
            the HAL_TIMEx_BreakCallback could be implemented in the user file
   */
}
 8005a48:	bf00      	nop
 8005a4a:	370c      	adds	r7, #12
 8005a4c:	46bd      	mov	sp, r7
 8005a4e:	f85d 7b04 	ldr.w	r7, [sp], #4
 8005a52:	4770      	bx	lr

08005a54 <HAL_TIMEx_Break2Callback>:
  * @brief  Break2 detection callback in non blocking mode
  * @param  htim: TIM handle
  * @retval None
  */
__weak void HAL_TIMEx_Break2Callback(TIM_HandleTypeDef *htim)
{
 8005a54:	b480      	push	{r7}
 8005a56:	b083      	sub	sp, #12
 8005a58:	af00      	add	r7, sp, #0
 8005a5a:	6078      	str	r0, [r7, #4]
  UNUSED(htim);

  /* NOTE : This function Should not be modified, when the callback is needed,
            the HAL_TIMEx_Break2Callback could be implemented in the user file
   */
}
 8005a5c:	bf00      	nop
 8005a5e:	370c      	adds	r7, #12
 8005a60:	46bd      	mov	sp, r7
 8005a62:	f85d 7b04 	ldr.w	r7, [sp], #4
 8005a66:	4770      	bx	lr

08005a68 <USB_CoreInit>:
  * @param  cfg pointer to a USB_OTG_CfgTypeDef structure that contains
  *         the configuration information for the specified USBx peripheral.
  * @retval HAL status
  */
HAL_StatusTypeDef USB_CoreInit(USB_OTG_GlobalTypeDef *USBx, USB_OTG_CfgTypeDef cfg)
{
 8005a68:	b084      	sub	sp, #16
 8005a6a:	b580      	push	{r7, lr}
 8005a6c:	b084      	sub	sp, #16
 8005a6e:	af00      	add	r7, sp, #0
 8005a70:	6078      	str	r0, [r7, #4]
 8005a72:	f107 001c 	add.w	r0, r7, #28
 8005a76:	e880 000e 	stmia.w	r0, {r1, r2, r3}
  HAL_StatusTypeDef ret;
  if (cfg.phy_itface == USB_OTG_ULPI_PHY)
 8005a7a:	f897 3021 	ldrb.w	r3, [r7, #33]	@ 0x21
 8005a7e:	2b01      	cmp	r3, #1
 8005a80:	d121      	bne.n	8005ac6 <USB_CoreInit+0x5e>
  {
    USBx->GCCFG &= ~(USB_OTG_GCCFG_PWRDWN);
 8005a82:	687b      	ldr	r3, [r7, #4]
 8005a84:	6b9b      	ldr	r3, [r3, #56]	@ 0x38
 8005a86:	f423 3280 	bic.w	r2, r3, #65536	@ 0x10000
 8005a8a:	687b      	ldr	r3, [r7, #4]
 8005a8c:	639a      	str	r2, [r3, #56]	@ 0x38

    /* Init The ULPI Interface */
    USBx->GUSBCFG &= ~(USB_OTG_GUSBCFG_TSDPS | USB_OTG_GUSBCFG_ULPIFSLS | USB_OTG_GUSBCFG_PHYSEL);
 8005a8e:	687b      	ldr	r3, [r7, #4]
 8005a90:	68da      	ldr	r2, [r3, #12]
 8005a92:	4b2f      	ldr	r3, [pc, #188]	@ (8005b50 <USB_CoreInit+0xe8>)
 8005a94:	4013      	ands	r3, r2
 8005a96:	687a      	ldr	r2, [r7, #4]
 8005a98:	60d3      	str	r3, [r2, #12]

    /* Select vbus source */
    USBx->GUSBCFG &= ~(USB_OTG_GUSBCFG_ULPIEVBUSD | USB_OTG_GUSBCFG_ULPIEVBUSI);
 8005a9a:	687b      	ldr	r3, [r7, #4]
 8005a9c:	68db      	ldr	r3, [r3, #12]
 8005a9e:	f423 1240 	bic.w	r2, r3, #3145728	@ 0x300000
 8005aa2:	687b      	ldr	r3, [r7, #4]
 8005aa4:	60da      	str	r2, [r3, #12]
    if (cfg.use_external_vbus == 1U)
 8005aa6:	f897 3028 	ldrb.w	r3, [r7, #40]	@ 0x28
 8005aaa:	2b01      	cmp	r3, #1
 8005aac:	d105      	bne.n	8005aba <USB_CoreInit+0x52>
    {
      USBx->GUSBCFG |= USB_OTG_GUSBCFG_ULPIEVBUSD;
 8005aae:	687b      	ldr	r3, [r7, #4]
 8005ab0:	68db      	ldr	r3, [r3, #12]
 8005ab2:	f443 1280 	orr.w	r2, r3, #1048576	@ 0x100000
 8005ab6:	687b      	ldr	r3, [r7, #4]
 8005ab8:	60da      	str	r2, [r3, #12]
    }

    /* Reset after a PHY select */
    ret = USB_CoreReset(USBx);
 8005aba:	6878      	ldr	r0, [r7, #4]
 8005abc:	f001 fb52 	bl	8007164 <USB_CoreReset>
 8005ac0:	4603      	mov	r3, r0
 8005ac2:	73fb      	strb	r3, [r7, #15]
 8005ac4:	e01b      	b.n	8005afe <USB_CoreInit+0x96>
  }
  else /* FS interface (embedded Phy) */
  {
    /* Select FS Embedded PHY */
    USBx->GUSBCFG |= USB_OTG_GUSBCFG_PHYSEL;
 8005ac6:	687b      	ldr	r3, [r7, #4]
 8005ac8:	68db      	ldr	r3, [r3, #12]
 8005aca:	f043 0240 	orr.w	r2, r3, #64	@ 0x40
 8005ace:	687b      	ldr	r3, [r7, #4]
 8005ad0:	60da      	str	r2, [r3, #12]

    /* Reset after a PHY select */
    ret = USB_CoreReset(USBx);
 8005ad2:	6878      	ldr	r0, [r7, #4]
 8005ad4:	f001 fb46 	bl	8007164 <USB_CoreReset>
 8005ad8:	4603      	mov	r3, r0
 8005ada:	73fb      	strb	r3, [r7, #15]

    if (cfg.battery_charging_enable == 0U)
 8005adc:	f897 3025 	ldrb.w	r3, [r7, #37]	@ 0x25
 8005ae0:	2b00      	cmp	r3, #0
 8005ae2:	d106      	bne.n	8005af2 <USB_CoreInit+0x8a>
    {
      /* Activate the USB Transceiver */
      USBx->GCCFG |= USB_OTG_GCCFG_PWRDWN;
 8005ae4:	687b      	ldr	r3, [r7, #4]
 8005ae6:	6b9b      	ldr	r3, [r3, #56]	@ 0x38
 8005ae8:	f443 3280 	orr.w	r2, r3, #65536	@ 0x10000
 8005aec:	687b      	ldr	r3, [r7, #4]
 8005aee:	639a      	str	r2, [r3, #56]	@ 0x38
 8005af0:	e005      	b.n	8005afe <USB_CoreInit+0x96>
    }
    else
    {
      /* Deactivate the USB Transceiver */
      USBx->GCCFG &= ~(USB_OTG_GCCFG_PWRDWN);
 8005af2:	687b      	ldr	r3, [r7, #4]
 8005af4:	6b9b      	ldr	r3, [r3, #56]	@ 0x38
 8005af6:	f423 3280 	bic.w	r2, r3, #65536	@ 0x10000
 8005afa:	687b      	ldr	r3, [r7, #4]
 8005afc:	639a      	str	r2, [r3, #56]	@ 0x38
    }
  }

  if (cfg.dma_enable == 1U)
 8005afe:	7fbb      	ldrb	r3, [r7, #30]
 8005b00:	2b01      	cmp	r3, #1
 8005b02:	d11c      	bne.n	8005b3e <USB_CoreInit+0xd6>
  {
    /* make sure to reserve 18 fifo Locations for DMA buffers */
    USBx->GDFIFOCFG &= ~(0xFFFFUL << 16);
 8005b04:	687b      	ldr	r3, [r7, #4]
 8005b06:	6ddb      	ldr	r3, [r3, #92]	@ 0x5c
 8005b08:	b29a      	uxth	r2, r3
 8005b0a:	687b      	ldr	r3, [r7, #4]
 8005b0c:	65da      	str	r2, [r3, #92]	@ 0x5c
    USBx->GDFIFOCFG |= 0x3EEUL << 16;
 8005b0e:	687b      	ldr	r3, [r7, #4]
 8005b10:	6dda      	ldr	r2, [r3, #92]	@ 0x5c
 8005b12:	4b10      	ldr	r3, [pc, #64]	@ (8005b54 <USB_CoreInit+0xec>)
 8005b14:	4313      	orrs	r3, r2
 8005b16:	687a      	ldr	r2, [r7, #4]
 8005b18:	65d3      	str	r3, [r2, #92]	@ 0x5c

    USBx->GAHBCFG &= ~(USB_OTG_GAHBCFG_HBSTLEN);
 8005b1a:	687b      	ldr	r3, [r7, #4]
 8005b1c:	689b      	ldr	r3, [r3, #8]
 8005b1e:	f023 021e 	bic.w	r2, r3, #30
 8005b22:	687b      	ldr	r3, [r7, #4]
 8005b24:	609a      	str	r2, [r3, #8]
    USBx->GAHBCFG |= USB_OTG_GAHBCFG_HBSTLEN_INCR4;
 8005b26:	687b      	ldr	r3, [r7, #4]
 8005b28:	689b      	ldr	r3, [r3, #8]
 8005b2a:	f043 0206 	orr.w	r2, r3, #6
 8005b2e:	687b      	ldr	r3, [r7, #4]
 8005b30:	609a      	str	r2, [r3, #8]
    USBx->GAHBCFG |= USB_OTG_GAHBCFG_DMAEN;
 8005b32:	687b      	ldr	r3, [r7, #4]
 8005b34:	689b      	ldr	r3, [r3, #8]
 8005b36:	f043 0220 	orr.w	r2, r3, #32
 8005b3a:	687b      	ldr	r3, [r7, #4]
 8005b3c:	609a      	str	r2, [r3, #8]
  }

  return ret;
 8005b3e:	7bfb      	ldrb	r3, [r7, #15]
}
 8005b40:	4618      	mov	r0, r3
 8005b42:	3710      	adds	r7, #16
 8005b44:	46bd      	mov	sp, r7
 8005b46:	e8bd 4080 	ldmia.w	sp!, {r7, lr}
 8005b4a:	b004      	add	sp, #16
 8005b4c:	4770      	bx	lr
 8005b4e:	bf00      	nop
 8005b50:	ffbdffbf 	.word	0xffbdffbf
 8005b54:	03ee0000 	.word	0x03ee0000

08005b58 <USB_SetTurnaroundTime>:
  * @param  hclk: AHB clock frequency
  * @retval USB turnaround time In PHY Clocks number
  */
HAL_StatusTypeDef USB_SetTurnaroundTime(USB_OTG_GlobalTypeDef *USBx,
                                        uint32_t hclk, uint8_t speed)
{
 8005b58:	b480      	push	{r7}
 8005b5a:	b087      	sub	sp, #28
 8005b5c:	af00      	add	r7, sp, #0
 8005b5e:	60f8      	str	r0, [r7, #12]
 8005b60:	60b9      	str	r1, [r7, #8]
 8005b62:	4613      	mov	r3, r2
 8005b64:	71fb      	strb	r3, [r7, #7]

  /* The USBTRD is configured according to the tables below, depending on AHB frequency
  used by application. In the low AHB frequency range it is used to stretch enough the USB response
  time to IN tokens, the USB turnaround time, so to compensate for the longer AHB read access
  latency to the Data FIFO */
  if (speed == USBD_FS_SPEED)
 8005b66:	79fb      	ldrb	r3, [r7, #7]
 8005b68:	2b02      	cmp	r3, #2
 8005b6a:	d165      	bne.n	8005c38 <USB_SetTurnaroundTime+0xe0>
  {
    if ((hclk >= 14200000U) && (hclk < 15000000U))
 8005b6c:	68bb      	ldr	r3, [r7, #8]
 8005b6e:	4a41      	ldr	r2, [pc, #260]	@ (8005c74 <USB_SetTurnaroundTime+0x11c>)
 8005b70:	4293      	cmp	r3, r2
 8005b72:	d906      	bls.n	8005b82 <USB_SetTurnaroundTime+0x2a>
 8005b74:	68bb      	ldr	r3, [r7, #8]
 8005b76:	4a40      	ldr	r2, [pc, #256]	@ (8005c78 <USB_SetTurnaroundTime+0x120>)
 8005b78:	4293      	cmp	r3, r2
 8005b7a:	d202      	bcs.n	8005b82 <USB_SetTurnaroundTime+0x2a>
    {
      /* hclk Clock Range between 14.2-15 MHz */
      UsbTrd = 0xFU;
 8005b7c:	230f      	movs	r3, #15
 8005b7e:	617b      	str	r3, [r7, #20]
 8005b80:	e062      	b.n	8005c48 <USB_SetTurnaroundTime+0xf0>
    }
    else if ((hclk >= 15000000U) && (hclk < 16000000U))
 8005b82:	68bb      	ldr	r3, [r7, #8]
 8005b84:	4a3c      	ldr	r2, [pc, #240]	@ (8005c78 <USB_SetTurnaroundTime+0x120>)
 8005b86:	4293      	cmp	r3, r2
 8005b88:	d306      	bcc.n	8005b98 <USB_SetTurnaroundTime+0x40>
 8005b8a:	68bb      	ldr	r3, [r7, #8]
 8005b8c:	4a3b      	ldr	r2, [pc, #236]	@ (8005c7c <USB_SetTurnaroundTime+0x124>)
 8005b8e:	4293      	cmp	r3, r2
 8005b90:	d202      	bcs.n	8005b98 <USB_SetTurnaroundTime+0x40>
    {
      /* hclk Clock Range between 15-16 MHz */
      UsbTrd = 0xEU;
 8005b92:	230e      	movs	r3, #14
 8005b94:	617b      	str	r3, [r7, #20]
 8005b96:	e057      	b.n	8005c48 <USB_SetTurnaroundTime+0xf0>
    }
    else if ((hclk >= 16000000U) && (hclk < 17200000U))
 8005b98:	68bb      	ldr	r3, [r7, #8]
 8005b9a:	4a38      	ldr	r2, [pc, #224]	@ (8005c7c <USB_SetTurnaroundTime+0x124>)
 8005b9c:	4293      	cmp	r3, r2
 8005b9e:	d306      	bcc.n	8005bae <USB_SetTurnaroundTime+0x56>
 8005ba0:	68bb      	ldr	r3, [r7, #8]
 8005ba2:	4a37      	ldr	r2, [pc, #220]	@ (8005c80 <USB_SetTurnaroundTime+0x128>)
 8005ba4:	4293      	cmp	r3, r2
 8005ba6:	d202      	bcs.n	8005bae <USB_SetTurnaroundTime+0x56>
    {
      /* hclk Clock Range between 16-17.2 MHz */
      UsbTrd = 0xDU;
 8005ba8:	230d      	movs	r3, #13
 8005baa:	617b      	str	r3, [r7, #20]
 8005bac:	e04c      	b.n	8005c48 <USB_SetTurnaroundTime+0xf0>
    }
    else if ((hclk >= 17200000U) && (hclk < 18500000U))
 8005bae:	68bb      	ldr	r3, [r7, #8]
 8005bb0:	4a33      	ldr	r2, [pc, #204]	@ (8005c80 <USB_SetTurnaroundTime+0x128>)
 8005bb2:	4293      	cmp	r3, r2
 8005bb4:	d306      	bcc.n	8005bc4 <USB_SetTurnaroundTime+0x6c>
 8005bb6:	68bb      	ldr	r3, [r7, #8]
 8005bb8:	4a32      	ldr	r2, [pc, #200]	@ (8005c84 <USB_SetTurnaroundTime+0x12c>)
 8005bba:	4293      	cmp	r3, r2
 8005bbc:	d802      	bhi.n	8005bc4 <USB_SetTurnaroundTime+0x6c>
    {
      /* hclk Clock Range between 17.2-18.5 MHz */
      UsbTrd = 0xCU;
 8005bbe:	230c      	movs	r3, #12
 8005bc0:	617b      	str	r3, [r7, #20]
 8005bc2:	e041      	b.n	8005c48 <USB_SetTurnaroundTime+0xf0>
    }
    else if ((hclk >= 18500000U) && (hclk < 20000000U))
 8005bc4:	68bb      	ldr	r3, [r7, #8]
 8005bc6:	4a2f      	ldr	r2, [pc, #188]	@ (8005c84 <USB_SetTurnaroundTime+0x12c>)
 8005bc8:	4293      	cmp	r3, r2
 8005bca:	d906      	bls.n	8005bda <USB_SetTurnaroundTime+0x82>
 8005bcc:	68bb      	ldr	r3, [r7, #8]
 8005bce:	4a2e      	ldr	r2, [pc, #184]	@ (8005c88 <USB_SetTurnaroundTime+0x130>)
 8005bd0:	4293      	cmp	r3, r2
 8005bd2:	d802      	bhi.n	8005bda <USB_SetTurnaroundTime+0x82>
    {
      /* hclk Clock Range between 18.5-20 MHz */
      UsbTrd = 0xBU;
 8005bd4:	230b      	movs	r3, #11
 8005bd6:	617b      	str	r3, [r7, #20]
 8005bd8:	e036      	b.n	8005c48 <USB_SetTurnaroundTime+0xf0>
    }
    else if ((hclk >= 20000000U) && (hclk < 21800000U))
 8005bda:	68bb      	ldr	r3, [r7, #8]
 8005bdc:	4a2a      	ldr	r2, [pc, #168]	@ (8005c88 <USB_SetTurnaroundTime+0x130>)
 8005bde:	4293      	cmp	r3, r2
 8005be0:	d906      	bls.n	8005bf0 <USB_SetTurnaroundTime+0x98>
 8005be2:	68bb      	ldr	r3, [r7, #8]
 8005be4:	4a29      	ldr	r2, [pc, #164]	@ (8005c8c <USB_SetTurnaroundTime+0x134>)
 8005be6:	4293      	cmp	r3, r2
 8005be8:	d802      	bhi.n	8005bf0 <USB_SetTurnaroundTime+0x98>
    {
      /* hclk Clock Range between 20-21.8 MHz */
      UsbTrd = 0xAU;
 8005bea:	230a      	movs	r3, #10
 8005bec:	617b      	str	r3, [r7, #20]
 8005bee:	e02b      	b.n	8005c48 <USB_SetTurnaroundTime+0xf0>
    }
    else if ((hclk >= 21800000U) && (hclk < 24000000U))
 8005bf0:	68bb      	ldr	r3, [r7, #8]
 8005bf2:	4a26      	ldr	r2, [pc, #152]	@ (8005c8c <USB_SetTurnaroundTime+0x134>)
 8005bf4:	4293      	cmp	r3, r2
 8005bf6:	d906      	bls.n	8005c06 <USB_SetTurnaroundTime+0xae>
 8005bf8:	68bb      	ldr	r3, [r7, #8]
 8005bfa:	4a25      	ldr	r2, [pc, #148]	@ (8005c90 <USB_SetTurnaroundTime+0x138>)
 8005bfc:	4293      	cmp	r3, r2
 8005bfe:	d202      	bcs.n	8005c06 <USB_SetTurnaroundTime+0xae>
    {
      /* hclk Clock Range between 21.8-24 MHz */
      UsbTrd = 0x9U;
 8005c00:	2309      	movs	r3, #9
 8005c02:	617b      	str	r3, [r7, #20]
 8005c04:	e020      	b.n	8005c48 <USB_SetTurnaroundTime+0xf0>
    }
    else if ((hclk >= 24000000U) && (hclk < 27700000U))
 8005c06:	68bb      	ldr	r3, [r7, #8]
 8005c08:	4a21      	ldr	r2, [pc, #132]	@ (8005c90 <USB_SetTurnaroundTime+0x138>)
 8005c0a:	4293      	cmp	r3, r2
 8005c0c:	d306      	bcc.n	8005c1c <USB_SetTurnaroundTime+0xc4>
 8005c0e:	68bb      	ldr	r3, [r7, #8]
 8005c10:	4a20      	ldr	r2, [pc, #128]	@ (8005c94 <USB_SetTurnaroundTime+0x13c>)
 8005c12:	4293      	cmp	r3, r2
 8005c14:	d802      	bhi.n	8005c1c <USB_SetTurnaroundTime+0xc4>
    {
      /* hclk Clock Range between 24-27.7 MHz */
      UsbTrd = 0x8U;
 8005c16:	2308      	movs	r3, #8
 8005c18:	617b      	str	r3, [r7, #20]
 8005c1a:	e015      	b.n	8005c48 <USB_SetTurnaroundTime+0xf0>
    }
    else if ((hclk >= 27700000U) && (hclk < 32000000U))
 8005c1c:	68bb      	ldr	r3, [r7, #8]
 8005c1e:	4a1d      	ldr	r2, [pc, #116]	@ (8005c94 <USB_SetTurnaroundTime+0x13c>)
 8005c20:	4293      	cmp	r3, r2
 8005c22:	d906      	bls.n	8005c32 <USB_SetTurnaroundTime+0xda>
 8005c24:	68bb      	ldr	r3, [r7, #8]
 8005c26:	4a1c      	ldr	r2, [pc, #112]	@ (8005c98 <USB_SetTurnaroundTime+0x140>)
 8005c28:	4293      	cmp	r3, r2
 8005c2a:	d202      	bcs.n	8005c32 <USB_SetTurnaroundTime+0xda>
    {
      /* hclk Clock Range between 27.7-32 MHz */
      UsbTrd = 0x7U;
 8005c2c:	2307      	movs	r3, #7
 8005c2e:	617b      	str	r3, [r7, #20]
 8005c30:	e00a      	b.n	8005c48 <USB_SetTurnaroundTime+0xf0>
    }
    else /* if(hclk >= 32000000) */
    {
      /* hclk Clock Range between 32-200 MHz */
      UsbTrd = 0x6U;
 8005c32:	2306      	movs	r3, #6
 8005c34:	617b      	str	r3, [r7, #20]
 8005c36:	e007      	b.n	8005c48 <USB_SetTurnaroundTime+0xf0>
    }
  }
  else if (speed == USBD_HS_SPEED)
 8005c38:	79fb      	ldrb	r3, [r7, #7]
 8005c3a:	2b00      	cmp	r3, #0
 8005c3c:	d102      	bne.n	8005c44 <USB_SetTurnaroundTime+0xec>
  {
    UsbTrd = USBD_HS_TRDT_VALUE;
 8005c3e:	2309      	movs	r3, #9
 8005c40:	617b      	str	r3, [r7, #20]
 8005c42:	e001      	b.n	8005c48 <USB_SetTurnaroundTime+0xf0>
  }
  else
  {
    UsbTrd = USBD_DEFAULT_TRDT_VALUE;
 8005c44:	2309      	movs	r3, #9
 8005c46:	617b      	str	r3, [r7, #20]
  }

  USBx->GUSBCFG &= ~USB_OTG_GUSBCFG_TRDT;
 8005c48:	68fb      	ldr	r3, [r7, #12]
 8005c4a:	68db      	ldr	r3, [r3, #12]
 8005c4c:	f423 5270 	bic.w	r2, r3, #15360	@ 0x3c00
 8005c50:	68fb      	ldr	r3, [r7, #12]
 8005c52:	60da      	str	r2, [r3, #12]
  USBx->GUSBCFG |= (uint32_t)((UsbTrd << 10) & USB_OTG_GUSBCFG_TRDT);
 8005c54:	68fb      	ldr	r3, [r7, #12]
 8005c56:	68da      	ldr	r2, [r3, #12]
 8005c58:	697b      	ldr	r3, [r7, #20]
 8005c5a:	029b      	lsls	r3, r3, #10
 8005c5c:	f403 5370 	and.w	r3, r3, #15360	@ 0x3c00
 8005c60:	431a      	orrs	r2, r3
 8005c62:	68fb      	ldr	r3, [r7, #12]
 8005c64:	60da      	str	r2, [r3, #12]

  return HAL_OK;
 8005c66:	2300      	movs	r3, #0
}
 8005c68:	4618      	mov	r0, r3
 8005c6a:	371c      	adds	r7, #28
 8005c6c:	46bd      	mov	sp, r7
 8005c6e:	f85d 7b04 	ldr.w	r7, [sp], #4
 8005c72:	4770      	bx	lr
 8005c74:	00d8acbf 	.word	0x00d8acbf
 8005c78:	00e4e1c0 	.word	0x00e4e1c0
 8005c7c:	00f42400 	.word	0x00f42400
 8005c80:	01067380 	.word	0x01067380
 8005c84:	011a499f 	.word	0x011a499f
 8005c88:	01312cff 	.word	0x01312cff
 8005c8c:	014ca43f 	.word	0x014ca43f
 8005c90:	016e3600 	.word	0x016e3600
 8005c94:	01a6ab1f 	.word	0x01a6ab1f
 8005c98:	01e84800 	.word	0x01e84800

08005c9c <USB_EnableGlobalInt>:
  *         Enables the controller's Global Int in the AHB Config reg
  * @param  USBx  Selected device
  * @retval HAL status
  */
HAL_StatusTypeDef USB_EnableGlobalInt(USB_OTG_GlobalTypeDef *USBx)
{
 8005c9c:	b480      	push	{r7}
 8005c9e:	b083      	sub	sp, #12
 8005ca0:	af00      	add	r7, sp, #0
 8005ca2:	6078      	str	r0, [r7, #4]
  USBx->GAHBCFG |= USB_OTG_GAHBCFG_GINT;
 8005ca4:	687b      	ldr	r3, [r7, #4]
 8005ca6:	689b      	ldr	r3, [r3, #8]
 8005ca8:	f043 0201 	orr.w	r2, r3, #1
 8005cac:	687b      	ldr	r3, [r7, #4]
 8005cae:	609a      	str	r2, [r3, #8]
  return HAL_OK;
 8005cb0:	2300      	movs	r3, #0
}
 8005cb2:	4618      	mov	r0, r3
 8005cb4:	370c      	adds	r7, #12
 8005cb6:	46bd      	mov	sp, r7
 8005cb8:	f85d 7b04 	ldr.w	r7, [sp], #4
 8005cbc:	4770      	bx	lr

08005cbe <USB_DisableGlobalInt>:
  *         Disable the controller's Global Int in the AHB Config reg
  * @param  USBx  Selected device
  * @retval HAL status
  */
HAL_StatusTypeDef USB_DisableGlobalInt(USB_OTG_GlobalTypeDef *USBx)
{
 8005cbe:	b480      	push	{r7}
 8005cc0:	b083      	sub	sp, #12
 8005cc2:	af00      	add	r7, sp, #0
 8005cc4:	6078      	str	r0, [r7, #4]
  USBx->GAHBCFG &= ~USB_OTG_GAHBCFG_GINT;
 8005cc6:	687b      	ldr	r3, [r7, #4]
 8005cc8:	689b      	ldr	r3, [r3, #8]
 8005cca:	f023 0201 	bic.w	r2, r3, #1
 8005cce:	687b      	ldr	r3, [r7, #4]
 8005cd0:	609a      	str	r2, [r3, #8]
  return HAL_OK;
 8005cd2:	2300      	movs	r3, #0
}
 8005cd4:	4618      	mov	r0, r3
 8005cd6:	370c      	adds	r7, #12
 8005cd8:	46bd      	mov	sp, r7
 8005cda:	f85d 7b04 	ldr.w	r7, [sp], #4
 8005cde:	4770      	bx	lr

08005ce0 <USB_SetCurrentMode>:
  *            @arg USB_DEVICE_MODE Peripheral mode
  *            @arg USB_HOST_MODE Host mode
  * @retval HAL status
  */
HAL_StatusTypeDef USB_SetCurrentMode(USB_OTG_GlobalTypeDef *USBx, USB_OTG_ModeTypeDef mode)
{
 8005ce0:	b580      	push	{r7, lr}
 8005ce2:	b084      	sub	sp, #16
 8005ce4:	af00      	add	r7, sp, #0
 8005ce6:	6078      	str	r0, [r7, #4]
 8005ce8:	460b      	mov	r3, r1
 8005cea:	70fb      	strb	r3, [r7, #3]
  uint32_t ms = 0U;
 8005cec:	2300      	movs	r3, #0
 8005cee:	60fb      	str	r3, [r7, #12]

  USBx->GUSBCFG &= ~(USB_OTG_GUSBCFG_FHMOD | USB_OTG_GUSBCFG_FDMOD);
 8005cf0:	687b      	ldr	r3, [r7, #4]
 8005cf2:	68db      	ldr	r3, [r3, #12]
 8005cf4:	f023 42c0 	bic.w	r2, r3, #1610612736	@ 0x60000000
 8005cf8:	687b      	ldr	r3, [r7, #4]
 8005cfa:	60da      	str	r2, [r3, #12]

  if (mode == USB_HOST_MODE)
 8005cfc:	78fb      	ldrb	r3, [r7, #3]
 8005cfe:	2b01      	cmp	r3, #1
 8005d00:	d115      	bne.n	8005d2e <USB_SetCurrentMode+0x4e>
  {
    USBx->GUSBCFG |= USB_OTG_GUSBCFG_FHMOD;
 8005d02:	687b      	ldr	r3, [r7, #4]
 8005d04:	68db      	ldr	r3, [r3, #12]
 8005d06:	f043 5200 	orr.w	r2, r3, #536870912	@ 0x20000000
 8005d0a:	687b      	ldr	r3, [r7, #4]
 8005d0c:	60da      	str	r2, [r3, #12]

    do
    {
      HAL_Delay(10U);
 8005d0e:	200a      	movs	r0, #10
 8005d10:	f7fb fa7c 	bl	800120c <HAL_Delay>
      ms += 10U;
 8005d14:	68fb      	ldr	r3, [r7, #12]
 8005d16:	330a      	adds	r3, #10
 8005d18:	60fb      	str	r3, [r7, #12]
    } while ((USB_GetMode(USBx) != (uint32_t)USB_HOST_MODE) && (ms < HAL_USB_CURRENT_MODE_MAX_DELAY_MS));
 8005d1a:	6878      	ldr	r0, [r7, #4]
 8005d1c:	f001 f992 	bl	8007044 <USB_GetMode>
 8005d20:	4603      	mov	r3, r0
 8005d22:	2b01      	cmp	r3, #1
 8005d24:	d01e      	beq.n	8005d64 <USB_SetCurrentMode+0x84>
 8005d26:	68fb      	ldr	r3, [r7, #12]
 8005d28:	2bc7      	cmp	r3, #199	@ 0xc7
 8005d2a:	d9f0      	bls.n	8005d0e <USB_SetCurrentMode+0x2e>
 8005d2c:	e01a      	b.n	8005d64 <USB_SetCurrentMode+0x84>
  }
  else if (mode == USB_DEVICE_MODE)
 8005d2e:	78fb      	ldrb	r3, [r7, #3]
 8005d30:	2b00      	cmp	r3, #0
 8005d32:	d115      	bne.n	8005d60 <USB_SetCurrentMode+0x80>
  {
    USBx->GUSBCFG |= USB_OTG_GUSBCFG_FDMOD;
 8005d34:	687b      	ldr	r3, [r7, #4]
 8005d36:	68db      	ldr	r3, [r3, #12]
 8005d38:	f043 4280 	orr.w	r2, r3, #1073741824	@ 0x40000000
 8005d3c:	687b      	ldr	r3, [r7, #4]
 8005d3e:	60da      	str	r2, [r3, #12]

    do
    {
      HAL_Delay(10U);
 8005d40:	200a      	movs	r0, #10
 8005d42:	f7fb fa63 	bl	800120c <HAL_Delay>
      ms += 10U;
 8005d46:	68fb      	ldr	r3, [r7, #12]
 8005d48:	330a      	adds	r3, #10
 8005d4a:	60fb      	str	r3, [r7, #12]
    } while ((USB_GetMode(USBx) != (uint32_t)USB_DEVICE_MODE) && (ms < HAL_USB_CURRENT_MODE_MAX_DELAY_MS));
 8005d4c:	6878      	ldr	r0, [r7, #4]
 8005d4e:	f001 f979 	bl	8007044 <USB_GetMode>
 8005d52:	4603      	mov	r3, r0
 8005d54:	2b00      	cmp	r3, #0
 8005d56:	d005      	beq.n	8005d64 <USB_SetCurrentMode+0x84>
 8005d58:	68fb      	ldr	r3, [r7, #12]
 8005d5a:	2bc7      	cmp	r3, #199	@ 0xc7
 8005d5c:	d9f0      	bls.n	8005d40 <USB_SetCurrentMode+0x60>
 8005d5e:	e001      	b.n	8005d64 <USB_SetCurrentMode+0x84>
  }
  else
  {
    return HAL_ERROR;
 8005d60:	2301      	movs	r3, #1
 8005d62:	e005      	b.n	8005d70 <USB_SetCurrentMode+0x90>
  }

  if (ms == HAL_USB_CURRENT_MODE_MAX_DELAY_MS)
 8005d64:	68fb      	ldr	r3, [r7, #12]
 8005d66:	2bc8      	cmp	r3, #200	@ 0xc8
 8005d68:	d101      	bne.n	8005d6e <USB_SetCurrentMode+0x8e>
  {
    return HAL_ERROR;
 8005d6a:	2301      	movs	r3, #1
 8005d6c:	e000      	b.n	8005d70 <USB_SetCurrentMode+0x90>
  }

  return HAL_OK;
 8005d6e:	2300      	movs	r3, #0
}
 8005d70:	4618      	mov	r0, r3
 8005d72:	3710      	adds	r7, #16
 8005d74:	46bd      	mov	sp, r7
 8005d76:	bd80      	pop	{r7, pc}

08005d78 <USB_DevInit>:
  * @param  cfg   pointer to a USB_OTG_CfgTypeDef structure that contains
  *         the configuration information for the specified USBx peripheral.
  * @retval HAL status
  */
HAL_StatusTypeDef USB_DevInit(USB_OTG_GlobalTypeDef *USBx, USB_OTG_CfgTypeDef cfg)
{
 8005d78:	b084      	sub	sp, #16
 8005d7a:	b580      	push	{r7, lr}
 8005d7c:	b086      	sub	sp, #24
 8005d7e:	af00      	add	r7, sp, #0
 8005d80:	6078      	str	r0, [r7, #4]
 8005d82:	f107 0024 	add.w	r0, r7, #36	@ 0x24
 8005d86:	e880 000e 	stmia.w	r0, {r1, r2, r3}
  HAL_StatusTypeDef ret = HAL_OK;
 8005d8a:	2300      	movs	r3, #0
 8005d8c:	75fb      	strb	r3, [r7, #23]
  uint32_t USBx_BASE = (uint32_t)USBx;
 8005d8e:	687b      	ldr	r3, [r7, #4]
 8005d90:	60fb      	str	r3, [r7, #12]
  uint32_t i;

  for (i = 0U; i < 15U; i++)
 8005d92:	2300      	movs	r3, #0
 8005d94:	613b      	str	r3, [r7, #16]
 8005d96:	e009      	b.n	8005dac <USB_DevInit+0x34>
  {
    USBx->DIEPTXF[i] = 0U;
 8005d98:	687a      	ldr	r2, [r7, #4]
 8005d9a:	693b      	ldr	r3, [r7, #16]
 8005d9c:	3340      	adds	r3, #64	@ 0x40
 8005d9e:	009b      	lsls	r3, r3, #2
 8005da0:	4413      	add	r3, r2
 8005da2:	2200      	movs	r2, #0
 8005da4:	605a      	str	r2, [r3, #4]
  for (i = 0U; i < 15U; i++)
 8005da6:	693b      	ldr	r3, [r7, #16]
 8005da8:	3301      	adds	r3, #1
 8005daa:	613b      	str	r3, [r7, #16]
 8005dac:	693b      	ldr	r3, [r7, #16]
 8005dae:	2b0e      	cmp	r3, #14
 8005db0:	d9f2      	bls.n	8005d98 <USB_DevInit+0x20>
  }

  /* VBUS Sensing setup */
  if (cfg.vbus_sensing_enable == 0U)
 8005db2:	f897 302e 	ldrb.w	r3, [r7, #46]	@ 0x2e
 8005db6:	2b00      	cmp	r3, #0
 8005db8:	d11c      	bne.n	8005df4 <USB_DevInit+0x7c>
  {
    USBx_DEVICE->DCTL |= USB_OTG_DCTL_SDIS;
 8005dba:	68fb      	ldr	r3, [r7, #12]
 8005dbc:	f503 6300 	add.w	r3, r3, #2048	@ 0x800
 8005dc0:	685b      	ldr	r3, [r3, #4]
 8005dc2:	68fa      	ldr	r2, [r7, #12]
 8005dc4:	f502 6200 	add.w	r2, r2, #2048	@ 0x800
 8005dc8:	f043 0302 	orr.w	r3, r3, #2
 8005dcc:	6053      	str	r3, [r2, #4]

    /* Deactivate VBUS Sensing B */
    USBx->GCCFG &= ~USB_OTG_GCCFG_VBDEN;
 8005dce:	687b      	ldr	r3, [r7, #4]
 8005dd0:	6b9b      	ldr	r3, [r3, #56]	@ 0x38
 8005dd2:	f423 1200 	bic.w	r2, r3, #2097152	@ 0x200000
 8005dd6:	687b      	ldr	r3, [r7, #4]
 8005dd8:	639a      	str	r2, [r3, #56]	@ 0x38

    /* B-peripheral session valid override enable */
    USBx->GOTGCTL |= USB_OTG_GOTGCTL_BVALOEN;
 8005dda:	687b      	ldr	r3, [r7, #4]
 8005ddc:	681b      	ldr	r3, [r3, #0]
 8005dde:	f043 0240 	orr.w	r2, r3, #64	@ 0x40
 8005de2:	687b      	ldr	r3, [r7, #4]
 8005de4:	601a      	str	r2, [r3, #0]
    USBx->GOTGCTL |= USB_OTG_GOTGCTL_BVALOVAL;
 8005de6:	687b      	ldr	r3, [r7, #4]
 8005de8:	681b      	ldr	r3, [r3, #0]
 8005dea:	f043 0280 	orr.w	r2, r3, #128	@ 0x80
 8005dee:	687b      	ldr	r3, [r7, #4]
 8005df0:	601a      	str	r2, [r3, #0]
 8005df2:	e005      	b.n	8005e00 <USB_DevInit+0x88>
  }
  else
  {
    /* Enable HW VBUS sensing */
    USBx->GCCFG |= USB_OTG_GCCFG_VBDEN;
 8005df4:	687b      	ldr	r3, [r7, #4]
 8005df6:	6b9b      	ldr	r3, [r3, #56]	@ 0x38
 8005df8:	f443 1200 	orr.w	r2, r3, #2097152	@ 0x200000
 8005dfc:	687b      	ldr	r3, [r7, #4]
 8005dfe:	639a      	str	r2, [r3, #56]	@ 0x38
  }

  /* Restart the Phy Clock */
  USBx_PCGCCTL = 0U;
 8005e00:	68fb      	ldr	r3, [r7, #12]
 8005e02:	f503 6360 	add.w	r3, r3, #3584	@ 0xe00
 8005e06:	461a      	mov	r2, r3
 8005e08:	2300      	movs	r3, #0
 8005e0a:	6013      	str	r3, [r2, #0]

  if (cfg.phy_itface == USB_OTG_ULPI_PHY)
 8005e0c:	f897 3029 	ldrb.w	r3, [r7, #41]	@ 0x29
 8005e10:	2b01      	cmp	r3, #1
 8005e12:	d10d      	bne.n	8005e30 <USB_DevInit+0xb8>
  {
    if (cfg.speed == USBD_HS_SPEED)
 8005e14:	f897 3027 	ldrb.w	r3, [r7, #39]	@ 0x27
 8005e18:	2b00      	cmp	r3, #0
 8005e1a:	d104      	bne.n	8005e26 <USB_DevInit+0xae>
    {
      /* Set Core speed to High speed mode */
      (void)USB_SetDevSpeed(USBx, USB_OTG_SPEED_HIGH);
 8005e1c:	2100      	movs	r1, #0
 8005e1e:	6878      	ldr	r0, [r7, #4]
 8005e20:	f000 f968 	bl	80060f4 <USB_SetDevSpeed>
 8005e24:	e008      	b.n	8005e38 <USB_DevInit+0xc0>
    }
    else
    {
      /* Set Core speed to Full speed mode */
      (void)USB_SetDevSpeed(USBx, USB_OTG_SPEED_HIGH_IN_FULL);
 8005e26:	2101      	movs	r1, #1
 8005e28:	6878      	ldr	r0, [r7, #4]
 8005e2a:	f000 f963 	bl	80060f4 <USB_SetDevSpeed>
 8005e2e:	e003      	b.n	8005e38 <USB_DevInit+0xc0>
    }
  }
  else
  {
    /* Set Core speed to Full speed mode */
    (void)USB_SetDevSpeed(USBx, USB_OTG_SPEED_FULL);
 8005e30:	2103      	movs	r1, #3
 8005e32:	6878      	ldr	r0, [r7, #4]
 8005e34:	f000 f95e 	bl	80060f4 <USB_SetDevSpeed>
  }

  /* Flush the FIFOs */
  if (USB_FlushTxFifo(USBx, 0x10U) != HAL_OK) /* all Tx FIFOs */
 8005e38:	2110      	movs	r1, #16
 8005e3a:	6878      	ldr	r0, [r7, #4]
 8005e3c:	f000 f8fa 	bl	8006034 <USB_FlushTxFifo>
 8005e40:	4603      	mov	r3, r0
 8005e42:	2b00      	cmp	r3, #0
 8005e44:	d001      	beq.n	8005e4a <USB_DevInit+0xd2>
  {
    ret = HAL_ERROR;
 8005e46:	2301      	movs	r3, #1
 8005e48:	75fb      	strb	r3, [r7, #23]
  }

  if (USB_FlushRxFifo(USBx) != HAL_OK)
 8005e4a:	6878      	ldr	r0, [r7, #4]
 8005e4c:	f000 f924 	bl	8006098 <USB_FlushRxFifo>
 8005e50:	4603      	mov	r3, r0
 8005e52:	2b00      	cmp	r3, #0
 8005e54:	d001      	beq.n	8005e5a <USB_DevInit+0xe2>
  {
    ret = HAL_ERROR;
 8005e56:	2301      	movs	r3, #1
 8005e58:	75fb      	strb	r3, [r7, #23]
  }

  /* Clear all pending Device Interrupts */
  USBx_DEVICE->DIEPMSK = 0U;
 8005e5a:	68fb      	ldr	r3, [r7, #12]
 8005e5c:	f503 6300 	add.w	r3, r3, #2048	@ 0x800
 8005e60:	461a      	mov	r2, r3
 8005e62:	2300      	movs	r3, #0
 8005e64:	6113      	str	r3, [r2, #16]
  USBx_DEVICE->DOEPMSK = 0U;
 8005e66:	68fb      	ldr	r3, [r7, #12]
 8005e68:	f503 6300 	add.w	r3, r3, #2048	@ 0x800
 8005e6c:	461a      	mov	r2, r3
 8005e6e:	2300      	movs	r3, #0
 8005e70:	6153      	str	r3, [r2, #20]
  USBx_DEVICE->DAINTMSK = 0U;
 8005e72:	68fb      	ldr	r3, [r7, #12]
 8005e74:	f503 6300 	add.w	r3, r3, #2048	@ 0x800
 8005e78:	461a      	mov	r2, r3
 8005e7a:	2300      	movs	r3, #0
 8005e7c:	61d3      	str	r3, [r2, #28]

  for (i = 0U; i < cfg.dev_endpoints; i++)
 8005e7e:	2300      	movs	r3, #0
 8005e80:	613b      	str	r3, [r7, #16]
 8005e82:	e043      	b.n	8005f0c <USB_DevInit+0x194>
  {
    if ((USBx_INEP(i)->DIEPCTL & USB_OTG_DIEPCTL_EPENA) == USB_OTG_DIEPCTL_EPENA)
 8005e84:	693b      	ldr	r3, [r7, #16]
 8005e86:	015a      	lsls	r2, r3, #5
 8005e88:	68fb      	ldr	r3, [r7, #12]
 8005e8a:	4413      	add	r3, r2
 8005e8c:	f503 6310 	add.w	r3, r3, #2304	@ 0x900
 8005e90:	681b      	ldr	r3, [r3, #0]
 8005e92:	f003 4300 	and.w	r3, r3, #2147483648	@ 0x80000000
 8005e96:	f1b3 4f00 	cmp.w	r3, #2147483648	@ 0x80000000
 8005e9a:	d118      	bne.n	8005ece <USB_DevInit+0x156>
    {
      if (i == 0U)
 8005e9c:	693b      	ldr	r3, [r7, #16]
 8005e9e:	2b00      	cmp	r3, #0
 8005ea0:	d10a      	bne.n	8005eb8 <USB_DevInit+0x140>
      {
        USBx_INEP(i)->DIEPCTL = USB_OTG_DIEPCTL_SNAK;
 8005ea2:	693b      	ldr	r3, [r7, #16]
 8005ea4:	015a      	lsls	r2, r3, #5
 8005ea6:	68fb      	ldr	r3, [r7, #12]
 8005ea8:	4413      	add	r3, r2
 8005eaa:	f503 6310 	add.w	r3, r3, #2304	@ 0x900
 8005eae:	461a      	mov	r2, r3
 8005eb0:	f04f 6300 	mov.w	r3, #134217728	@ 0x8000000
 8005eb4:	6013      	str	r3, [r2, #0]
 8005eb6:	e013      	b.n	8005ee0 <USB_DevInit+0x168>
      }
      else
      {
        USBx_INEP(i)->DIEPCTL = USB_OTG_DIEPCTL_EPDIS | USB_OTG_DIEPCTL_SNAK;
 8005eb8:	693b      	ldr	r3, [r7, #16]
 8005eba:	015a      	lsls	r2, r3, #5
 8005ebc:	68fb      	ldr	r3, [r7, #12]
 8005ebe:	4413      	add	r3, r2
 8005ec0:	f503 6310 	add.w	r3, r3, #2304	@ 0x900
 8005ec4:	461a      	mov	r2, r3
 8005ec6:	f04f 4390 	mov.w	r3, #1207959552	@ 0x48000000
 8005eca:	6013      	str	r3, [r2, #0]
 8005ecc:	e008      	b.n	8005ee0 <USB_DevInit+0x168>
      }
    }
    else
    {
      USBx_INEP(i)->DIEPCTL = 0U;
 8005ece:	693b      	ldr	r3, [r7, #16]
 8005ed0:	015a      	lsls	r2, r3, #5
 8005ed2:	68fb      	ldr	r3, [r7, #12]
 8005ed4:	4413      	add	r3, r2
 8005ed6:	f503 6310 	add.w	r3, r3, #2304	@ 0x900
 8005eda:	461a      	mov	r2, r3
 8005edc:	2300      	movs	r3, #0
 8005ede:	6013      	str	r3, [r2, #0]
    }

    USBx_INEP(i)->DIEPTSIZ = 0U;
 8005ee0:	693b      	ldr	r3, [r7, #16]
 8005ee2:	015a      	lsls	r2, r3, #5
 8005ee4:	68fb      	ldr	r3, [r7, #12]
 8005ee6:	4413      	add	r3, r2
 8005ee8:	f503 6310 	add.w	r3, r3, #2304	@ 0x900
 8005eec:	461a      	mov	r2, r3
 8005eee:	2300      	movs	r3, #0
 8005ef0:	6113      	str	r3, [r2, #16]
    USBx_INEP(i)->DIEPINT  = 0xFB7FU;
 8005ef2:	693b      	ldr	r3, [r7, #16]
 8005ef4:	015a      	lsls	r2, r3, #5
 8005ef6:	68fb      	ldr	r3, [r7, #12]
 8005ef8:	4413      	add	r3, r2
 8005efa:	f503 6310 	add.w	r3, r3, #2304	@ 0x900
 8005efe:	461a      	mov	r2, r3
 8005f00:	f64f 337f 	movw	r3, #64383	@ 0xfb7f
 8005f04:	6093      	str	r3, [r2, #8]
  for (i = 0U; i < cfg.dev_endpoints; i++)
 8005f06:	693b      	ldr	r3, [r7, #16]
 8005f08:	3301      	adds	r3, #1
 8005f0a:	613b      	str	r3, [r7, #16]
 8005f0c:	f897 3024 	ldrb.w	r3, [r7, #36]	@ 0x24
 8005f10:	461a      	mov	r2, r3
 8005f12:	693b      	ldr	r3, [r7, #16]
 8005f14:	4293      	cmp	r3, r2
 8005f16:	d3b5      	bcc.n	8005e84 <USB_DevInit+0x10c>
  }

  for (i = 0U; i < cfg.dev_endpoints; i++)
 8005f18:	2300      	movs	r3, #0
 8005f1a:	613b      	str	r3, [r7, #16]
 8005f1c:	e043      	b.n	8005fa6 <USB_DevInit+0x22e>
  {
    if ((USBx_OUTEP(i)->DOEPCTL & USB_OTG_DOEPCTL_EPENA) == USB_OTG_DOEPCTL_EPENA)
 8005f1e:	693b      	ldr	r3, [r7, #16]
 8005f20:	015a      	lsls	r2, r3, #5
 8005f22:	68fb      	ldr	r3, [r7, #12]
 8005f24:	4413      	add	r3, r2
 8005f26:	f503 6330 	add.w	r3, r3, #2816	@ 0xb00
 8005f2a:	681b      	ldr	r3, [r3, #0]
 8005f2c:	f003 4300 	and.w	r3, r3, #2147483648	@ 0x80000000
 8005f30:	f1b3 4f00 	cmp.w	r3, #2147483648	@ 0x80000000
 8005f34:	d118      	bne.n	8005f68 <USB_DevInit+0x1f0>
    {
      if (i == 0U)
 8005f36:	693b      	ldr	r3, [r7, #16]
 8005f38:	2b00      	cmp	r3, #0
 8005f3a:	d10a      	bne.n	8005f52 <USB_DevInit+0x1da>
      {
        USBx_OUTEP(i)->DOEPCTL = USB_OTG_DOEPCTL_SNAK;
 8005f3c:	693b      	ldr	r3, [r7, #16]
 8005f3e:	015a      	lsls	r2, r3, #5
 8005f40:	68fb      	ldr	r3, [r7, #12]
 8005f42:	4413      	add	r3, r2
 8005f44:	f503 6330 	add.w	r3, r3, #2816	@ 0xb00
 8005f48:	461a      	mov	r2, r3
 8005f4a:	f04f 6300 	mov.w	r3, #134217728	@ 0x8000000
 8005f4e:	6013      	str	r3, [r2, #0]
 8005f50:	e013      	b.n	8005f7a <USB_DevInit+0x202>
      }
      else
      {
        USBx_OUTEP(i)->DOEPCTL = USB_OTG_DOEPCTL_EPDIS | USB_OTG_DOEPCTL_SNAK;
 8005f52:	693b      	ldr	r3, [r7, #16]
 8005f54:	015a      	lsls	r2, r3, #5
 8005f56:	68fb      	ldr	r3, [r7, #12]
 8005f58:	4413      	add	r3, r2
 8005f5a:	f503 6330 	add.w	r3, r3, #2816	@ 0xb00
 8005f5e:	461a      	mov	r2, r3
 8005f60:	f04f 4390 	mov.w	r3, #1207959552	@ 0x48000000
 8005f64:	6013      	str	r3, [r2, #0]
 8005f66:	e008      	b.n	8005f7a <USB_DevInit+0x202>
      }
    }
    else
    {
      USBx_OUTEP(i)->DOEPCTL = 0U;
 8005f68:	693b      	ldr	r3, [r7, #16]
 8005f6a:	015a      	lsls	r2, r3, #5
 8005f6c:	68fb      	ldr	r3, [r7, #12]
 8005f6e:	4413      	add	r3, r2
 8005f70:	f503 6330 	add.w	r3, r3, #2816	@ 0xb00
 8005f74:	461a      	mov	r2, r3
 8005f76:	2300      	movs	r3, #0
 8005f78:	6013      	str	r3, [r2, #0]
    }

    USBx_OUTEP(i)->DOEPTSIZ = 0U;
 8005f7a:	693b      	ldr	r3, [r7, #16]
 8005f7c:	015a      	lsls	r2, r3, #5
 8005f7e:	68fb      	ldr	r3, [r7, #12]
 8005f80:	4413      	add	r3, r2
 8005f82:	f503 6330 	add.w	r3, r3, #2816	@ 0xb00
 8005f86:	461a      	mov	r2, r3
 8005f88:	2300      	movs	r3, #0
 8005f8a:	6113      	str	r3, [r2, #16]
    USBx_OUTEP(i)->DOEPINT  = 0xFB7FU;
 8005f8c:	693b      	ldr	r3, [r7, #16]
 8005f8e:	015a      	lsls	r2, r3, #5
 8005f90:	68fb      	ldr	r3, [r7, #12]
 8005f92:	4413      	add	r3, r2
 8005f94:	f503 6330 	add.w	r3, r3, #2816	@ 0xb00
 8005f98:	461a      	mov	r2, r3
 8005f9a:	f64f 337f 	movw	r3, #64383	@ 0xfb7f
 8005f9e:	6093      	str	r3, [r2, #8]
  for (i = 0U; i < cfg.dev_endpoints; i++)
 8005fa0:	693b      	ldr	r3, [r7, #16]
 8005fa2:	3301      	adds	r3, #1
 8005fa4:	613b      	str	r3, [r7, #16]
 8005fa6:	f897 3024 	ldrb.w	r3, [r7, #36]	@ 0x24
 8005faa:	461a      	mov	r2, r3
 8005fac:	693b      	ldr	r3, [r7, #16]
 8005fae:	4293      	cmp	r3, r2
 8005fb0:	d3b5      	bcc.n	8005f1e <USB_DevInit+0x1a6>
  }

  USBx_DEVICE->DIEPMSK &= ~(USB_OTG_DIEPMSK_TXFURM);
 8005fb2:	68fb      	ldr	r3, [r7, #12]
 8005fb4:	f503 6300 	add.w	r3, r3, #2048	@ 0x800
 8005fb8:	691b      	ldr	r3, [r3, #16]
 8005fba:	68fa      	ldr	r2, [r7, #12]
 8005fbc:	f502 6200 	add.w	r2, r2, #2048	@ 0x800
 8005fc0:	f423 7380 	bic.w	r3, r3, #256	@ 0x100
 8005fc4:	6113      	str	r3, [r2, #16]

  /* Disable all interrupts. */
  USBx->GINTMSK = 0U;
 8005fc6:	687b      	ldr	r3, [r7, #4]
 8005fc8:	2200      	movs	r2, #0
 8005fca:	619a      	str	r2, [r3, #24]

  /* Clear any pending interrupts */
  USBx->GINTSTS = 0xBFFFFFFFU;
 8005fcc:	687b      	ldr	r3, [r7, #4]
 8005fce:	f06f 4280 	mvn.w	r2, #1073741824	@ 0x40000000
 8005fd2:	615a      	str	r2, [r3, #20]

  /* Enable the common interrupts */
  if (cfg.dma_enable == 0U)
 8005fd4:	f897 3026 	ldrb.w	r3, [r7, #38]	@ 0x26
 8005fd8:	2b00      	cmp	r3, #0
 8005fda:	d105      	bne.n	8005fe8 <USB_DevInit+0x270>
  {
    USBx->GINTMSK |= USB_OTG_GINTMSK_RXFLVLM;
 8005fdc:	687b      	ldr	r3, [r7, #4]
 8005fde:	699b      	ldr	r3, [r3, #24]
 8005fe0:	f043 0210 	orr.w	r2, r3, #16
 8005fe4:	687b      	ldr	r3, [r7, #4]
 8005fe6:	619a      	str	r2, [r3, #24]
  }

  /* Enable interrupts matching to the Device mode ONLY */
  USBx->GINTMSK |= USB_OTG_GINTMSK_USBSUSPM | USB_OTG_GINTMSK_USBRST |
 8005fe8:	687b      	ldr	r3, [r7, #4]
 8005fea:	699a      	ldr	r2, [r3, #24]
 8005fec:	4b0f      	ldr	r3, [pc, #60]	@ (800602c <USB_DevInit+0x2b4>)
 8005fee:	4313      	orrs	r3, r2
 8005ff0:	687a      	ldr	r2, [r7, #4]
 8005ff2:	6193      	str	r3, [r2, #24]
                   USB_OTG_GINTMSK_ENUMDNEM | USB_OTG_GINTMSK_IEPINT |
                   USB_OTG_GINTMSK_OEPINT   | USB_OTG_GINTMSK_IISOIXFRM |
                   USB_OTG_GINTMSK_PXFRM_IISOOXFRM | USB_OTG_GINTMSK_WUIM;

  if (cfg.Sof_enable != 0U)
 8005ff4:	f897 302a 	ldrb.w	r3, [r7, #42]	@ 0x2a
 8005ff8:	2b00      	cmp	r3, #0
 8005ffa:	d005      	beq.n	8006008 <USB_DevInit+0x290>
  {
    USBx->GINTMSK |= USB_OTG_GINTMSK_SOFM;
 8005ffc:	687b      	ldr	r3, [r7, #4]
 8005ffe:	699b      	ldr	r3, [r3, #24]
 8006000:	f043 0208 	orr.w	r2, r3, #8
 8006004:	687b      	ldr	r3, [r7, #4]
 8006006:	619a      	str	r2, [r3, #24]
  }

  if (cfg.vbus_sensing_enable == 1U)
 8006008:	f897 302e 	ldrb.w	r3, [r7, #46]	@ 0x2e
 800600c:	2b01      	cmp	r3, #1
 800600e:	d105      	bne.n	800601c <USB_DevInit+0x2a4>
  {
    USBx->GINTMSK |= (USB_OTG_GINTMSK_SRQIM | USB_OTG_GINTMSK_OTGINT);
 8006010:	687b      	ldr	r3, [r7, #4]
 8006012:	699a      	ldr	r2, [r3, #24]
 8006014:	4b06      	ldr	r3, [pc, #24]	@ (8006030 <USB_DevInit+0x2b8>)
 8006016:	4313      	orrs	r3, r2
 8006018:	687a      	ldr	r2, [r7, #4]
 800601a:	6193      	str	r3, [r2, #24]
  }

  return ret;
 800601c:	7dfb      	ldrb	r3, [r7, #23]
}
 800601e:	4618      	mov	r0, r3
 8006020:	3718      	adds	r7, #24
 8006022:	46bd      	mov	sp, r7
 8006024:	e8bd 4080 	ldmia.w	sp!, {r7, lr}
 8006028:	b004      	add	sp, #16
 800602a:	4770      	bx	lr
 800602c:	803c3800 	.word	0x803c3800
 8006030:	40000004 	.word	0x40000004

08006034 <USB_FlushTxFifo>:
  *         This parameter can be a value from 1 to 15
            15 means Flush all Tx FIFOs
  * @retval HAL status
  */
HAL_StatusTypeDef USB_FlushTxFifo(USB_OTG_GlobalTypeDef *USBx, uint32_t num)
{
 8006034:	b480      	push	{r7}
 8006036:	b085      	sub	sp, #20
 8006038:	af00      	add	r7, sp, #0
 800603a:	6078      	str	r0, [r7, #4]
 800603c:	6039      	str	r1, [r7, #0]
  __IO uint32_t count = 0U;
 800603e:	2300      	movs	r3, #0
 8006040:	60fb      	str	r3, [r7, #12]

  /* Wait for AHB master IDLE state. */
  do
  {
    count++;
 8006042:	68fb      	ldr	r3, [r7, #12]
 8006044:	3301      	adds	r3, #1
 8006046:	60fb      	str	r3, [r7, #12]

    if (count > HAL_USB_TIMEOUT)
 8006048:	68fb      	ldr	r3, [r7, #12]
 800604a:	f1b3 6f70 	cmp.w	r3, #251658240	@ 0xf000000
 800604e:	d901      	bls.n	8006054 <USB_FlushTxFifo+0x20>
    {
      return HAL_TIMEOUT;
 8006050:	2303      	movs	r3, #3
 8006052:	e01b      	b.n	800608c <USB_FlushTxFifo+0x58>
    }
  } while ((USBx->GRSTCTL & USB_OTG_GRSTCTL_AHBIDL) == 0U);
 8006054:	687b      	ldr	r3, [r7, #4]
 8006056:	691b      	ldr	r3, [r3, #16]
 8006058:	2b00      	cmp	r3, #0
 800605a:	daf2      	bge.n	8006042 <USB_FlushTxFifo+0xe>

  /* Flush TX Fifo */
  count = 0U;
 800605c:	2300      	movs	r3, #0
 800605e:	60fb      	str	r3, [r7, #12]
  USBx->GRSTCTL = (USB_OTG_GRSTCTL_TXFFLSH | (num << 6));
 8006060:	683b      	ldr	r3, [r7, #0]
 8006062:	019b      	lsls	r3, r3, #6
 8006064:	f043 0220 	orr.w	r2, r3, #32
 8006068:	687b      	ldr	r3, [r7, #4]
 800606a:	611a      	str	r2, [r3, #16]

  do
  {
    count++;
 800606c:	68fb      	ldr	r3, [r7, #12]
 800606e:	3301      	adds	r3, #1
 8006070:	60fb      	str	r3, [r7, #12]

    if (count > HAL_USB_TIMEOUT)
 8006072:	68fb      	ldr	r3, [r7, #12]
 8006074:	f1b3 6f70 	cmp.w	r3, #251658240	@ 0xf000000
 8006078:	d901      	bls.n	800607e <USB_FlushTxFifo+0x4a>
    {
      return HAL_TIMEOUT;
 800607a:	2303      	movs	r3, #3
 800607c:	e006      	b.n	800608c <USB_FlushTxFifo+0x58>
    }
  } while ((USBx->GRSTCTL & USB_OTG_GRSTCTL_TXFFLSH) == USB_OTG_GRSTCTL_TXFFLSH);
 800607e:	687b      	ldr	r3, [r7, #4]
 8006080:	691b      	ldr	r3, [r3, #16]
 8006082:	f003 0320 	and.w	r3, r3, #32
 8006086:	2b20      	cmp	r3, #32
 8006088:	d0f0      	beq.n	800606c <USB_FlushTxFifo+0x38>

  return HAL_OK;
 800608a:	2300      	movs	r3, #0
}
 800608c:	4618      	mov	r0, r3
 800608e:	3714      	adds	r7, #20
 8006090:	46bd      	mov	sp, r7
 8006092:	f85d 7b04 	ldr.w	r7, [sp], #4
 8006096:	4770      	bx	lr

08006098 <USB_FlushRxFifo>:
  * @brief  USB_FlushRxFifo  Flush Rx FIFO
  * @param  USBx  Selected device
  * @retval HAL status
  */
HAL_StatusTypeDef USB_FlushRxFifo(USB_OTG_GlobalTypeDef *USBx)
{
 8006098:	b480      	push	{r7}
 800609a:	b085      	sub	sp, #20
 800609c:	af00      	add	r7, sp, #0
 800609e:	6078      	str	r0, [r7, #4]
  __IO uint32_t count = 0U;
 80060a0:	2300      	movs	r3, #0
 80060a2:	60fb      	str	r3, [r7, #12]

  /* Wait for AHB master IDLE state. */
  do
  {
    count++;
 80060a4:	68fb      	ldr	r3, [r7, #12]
 80060a6:	3301      	adds	r3, #1
 80060a8:	60fb      	str	r3, [r7, #12]

    if (count > HAL_USB_TIMEOUT)
 80060aa:	68fb      	ldr	r3, [r7, #12]
 80060ac:	f1b3 6f70 	cmp.w	r3, #251658240	@ 0xf000000
 80060b0:	d901      	bls.n	80060b6 <USB_FlushRxFifo+0x1e>
    {
      return HAL_TIMEOUT;
 80060b2:	2303      	movs	r3, #3
 80060b4:	e018      	b.n	80060e8 <USB_FlushRxFifo+0x50>
    }
  } while ((USBx->GRSTCTL & USB_OTG_GRSTCTL_AHBIDL) == 0U);
 80060b6:	687b      	ldr	r3, [r7, #4]
 80060b8:	691b      	ldr	r3, [r3, #16]
 80060ba:	2b00      	cmp	r3, #0
 80060bc:	daf2      	bge.n	80060a4 <USB_FlushRxFifo+0xc>

  /* Flush RX Fifo */
  count = 0U;
 80060be:	2300      	movs	r3, #0
 80060c0:	60fb      	str	r3, [r7, #12]
  USBx->GRSTCTL = USB_OTG_GRSTCTL_RXFFLSH;
 80060c2:	687b      	ldr	r3, [r7, #4]
 80060c4:	2210      	movs	r2, #16
 80060c6:	611a      	str	r2, [r3, #16]

  do
  {
    count++;
 80060c8:	68fb      	ldr	r3, [r7, #12]
 80060ca:	3301      	adds	r3, #1
 80060cc:	60fb      	str	r3, [r7, #12]

    if (count > HAL_USB_TIMEOUT)
 80060ce:	68fb      	ldr	r3, [r7, #12]
 80060d0:	f1b3 6f70 	cmp.w	r3, #251658240	@ 0xf000000
 80060d4:	d901      	bls.n	80060da <USB_FlushRxFifo+0x42>
    {
      return HAL_TIMEOUT;
 80060d6:	2303      	movs	r3, #3
 80060d8:	e006      	b.n	80060e8 <USB_FlushRxFifo+0x50>
    }
  } while ((USBx->GRSTCTL & USB_OTG_GRSTCTL_RXFFLSH) == USB_OTG_GRSTCTL_RXFFLSH);
 80060da:	687b      	ldr	r3, [r7, #4]
 80060dc:	691b      	ldr	r3, [r3, #16]
 80060de:	f003 0310 	and.w	r3, r3, #16
 80060e2:	2b10      	cmp	r3, #16
 80060e4:	d0f0      	beq.n	80060c8 <USB_FlushRxFifo+0x30>

  return HAL_OK;
 80060e6:	2300      	movs	r3, #0
}
 80060e8:	4618      	mov	r0, r3
 80060ea:	3714      	adds	r7, #20
 80060ec:	46bd      	mov	sp, r7
 80060ee:	f85d 7b04 	ldr.w	r7, [sp], #4
 80060f2:	4770      	bx	lr

080060f4 <USB_SetDevSpeed>:
  *            @arg USB_OTG_SPEED_HIGH_IN_FULL: High speed core in Full Speed mode
  *            @arg USB_OTG_SPEED_FULL: Full speed mode
  * @retval  Hal status
  */
HAL_StatusTypeDef USB_SetDevSpeed(const USB_OTG_GlobalTypeDef *USBx, uint8_t speed)
{
 80060f4:	b480      	push	{r7}
 80060f6:	b085      	sub	sp, #20
 80060f8:	af00      	add	r7, sp, #0
 80060fa:	6078      	str	r0, [r7, #4]
 80060fc:	460b      	mov	r3, r1
 80060fe:	70fb      	strb	r3, [r7, #3]
  uint32_t USBx_BASE = (uint32_t)USBx;
 8006100:	687b      	ldr	r3, [r7, #4]
 8006102:	60fb      	str	r3, [r7, #12]

  USBx_DEVICE->DCFG |= speed;
 8006104:	68fb      	ldr	r3, [r7, #12]
 8006106:	f503 6300 	add.w	r3, r3, #2048	@ 0x800
 800610a:	681a      	ldr	r2, [r3, #0]
 800610c:	78fb      	ldrb	r3, [r7, #3]
 800610e:	68f9      	ldr	r1, [r7, #12]
 8006110:	f501 6100 	add.w	r1, r1, #2048	@ 0x800
 8006114:	4313      	orrs	r3, r2
 8006116:	600b      	str	r3, [r1, #0]
  return HAL_OK;
 8006118:	2300      	movs	r3, #0
}
 800611a:	4618      	mov	r0, r3
 800611c:	3714      	adds	r7, #20
 800611e:	46bd      	mov	sp, r7
 8006120:	f85d 7b04 	ldr.w	r7, [sp], #4
 8006124:	4770      	bx	lr

08006126 <USB_GetDevSpeed>:
  *          This parameter can be one of these values:
  *            @arg USBD_HS_SPEED: High speed mode
  *            @arg USBD_FS_SPEED: Full speed mode
  */
uint8_t USB_GetDevSpeed(const USB_OTG_GlobalTypeDef *USBx)
{
 8006126:	b480      	push	{r7}
 8006128:	b087      	sub	sp, #28
 800612a:	af00      	add	r7, sp, #0
 800612c:	6078      	str	r0, [r7, #4]
  uint32_t USBx_BASE = (uint32_t)USBx;
 800612e:	687b      	ldr	r3, [r7, #4]
 8006130:	613b      	str	r3, [r7, #16]
  uint8_t speed;
  uint32_t DevEnumSpeed = USBx_DEVICE->DSTS & USB_OTG_DSTS_ENUMSPD;
 8006132:	693b      	ldr	r3, [r7, #16]
 8006134:	f503 6300 	add.w	r3, r3, #2048	@ 0x800
 8006138:	689b      	ldr	r3, [r3, #8]
 800613a:	f003 0306 	and.w	r3, r3, #6
 800613e:	60fb      	str	r3, [r7, #12]

  if (DevEnumSpeed == DSTS_ENUMSPD_HS_PHY_30MHZ_OR_60MHZ)
 8006140:	68fb      	ldr	r3, [r7, #12]
 8006142:	2b00      	cmp	r3, #0
 8006144:	d102      	bne.n	800614c <USB_GetDevSpeed+0x26>
  {
    speed = USBD_HS_SPEED;
 8006146:	2300      	movs	r3, #0
 8006148:	75fb      	strb	r3, [r7, #23]
 800614a:	e00a      	b.n	8006162 <USB_GetDevSpeed+0x3c>
  }
  else if ((DevEnumSpeed == DSTS_ENUMSPD_FS_PHY_30MHZ_OR_60MHZ) ||
 800614c:	68fb      	ldr	r3, [r7, #12]
 800614e:	2b02      	cmp	r3, #2
 8006150:	d002      	beq.n	8006158 <USB_GetDevSpeed+0x32>
 8006152:	68fb      	ldr	r3, [r7, #12]
 8006154:	2b06      	cmp	r3, #6
 8006156:	d102      	bne.n	800615e <USB_GetDevSpeed+0x38>
           (DevEnumSpeed == DSTS_ENUMSPD_FS_PHY_48MHZ))
  {
    speed = USBD_FS_SPEED;
 8006158:	2302      	movs	r3, #2
 800615a:	75fb      	strb	r3, [r7, #23]
 800615c:	e001      	b.n	8006162 <USB_GetDevSpeed+0x3c>
  }
  else
  {
    speed = 0xFU;
 800615e:	230f      	movs	r3, #15
 8006160:	75fb      	strb	r3, [r7, #23]
  }

  return speed;
 8006162:	7dfb      	ldrb	r3, [r7, #23]
}
 8006164:	4618      	mov	r0, r3
 8006166:	371c      	adds	r7, #28
 8006168:	46bd      	mov	sp, r7
 800616a:	f85d 7b04 	ldr.w	r7, [sp], #4
 800616e:	4770      	bx	lr

08006170 <USB_ActivateEndpoint>:
  * @param  USBx  Selected device
  * @param  ep pointer to endpoint structure
  * @retval HAL status
  */
HAL_StatusTypeDef USB_ActivateEndpoint(const USB_OTG_GlobalTypeDef *USBx, const USB_OTG_EPTypeDef *ep)
{
 8006170:	b480      	push	{r7}
 8006172:	b085      	sub	sp, #20
 8006174:	af00      	add	r7, sp, #0
 8006176:	6078      	str	r0, [r7, #4]
 8006178:	6039      	str	r1, [r7, #0]
  uint32_t USBx_BASE = (uint32_t)USBx;
 800617a:	687b      	ldr	r3, [r7, #4]
 800617c:	60fb      	str	r3, [r7, #12]
  uint32_t epnum = (uint32_t)ep->num;
 800617e:	683b      	ldr	r3, [r7, #0]
 8006180:	781b      	ldrb	r3, [r3, #0]
 8006182:	60bb      	str	r3, [r7, #8]

  if (ep->is_in == 1U)
 8006184:	683b      	ldr	r3, [r7, #0]
 8006186:	785b      	ldrb	r3, [r3, #1]
 8006188:	2b01      	cmp	r3, #1
 800618a:	d139      	bne.n	8006200 <USB_ActivateEndpoint+0x90>
  {
    USBx_DEVICE->DAINTMSK |= USB_OTG_DAINTMSK_IEPM & (uint32_t)(1UL << (ep->num & EP_ADDR_MSK));
 800618c:	68fb      	ldr	r3, [r7, #12]
 800618e:	f503 6300 	add.w	r3, r3, #2048	@ 0x800
 8006192:	69da      	ldr	r2, [r3, #28]
 8006194:	683b      	ldr	r3, [r7, #0]
 8006196:	781b      	ldrb	r3, [r3, #0]
 8006198:	f003 030f 	and.w	r3, r3, #15
 800619c:	2101      	movs	r1, #1
 800619e:	fa01 f303 	lsl.w	r3, r1, r3
 80061a2:	b29b      	uxth	r3, r3
 80061a4:	68f9      	ldr	r1, [r7, #12]
 80061a6:	f501 6100 	add.w	r1, r1, #2048	@ 0x800
 80061aa:	4313      	orrs	r3, r2
 80061ac:	61cb      	str	r3, [r1, #28]

    if ((USBx_INEP(epnum)->DIEPCTL & USB_OTG_DIEPCTL_USBAEP) == 0U)
 80061ae:	68bb      	ldr	r3, [r7, #8]
 80061b0:	015a      	lsls	r2, r3, #5
 80061b2:	68fb      	ldr	r3, [r7, #12]
 80061b4:	4413      	add	r3, r2
 80061b6:	f503 6310 	add.w	r3, r3, #2304	@ 0x900
 80061ba:	681b      	ldr	r3, [r3, #0]
 80061bc:	f403 4300 	and.w	r3, r3, #32768	@ 0x8000
 80061c0:	2b00      	cmp	r3, #0
 80061c2:	d153      	bne.n	800626c <USB_ActivateEndpoint+0xfc>
    {
      USBx_INEP(epnum)->DIEPCTL |= (ep->maxpacket & USB_OTG_DIEPCTL_MPSIZ) |
 80061c4:	68bb      	ldr	r3, [r7, #8]
 80061c6:	015a      	lsls	r2, r3, #5
 80061c8:	68fb      	ldr	r3, [r7, #12]
 80061ca:	4413      	add	r3, r2
 80061cc:	f503 6310 	add.w	r3, r3, #2304	@ 0x900
 80061d0:	681a      	ldr	r2, [r3, #0]
 80061d2:	683b      	ldr	r3, [r7, #0]
 80061d4:	689b      	ldr	r3, [r3, #8]
 80061d6:	f3c3 010a 	ubfx	r1, r3, #0, #11
                                   ((uint32_t)ep->type << 18) | (epnum << 22) |
 80061da:	683b      	ldr	r3, [r7, #0]
 80061dc:	791b      	ldrb	r3, [r3, #4]
 80061de:	049b      	lsls	r3, r3, #18
      USBx_INEP(epnum)->DIEPCTL |= (ep->maxpacket & USB_OTG_DIEPCTL_MPSIZ) |
 80061e0:	4319      	orrs	r1, r3
                                   ((uint32_t)ep->type << 18) | (epnum << 22) |
 80061e2:	68bb      	ldr	r3, [r7, #8]
 80061e4:	059b      	lsls	r3, r3, #22
 80061e6:	430b      	orrs	r3, r1
      USBx_INEP(epnum)->DIEPCTL |= (ep->maxpacket & USB_OTG_DIEPCTL_MPSIZ) |
 80061e8:	431a      	orrs	r2, r3
 80061ea:	68bb      	ldr	r3, [r7, #8]
 80061ec:	0159      	lsls	r1, r3, #5
 80061ee:	68fb      	ldr	r3, [r7, #12]
 80061f0:	440b      	add	r3, r1
 80061f2:	f503 6310 	add.w	r3, r3, #2304	@ 0x900
 80061f6:	4619      	mov	r1, r3
 80061f8:	4b20      	ldr	r3, [pc, #128]	@ (800627c <USB_ActivateEndpoint+0x10c>)
 80061fa:	4313      	orrs	r3, r2
 80061fc:	600b      	str	r3, [r1, #0]
 80061fe:	e035      	b.n	800626c <USB_ActivateEndpoint+0xfc>
                                   USB_OTG_DIEPCTL_USBAEP;
    }
  }
  else
  {
    USBx_DEVICE->DAINTMSK |= USB_OTG_DAINTMSK_OEPM & ((uint32_t)(1UL << (ep->num & EP_ADDR_MSK)) << 16);
 8006200:	68fb      	ldr	r3, [r7, #12]
 8006202:	f503 6300 	add.w	r3, r3, #2048	@ 0x800
 8006206:	69da      	ldr	r2, [r3, #28]
 8006208:	683b      	ldr	r3, [r7, #0]
 800620a:	781b      	ldrb	r3, [r3, #0]
 800620c:	f003 030f 	and.w	r3, r3, #15
 8006210:	2101      	movs	r1, #1
 8006212:	fa01 f303 	lsl.w	r3, r1, r3
 8006216:	041b      	lsls	r3, r3, #16
 8006218:	68f9      	ldr	r1, [r7, #12]
 800621a:	f501 6100 	add.w	r1, r1, #2048	@ 0x800
 800621e:	4313      	orrs	r3, r2
 8006220:	61cb      	str	r3, [r1, #28]

    if (((USBx_OUTEP(epnum)->DOEPCTL) & USB_OTG_DOEPCTL_USBAEP) == 0U)
 8006222:	68bb      	ldr	r3, [r7, #8]
 8006224:	015a      	lsls	r2, r3, #5
 8006226:	68fb      	ldr	r3, [r7, #12]
 8006228:	4413      	add	r3, r2
 800622a:	f503 6330 	add.w	r3, r3, #2816	@ 0xb00
 800622e:	681b      	ldr	r3, [r3, #0]
 8006230:	f403 4300 	and.w	r3, r3, #32768	@ 0x8000
 8006234:	2b00      	cmp	r3, #0
 8006236:	d119      	bne.n	800626c <USB_ActivateEndpoint+0xfc>
    {
      USBx_OUTEP(epnum)->DOEPCTL |= (ep->maxpacket & USB_OTG_DOEPCTL_MPSIZ) |
 8006238:	68bb      	ldr	r3, [r7, #8]
 800623a:	015a      	lsls	r2, r3, #5
 800623c:	68fb      	ldr	r3, [r7, #12]
 800623e:	4413      	add	r3, r2
 8006240:	f503 6330 	add.w	r3, r3, #2816	@ 0xb00
 8006244:	681a      	ldr	r2, [r3, #0]
 8006246:	683b      	ldr	r3, [r7, #0]
 8006248:	689b      	ldr	r3, [r3, #8]
 800624a:	f3c3 010a 	ubfx	r1, r3, #0, #11
                                    ((uint32_t)ep->type << 18) |
 800624e:	683b      	ldr	r3, [r7, #0]
 8006250:	791b      	ldrb	r3, [r3, #4]
 8006252:	049b      	lsls	r3, r3, #18
      USBx_OUTEP(epnum)->DOEPCTL |= (ep->maxpacket & USB_OTG_DOEPCTL_MPSIZ) |
 8006254:	430b      	orrs	r3, r1
 8006256:	431a      	orrs	r2, r3
 8006258:	68bb      	ldr	r3, [r7, #8]
 800625a:	0159      	lsls	r1, r3, #5
 800625c:	68fb      	ldr	r3, [r7, #12]
 800625e:	440b      	add	r3, r1
 8006260:	f503 6330 	add.w	r3, r3, #2816	@ 0xb00
 8006264:	4619      	mov	r1, r3
 8006266:	4b05      	ldr	r3, [pc, #20]	@ (800627c <USB_ActivateEndpoint+0x10c>)
 8006268:	4313      	orrs	r3, r2
 800626a:	600b      	str	r3, [r1, #0]
                                    USB_OTG_DIEPCTL_SD0PID_SEVNFRM |
                                    USB_OTG_DOEPCTL_USBAEP;
    }
  }
  return HAL_OK;
 800626c:	2300      	movs	r3, #0
}
 800626e:	4618      	mov	r0, r3
 8006270:	3714      	adds	r7, #20
 8006272:	46bd      	mov	sp, r7
 8006274:	f85d 7b04 	ldr.w	r7, [sp], #4
 8006278:	4770      	bx	lr
 800627a:	bf00      	nop
 800627c:	10008000 	.word	0x10008000

08006280 <USB_DeactivateEndpoint>:
  * @param  USBx  Selected device
  * @param  ep pointer to endpoint structure
  * @retval HAL status
  */
HAL_StatusTypeDef USB_DeactivateEndpoint(const USB_OTG_GlobalTypeDef *USBx, const USB_OTG_EPTypeDef *ep)
{
 8006280:	b480      	push	{r7}
 8006282:	b085      	sub	sp, #20
 8006284:	af00      	add	r7, sp, #0
 8006286:	6078      	str	r0, [r7, #4]
 8006288:	6039      	str	r1, [r7, #0]
  uint32_t USBx_BASE = (uint32_t)USBx;
 800628a:	687b      	ldr	r3, [r7, #4]
 800628c:	60fb      	str	r3, [r7, #12]
  uint32_t epnum = (uint32_t)ep->num;
 800628e:	683b      	ldr	r3, [r7, #0]
 8006290:	781b      	ldrb	r3, [r3, #0]
 8006292:	60bb      	str	r3, [r7, #8]

  /* Read DEPCTLn register */
  if (ep->is_in == 1U)
 8006294:	683b      	ldr	r3, [r7, #0]
 8006296:	785b      	ldrb	r3, [r3, #1]
 8006298:	2b01      	cmp	r3, #1
 800629a:	d161      	bne.n	8006360 <USB_DeactivateEndpoint+0xe0>
  {
    if ((USBx_INEP(epnum)->DIEPCTL & USB_OTG_DIEPCTL_EPENA) == USB_OTG_DIEPCTL_EPENA)
 800629c:	68bb      	ldr	r3, [r7, #8]
 800629e:	015a      	lsls	r2, r3, #5
 80062a0:	68fb      	ldr	r3, [r7, #12]
 80062a2:	4413      	add	r3, r2
 80062a4:	f503 6310 	add.w	r3, r3, #2304	@ 0x900
 80062a8:	681b      	ldr	r3, [r3, #0]
 80062aa:	f003 4300 	and.w	r3, r3, #2147483648	@ 0x80000000
 80062ae:	f1b3 4f00 	cmp.w	r3, #2147483648	@ 0x80000000
 80062b2:	d11f      	bne.n	80062f4 <USB_DeactivateEndpoint+0x74>
    {
      USBx_INEP(epnum)->DIEPCTL |= USB_OTG_DIEPCTL_SNAK;
 80062b4:	68bb      	ldr	r3, [r7, #8]
 80062b6:	015a      	lsls	r2, r3, #5
 80062b8:	68fb      	ldr	r3, [r7, #12]
 80062ba:	4413      	add	r3, r2
 80062bc:	f503 6310 	add.w	r3, r3, #2304	@ 0x900
 80062c0:	681b      	ldr	r3, [r3, #0]
 80062c2:	68ba      	ldr	r2, [r7, #8]
 80062c4:	0151      	lsls	r1, r2, #5
 80062c6:	68fa      	ldr	r2, [r7, #12]
 80062c8:	440a      	add	r2, r1
 80062ca:	f502 6210 	add.w	r2, r2, #2304	@ 0x900
 80062ce:	f043 6300 	orr.w	r3, r3, #134217728	@ 0x8000000
 80062d2:	6013      	str	r3, [r2, #0]
      USBx_INEP(epnum)->DIEPCTL |= USB_OTG_DIEPCTL_EPDIS;
 80062d4:	68bb      	ldr	r3, [r7, #8]
 80062d6:	015a      	lsls	r2, r3, #5
 80062d8:	68fb      	ldr	r3, [r7, #12]
 80062da:	4413      	add	r3, r2
 80062dc:	f503 6310 	add.w	r3, r3, #2304	@ 0x900
 80062e0:	681b      	ldr	r3, [r3, #0]
 80062e2:	68ba      	ldr	r2, [r7, #8]
 80062e4:	0151      	lsls	r1, r2, #5
 80062e6:	68fa      	ldr	r2, [r7, #12]
 80062e8:	440a      	add	r2, r1
 80062ea:	f502 6210 	add.w	r2, r2, #2304	@ 0x900
 80062ee:	f043 4380 	orr.w	r3, r3, #1073741824	@ 0x40000000
 80062f2:	6013      	str	r3, [r2, #0]
    }

    USBx_DEVICE->DEACHMSK &= ~(USB_OTG_DAINTMSK_IEPM & (uint32_t)(1UL << (ep->num & EP_ADDR_MSK)));
 80062f4:	68fb      	ldr	r3, [r7, #12]
 80062f6:	f503 6300 	add.w	r3, r3, #2048	@ 0x800
 80062fa:	6bda      	ldr	r2, [r3, #60]	@ 0x3c
 80062fc:	683b      	ldr	r3, [r7, #0]
 80062fe:	781b      	ldrb	r3, [r3, #0]
 8006300:	f003 030f 	and.w	r3, r3, #15
 8006304:	2101      	movs	r1, #1
 8006306:	fa01 f303 	lsl.w	r3, r1, r3
 800630a:	b29b      	uxth	r3, r3
 800630c:	43db      	mvns	r3, r3
 800630e:	68f9      	ldr	r1, [r7, #12]
 8006310:	f501 6100 	add.w	r1, r1, #2048	@ 0x800
 8006314:	4013      	ands	r3, r2
 8006316:	63cb      	str	r3, [r1, #60]	@ 0x3c
    USBx_DEVICE->DAINTMSK &= ~(USB_OTG_DAINTMSK_IEPM & (uint32_t)(1UL << (ep->num & EP_ADDR_MSK)));
 8006318:	68fb      	ldr	r3, [r7, #12]
 800631a:	f503 6300 	add.w	r3, r3, #2048	@ 0x800
 800631e:	69da      	ldr	r2, [r3, #28]
 8006320:	683b      	ldr	r3, [r7, #0]
 8006322:	781b      	ldrb	r3, [r3, #0]
 8006324:	f003 030f 	and.w	r3, r3, #15
 8006328:	2101      	movs	r1, #1
 800632a:	fa01 f303 	lsl.w	r3, r1, r3
 800632e:	b29b      	uxth	r3, r3
 8006330:	43db      	mvns	r3, r3
 8006332:	68f9      	ldr	r1, [r7, #12]
 8006334:	f501 6100 	add.w	r1, r1, #2048	@ 0x800
 8006338:	4013      	ands	r3, r2
 800633a:	61cb      	str	r3, [r1, #28]
    USBx_INEP(epnum)->DIEPCTL &= ~(USB_OTG_DIEPCTL_USBAEP |
 800633c:	68bb      	ldr	r3, [r7, #8]
 800633e:	015a      	lsls	r2, r3, #5
 8006340:	68fb      	ldr	r3, [r7, #12]
 8006342:	4413      	add	r3, r2
 8006344:	f503 6310 	add.w	r3, r3, #2304	@ 0x900
 8006348:	681a      	ldr	r2, [r3, #0]
 800634a:	68bb      	ldr	r3, [r7, #8]
 800634c:	0159      	lsls	r1, r3, #5
 800634e:	68fb      	ldr	r3, [r7, #12]
 8006350:	440b      	add	r3, r1
 8006352:	f503 6310 	add.w	r3, r3, #2304	@ 0x900
 8006356:	4619      	mov	r1, r3
 8006358:	4b35      	ldr	r3, [pc, #212]	@ (8006430 <USB_DeactivateEndpoint+0x1b0>)
 800635a:	4013      	ands	r3, r2
 800635c:	600b      	str	r3, [r1, #0]
 800635e:	e060      	b.n	8006422 <USB_DeactivateEndpoint+0x1a2>
                                   USB_OTG_DIEPCTL_SD0PID_SEVNFRM |
                                   USB_OTG_DIEPCTL_EPTYP);
  }
  else
  {
    if ((USBx_OUTEP(epnum)->DOEPCTL & USB_OTG_DOEPCTL_EPENA) == USB_OTG_DOEPCTL_EPENA)
 8006360:	68bb      	ldr	r3, [r7, #8]
 8006362:	015a      	lsls	r2, r3, #5
 8006364:	68fb      	ldr	r3, [r7, #12]
 8006366:	4413      	add	r3, r2
 8006368:	f503 6330 	add.w	r3, r3, #2816	@ 0xb00
 800636c:	681b      	ldr	r3, [r3, #0]
 800636e:	f003 4300 	and.w	r3, r3, #2147483648	@ 0x80000000
 8006372:	f1b3 4f00 	cmp.w	r3, #2147483648	@ 0x80000000
 8006376:	d11f      	bne.n	80063b8 <USB_DeactivateEndpoint+0x138>
    {
      USBx_OUTEP(epnum)->DOEPCTL |= USB_OTG_DOEPCTL_SNAK;
 8006378:	68bb      	ldr	r3, [r7, #8]
 800637a:	015a      	lsls	r2, r3, #5
 800637c:	68fb      	ldr	r3, [r7, #12]
 800637e:	4413      	add	r3, r2
 8006380:	f503 6330 	add.w	r3, r3, #2816	@ 0xb00
 8006384:	681b      	ldr	r3, [r3, #0]
 8006386:	68ba      	ldr	r2, [r7, #8]
 8006388:	0151      	lsls	r1, r2, #5
 800638a:	68fa      	ldr	r2, [r7, #12]
 800638c:	440a      	add	r2, r1
 800638e:	f502 6230 	add.w	r2, r2, #2816	@ 0xb00
 8006392:	f043 6300 	orr.w	r3, r3, #134217728	@ 0x8000000
 8006396:	6013      	str	r3, [r2, #0]
      USBx_OUTEP(epnum)->DOEPCTL |= USB_OTG_DOEPCTL_EPDIS;
 8006398:	68bb      	ldr	r3, [r7, #8]
 800639a:	015a      	lsls	r2, r3, #5
 800639c:	68fb      	ldr	r3, [r7, #12]
 800639e:	4413      	add	r3, r2
 80063a0:	f503 6330 	add.w	r3, r3, #2816	@ 0xb00
 80063a4:	681b      	ldr	r3, [r3, #0]
 80063a6:	68ba      	ldr	r2, [r7, #8]
 80063a8:	0151      	lsls	r1, r2, #5
 80063aa:	68fa      	ldr	r2, [r7, #12]
 80063ac:	440a      	add	r2, r1
 80063ae:	f502 6230 	add.w	r2, r2, #2816	@ 0xb00
 80063b2:	f043 4380 	orr.w	r3, r3, #1073741824	@ 0x40000000
 80063b6:	6013      	str	r3, [r2, #0]
    }

    USBx_DEVICE->DEACHMSK &= ~(USB_OTG_DAINTMSK_OEPM & ((uint32_t)(1UL << (ep->num & EP_ADDR_MSK)) << 16));
 80063b8:	68fb      	ldr	r3, [r7, #12]
 80063ba:	f503 6300 	add.w	r3, r3, #2048	@ 0x800
 80063be:	6bda      	ldr	r2, [r3, #60]	@ 0x3c
 80063c0:	683b      	ldr	r3, [r7, #0]
 80063c2:	781b      	ldrb	r3, [r3, #0]
 80063c4:	f003 030f 	and.w	r3, r3, #15
 80063c8:	2101      	movs	r1, #1
 80063ca:	fa01 f303 	lsl.w	r3, r1, r3
 80063ce:	041b      	lsls	r3, r3, #16
 80063d0:	43db      	mvns	r3, r3
 80063d2:	68f9      	ldr	r1, [r7, #12]
 80063d4:	f501 6100 	add.w	r1, r1, #2048	@ 0x800
 80063d8:	4013      	ands	r3, r2
 80063da:	63cb      	str	r3, [r1, #60]	@ 0x3c
    USBx_DEVICE->DAINTMSK &= ~(USB_OTG_DAINTMSK_OEPM & ((uint32_t)(1UL << (ep->num & EP_ADDR_MSK)) << 16));
 80063dc:	68fb      	ldr	r3, [r7, #12]
 80063de:	f503 6300 	add.w	r3, r3, #2048	@ 0x800
 80063e2:	69da      	ldr	r2, [r3, #28]
 80063e4:	683b      	ldr	r3, [r7, #0]
 80063e6:	781b      	ldrb	r3, [r3, #0]
 80063e8:	f003 030f 	and.w	r3, r3, #15
 80063ec:	2101      	movs	r1, #1
 80063ee:	fa01 f303 	lsl.w	r3, r1, r3
 80063f2:	041b      	lsls	r3, r3, #16
 80063f4:	43db      	mvns	r3, r3
 80063f6:	68f9      	ldr	r1, [r7, #12]
 80063f8:	f501 6100 	add.w	r1, r1, #2048	@ 0x800
 80063fc:	4013      	ands	r3, r2
 80063fe:	61cb      	str	r3, [r1, #28]
    USBx_OUTEP(epnum)->DOEPCTL &= ~(USB_OTG_DOEPCTL_USBAEP |
 8006400:	68bb      	ldr	r3, [r7, #8]
 8006402:	015a      	lsls	r2, r3, #5
 8006404:	68fb      	ldr	r3, [r7, #12]
 8006406:	4413      	add	r3, r2
 8006408:	f503 6330 	add.w	r3, r3, #2816	@ 0xb00
 800640c:	681a      	ldr	r2, [r3, #0]
 800640e:	68bb      	ldr	r3, [r7, #8]
 8006410:	0159      	lsls	r1, r3, #5
 8006412:	68fb      	ldr	r3, [r7, #12]
 8006414:	440b      	add	r3, r1
 8006416:	f503 6330 	add.w	r3, r3, #2816	@ 0xb00
 800641a:	4619      	mov	r1, r3
 800641c:	4b05      	ldr	r3, [pc, #20]	@ (8006434 <USB_DeactivateEndpoint+0x1b4>)
 800641e:	4013      	ands	r3, r2
 8006420:	600b      	str	r3, [r1, #0]
                                    USB_OTG_DOEPCTL_MPSIZ |
                                    USB_OTG_DOEPCTL_SD0PID_SEVNFRM |
                                    USB_OTG_DOEPCTL_EPTYP);
  }

  return HAL_OK;
 8006422:	2300      	movs	r3, #0
}
 8006424:	4618      	mov	r0, r3
 8006426:	3714      	adds	r7, #20
 8006428:	46bd      	mov	sp, r7
 800642a:	f85d 7b04 	ldr.w	r7, [sp], #4
 800642e:	4770      	bx	lr
 8006430:	ec337800 	.word	0xec337800
 8006434:	eff37800 	.word	0xeff37800

08006438 <USB_EPStartXfer>:
  *           0 : DMA feature not used
  *           1 : DMA feature used
  * @retval HAL status
  */
HAL_StatusTypeDef USB_EPStartXfer(USB_OTG_GlobalTypeDef *USBx, USB_OTG_EPTypeDef *ep, uint8_t dma)
{
 8006438:	b580      	push	{r7, lr}
 800643a:	b08a      	sub	sp, #40	@ 0x28
 800643c:	af02      	add	r7, sp, #8
 800643e:	60f8      	str	r0, [r7, #12]
 8006440:	60b9      	str	r1, [r7, #8]
 8006442:	4613      	mov	r3, r2
 8006444:	71fb      	strb	r3, [r7, #7]
  uint32_t USBx_BASE = (uint32_t)USBx;
 8006446:	68fb      	ldr	r3, [r7, #12]
 8006448:	61fb      	str	r3, [r7, #28]
  uint32_t epnum = (uint32_t)ep->num;
 800644a:	68bb      	ldr	r3, [r7, #8]
 800644c:	781b      	ldrb	r3, [r3, #0]
 800644e:	61bb      	str	r3, [r7, #24]
  uint16_t pktcnt;

  /* IN endpoint */
  if (ep->is_in == 1U)
 8006450:	68bb      	ldr	r3, [r7, #8]
 8006452:	785b      	ldrb	r3, [r3, #1]
 8006454:	2b01      	cmp	r3, #1
 8006456:	f040 8185 	bne.w	8006764 <USB_EPStartXfer+0x32c>
  {
    /* Zero Length Packet? */
    if (ep->xfer_len == 0U)
 800645a:	68bb      	ldr	r3, [r7, #8]
 800645c:	691b      	ldr	r3, [r3, #16]
 800645e:	2b00      	cmp	r3, #0
 8006460:	d132      	bne.n	80064c8 <USB_EPStartXfer+0x90>
    {
      USBx_INEP(epnum)->DIEPTSIZ &= ~(USB_OTG_DIEPTSIZ_PKTCNT);
 8006462:	69bb      	ldr	r3, [r7, #24]
 8006464:	015a      	lsls	r2, r3, #5
 8006466:	69fb      	ldr	r3, [r7, #28]
 8006468:	4413      	add	r3, r2
 800646a:	f503 6310 	add.w	r3, r3, #2304	@ 0x900
 800646e:	691a      	ldr	r2, [r3, #16]
 8006470:	69bb      	ldr	r3, [r7, #24]
 8006472:	0159      	lsls	r1, r3, #5
 8006474:	69fb      	ldr	r3, [r7, #28]
 8006476:	440b      	add	r3, r1
 8006478:	f503 6310 	add.w	r3, r3, #2304	@ 0x900
 800647c:	4619      	mov	r1, r3
 800647e:	4ba7      	ldr	r3, [pc, #668]	@ (800671c <USB_EPStartXfer+0x2e4>)
 8006480:	4013      	ands	r3, r2
 8006482:	610b      	str	r3, [r1, #16]
      USBx_INEP(epnum)->DIEPTSIZ |= (USB_OTG_DIEPTSIZ_PKTCNT & (1UL << 19));
 8006484:	69bb      	ldr	r3, [r7, #24]
 8006486:	015a      	lsls	r2, r3, #5
 8006488:	69fb      	ldr	r3, [r7, #28]
 800648a:	4413      	add	r3, r2
 800648c:	f503 6310 	add.w	r3, r3, #2304	@ 0x900
 8006490:	691b      	ldr	r3, [r3, #16]
 8006492:	69ba      	ldr	r2, [r7, #24]
 8006494:	0151      	lsls	r1, r2, #5
 8006496:	69fa      	ldr	r2, [r7, #28]
 8006498:	440a      	add	r2, r1
 800649a:	f502 6210 	add.w	r2, r2, #2304	@ 0x900
 800649e:	f443 2300 	orr.w	r3, r3, #524288	@ 0x80000
 80064a2:	6113      	str	r3, [r2, #16]
      USBx_INEP(epnum)->DIEPTSIZ &= ~(USB_OTG_DIEPTSIZ_XFRSIZ);
 80064a4:	69bb      	ldr	r3, [r7, #24]
 80064a6:	015a      	lsls	r2, r3, #5
 80064a8:	69fb      	ldr	r3, [r7, #28]
 80064aa:	4413      	add	r3, r2
 80064ac:	f503 6310 	add.w	r3, r3, #2304	@ 0x900
 80064b0:	691a      	ldr	r2, [r3, #16]
 80064b2:	69bb      	ldr	r3, [r7, #24]
 80064b4:	0159      	lsls	r1, r3, #5
 80064b6:	69fb      	ldr	r3, [r7, #28]
 80064b8:	440b      	add	r3, r1
 80064ba:	f503 6310 	add.w	r3, r3, #2304	@ 0x900
 80064be:	4619      	mov	r1, r3
 80064c0:	4b97      	ldr	r3, [pc, #604]	@ (8006720 <USB_EPStartXfer+0x2e8>)
 80064c2:	4013      	ands	r3, r2
 80064c4:	610b      	str	r3, [r1, #16]
 80064c6:	e097      	b.n	80065f8 <USB_EPStartXfer+0x1c0>
      /* Program the transfer size and packet count
      * as follows: xfersize = N * maxpacket +
      * short_packet pktcnt = N + (short_packet
      * exist ? 1 : 0)
      */
      USBx_INEP(epnum)->DIEPTSIZ &= ~(USB_OTG_DIEPTSIZ_XFRSIZ);
 80064c8:	69bb      	ldr	r3, [r7, #24]
 80064ca:	015a      	lsls	r2, r3, #5
 80064cc:	69fb      	ldr	r3, [r7, #28]
 80064ce:	4413      	add	r3, r2
 80064d0:	f503 6310 	add.w	r3, r3, #2304	@ 0x900
 80064d4:	691a      	ldr	r2, [r3, #16]
 80064d6:	69bb      	ldr	r3, [r7, #24]
 80064d8:	0159      	lsls	r1, r3, #5
 80064da:	69fb      	ldr	r3, [r7, #28]
 80064dc:	440b      	add	r3, r1
 80064de:	f503 6310 	add.w	r3, r3, #2304	@ 0x900
 80064e2:	4619      	mov	r1, r3
 80064e4:	4b8e      	ldr	r3, [pc, #568]	@ (8006720 <USB_EPStartXfer+0x2e8>)
 80064e6:	4013      	ands	r3, r2
 80064e8:	610b      	str	r3, [r1, #16]
      USBx_INEP(epnum)->DIEPTSIZ &= ~(USB_OTG_DIEPTSIZ_PKTCNT);
 80064ea:	69bb      	ldr	r3, [r7, #24]
 80064ec:	015a      	lsls	r2, r3, #5
 80064ee:	69fb      	ldr	r3, [r7, #28]
 80064f0:	4413      	add	r3, r2
 80064f2:	f503 6310 	add.w	r3, r3, #2304	@ 0x900
 80064f6:	691a      	ldr	r2, [r3, #16]
 80064f8:	69bb      	ldr	r3, [r7, #24]
 80064fa:	0159      	lsls	r1, r3, #5
 80064fc:	69fb      	ldr	r3, [r7, #28]
 80064fe:	440b      	add	r3, r1
 8006500:	f503 6310 	add.w	r3, r3, #2304	@ 0x900
 8006504:	4619      	mov	r1, r3
 8006506:	4b85      	ldr	r3, [pc, #532]	@ (800671c <USB_EPStartXfer+0x2e4>)
 8006508:	4013      	ands	r3, r2
 800650a:	610b      	str	r3, [r1, #16]

      if (epnum == 0U)
 800650c:	69bb      	ldr	r3, [r7, #24]
 800650e:	2b00      	cmp	r3, #0
 8006510:	d11a      	bne.n	8006548 <USB_EPStartXfer+0x110>
      {
        if (ep->xfer_len > ep->maxpacket)
 8006512:	68bb      	ldr	r3, [r7, #8]
 8006514:	691a      	ldr	r2, [r3, #16]
 8006516:	68bb      	ldr	r3, [r7, #8]
 8006518:	689b      	ldr	r3, [r3, #8]
 800651a:	429a      	cmp	r2, r3
 800651c:	d903      	bls.n	8006526 <USB_EPStartXfer+0xee>
        {
          ep->xfer_len = ep->maxpacket;
 800651e:	68bb      	ldr	r3, [r7, #8]
 8006520:	689a      	ldr	r2, [r3, #8]
 8006522:	68bb      	ldr	r3, [r7, #8]
 8006524:	611a      	str	r2, [r3, #16]
        }

        USBx_INEP(epnum)->DIEPTSIZ |= (USB_OTG_DIEPTSIZ_PKTCNT & (1UL << 19));
 8006526:	69bb      	ldr	r3, [r7, #24]
 8006528:	015a      	lsls	r2, r3, #5
 800652a:	69fb      	ldr	r3, [r7, #28]
 800652c:	4413      	add	r3, r2
 800652e:	f503 6310 	add.w	r3, r3, #2304	@ 0x900
 8006532:	691b      	ldr	r3, [r3, #16]
 8006534:	69ba      	ldr	r2, [r7, #24]
 8006536:	0151      	lsls	r1, r2, #5
 8006538:	69fa      	ldr	r2, [r7, #28]
 800653a:	440a      	add	r2, r1
 800653c:	f502 6210 	add.w	r2, r2, #2304	@ 0x900
 8006540:	f443 2300 	orr.w	r3, r3, #524288	@ 0x80000
 8006544:	6113      	str	r3, [r2, #16]
 8006546:	e044      	b.n	80065d2 <USB_EPStartXfer+0x19a>
      }
      else
      {
        pktcnt = (uint16_t)((ep->xfer_len + ep->maxpacket - 1U) / ep->maxpacket);
 8006548:	68bb      	ldr	r3, [r7, #8]
 800654a:	691a      	ldr	r2, [r3, #16]
 800654c:	68bb      	ldr	r3, [r7, #8]
 800654e:	689b      	ldr	r3, [r3, #8]
 8006550:	4413      	add	r3, r2
 8006552:	1e5a      	subs	r2, r3, #1
 8006554:	68bb      	ldr	r3, [r7, #8]
 8006556:	689b      	ldr	r3, [r3, #8]
 8006558:	fbb2 f3f3 	udiv	r3, r2, r3
 800655c:	82fb      	strh	r3, [r7, #22]
        USBx_INEP(epnum)->DIEPTSIZ |= (USB_OTG_DIEPTSIZ_PKTCNT & ((uint32_t)pktcnt << 19));
 800655e:	69bb      	ldr	r3, [r7, #24]
 8006560:	015a      	lsls	r2, r3, #5
 8006562:	69fb      	ldr	r3, [r7, #28]
 8006564:	4413      	add	r3, r2
 8006566:	f503 6310 	add.w	r3, r3, #2304	@ 0x900
 800656a:	691a      	ldr	r2, [r3, #16]
 800656c:	8afb      	ldrh	r3, [r7, #22]
 800656e:	04d9      	lsls	r1, r3, #19
 8006570:	4b6c      	ldr	r3, [pc, #432]	@ (8006724 <USB_EPStartXfer+0x2ec>)
 8006572:	400b      	ands	r3, r1
 8006574:	69b9      	ldr	r1, [r7, #24]
 8006576:	0148      	lsls	r0, r1, #5
 8006578:	69f9      	ldr	r1, [r7, #28]
 800657a:	4401      	add	r1, r0
 800657c:	f501 6110 	add.w	r1, r1, #2304	@ 0x900
 8006580:	4313      	orrs	r3, r2
 8006582:	610b      	str	r3, [r1, #16]

        if (ep->type == EP_TYPE_ISOC)
 8006584:	68bb      	ldr	r3, [r7, #8]
 8006586:	791b      	ldrb	r3, [r3, #4]
 8006588:	2b01      	cmp	r3, #1
 800658a:	d122      	bne.n	80065d2 <USB_EPStartXfer+0x19a>
        {
          USBx_INEP(epnum)->DIEPTSIZ &= ~(USB_OTG_DIEPTSIZ_MULCNT);
 800658c:	69bb      	ldr	r3, [r7, #24]
 800658e:	015a      	lsls	r2, r3, #5
 8006590:	69fb      	ldr	r3, [r7, #28]
 8006592:	4413      	add	r3, r2
 8006594:	f503 6310 	add.w	r3, r3, #2304	@ 0x900
 8006598:	691b      	ldr	r3, [r3, #16]
 800659a:	69ba      	ldr	r2, [r7, #24]
 800659c:	0151      	lsls	r1, r2, #5
 800659e:	69fa      	ldr	r2, [r7, #28]
 80065a0:	440a      	add	r2, r1
 80065a2:	f502 6210 	add.w	r2, r2, #2304	@ 0x900
 80065a6:	f023 43c0 	bic.w	r3, r3, #1610612736	@ 0x60000000
 80065aa:	6113      	str	r3, [r2, #16]
          USBx_INEP(epnum)->DIEPTSIZ |= (USB_OTG_DIEPTSIZ_MULCNT & ((uint32_t)pktcnt << 29));
 80065ac:	69bb      	ldr	r3, [r7, #24]
 80065ae:	015a      	lsls	r2, r3, #5
 80065b0:	69fb      	ldr	r3, [r7, #28]
 80065b2:	4413      	add	r3, r2
 80065b4:	f503 6310 	add.w	r3, r3, #2304	@ 0x900
 80065b8:	691a      	ldr	r2, [r3, #16]
 80065ba:	8afb      	ldrh	r3, [r7, #22]
 80065bc:	075b      	lsls	r3, r3, #29
 80065be:	f003 43c0 	and.w	r3, r3, #1610612736	@ 0x60000000
 80065c2:	69b9      	ldr	r1, [r7, #24]
 80065c4:	0148      	lsls	r0, r1, #5
 80065c6:	69f9      	ldr	r1, [r7, #28]
 80065c8:	4401      	add	r1, r0
 80065ca:	f501 6110 	add.w	r1, r1, #2304	@ 0x900
 80065ce:	4313      	orrs	r3, r2
 80065d0:	610b      	str	r3, [r1, #16]
        }
      }

      USBx_INEP(epnum)->DIEPTSIZ |= (USB_OTG_DIEPTSIZ_XFRSIZ & ep->xfer_len);
 80065d2:	69bb      	ldr	r3, [r7, #24]
 80065d4:	015a      	lsls	r2, r3, #5
 80065d6:	69fb      	ldr	r3, [r7, #28]
 80065d8:	4413      	add	r3, r2
 80065da:	f503 6310 	add.w	r3, r3, #2304	@ 0x900
 80065de:	691a      	ldr	r2, [r3, #16]
 80065e0:	68bb      	ldr	r3, [r7, #8]
 80065e2:	691b      	ldr	r3, [r3, #16]
 80065e4:	f3c3 0312 	ubfx	r3, r3, #0, #19
 80065e8:	69b9      	ldr	r1, [r7, #24]
 80065ea:	0148      	lsls	r0, r1, #5
 80065ec:	69f9      	ldr	r1, [r7, #28]
 80065ee:	4401      	add	r1, r0
 80065f0:	f501 6110 	add.w	r1, r1, #2304	@ 0x900
 80065f4:	4313      	orrs	r3, r2
 80065f6:	610b      	str	r3, [r1, #16]
    }

    if (dma == 1U)
 80065f8:	79fb      	ldrb	r3, [r7, #7]
 80065fa:	2b01      	cmp	r3, #1
 80065fc:	d14b      	bne.n	8006696 <USB_EPStartXfer+0x25e>
    {
      if ((uint32_t)ep->dma_addr != 0U)
 80065fe:	68bb      	ldr	r3, [r7, #8]
 8006600:	69db      	ldr	r3, [r3, #28]
 8006602:	2b00      	cmp	r3, #0
 8006604:	d009      	beq.n	800661a <USB_EPStartXfer+0x1e2>
      {
        USBx_INEP(epnum)->DIEPDMA = (uint32_t)(ep->dma_addr);
 8006606:	69bb      	ldr	r3, [r7, #24]
 8006608:	015a      	lsls	r2, r3, #5
 800660a:	69fb      	ldr	r3, [r7, #28]
 800660c:	4413      	add	r3, r2
 800660e:	f503 6310 	add.w	r3, r3, #2304	@ 0x900
 8006612:	461a      	mov	r2, r3
 8006614:	68bb      	ldr	r3, [r7, #8]
 8006616:	69db      	ldr	r3, [r3, #28]
 8006618:	6153      	str	r3, [r2, #20]
      }

      if (ep->type == EP_TYPE_ISOC)
 800661a:	68bb      	ldr	r3, [r7, #8]
 800661c:	791b      	ldrb	r3, [r3, #4]
 800661e:	2b01      	cmp	r3, #1
 8006620:	d128      	bne.n	8006674 <USB_EPStartXfer+0x23c>
      {
        if ((USBx_DEVICE->DSTS & (1UL << 8)) == 0U)
 8006622:	69fb      	ldr	r3, [r7, #28]
 8006624:	f503 6300 	add.w	r3, r3, #2048	@ 0x800
 8006628:	689b      	ldr	r3, [r3, #8]
 800662a:	f403 7380 	and.w	r3, r3, #256	@ 0x100
 800662e:	2b00      	cmp	r3, #0
 8006630:	d110      	bne.n	8006654 <USB_EPStartXfer+0x21c>
        {
          USBx_INEP(epnum)->DIEPCTL |= USB_OTG_DIEPCTL_SODDFRM;
 8006632:	69bb      	ldr	r3, [r7, #24]
 8006634:	015a      	lsls	r2, r3, #5
 8006636:	69fb      	ldr	r3, [r7, #28]
 8006638:	4413      	add	r3, r2
 800663a:	f503 6310 	add.w	r3, r3, #2304	@ 0x900
 800663e:	681b      	ldr	r3, [r3, #0]
 8006640:	69ba      	ldr	r2, [r7, #24]
 8006642:	0151      	lsls	r1, r2, #5
 8006644:	69fa      	ldr	r2, [r7, #28]
 8006646:	440a      	add	r2, r1
 8006648:	f502 6210 	add.w	r2, r2, #2304	@ 0x900
 800664c:	f043 5300 	orr.w	r3, r3, #536870912	@ 0x20000000
 8006650:	6013      	str	r3, [r2, #0]
 8006652:	e00f      	b.n	8006674 <USB_EPStartXfer+0x23c>
        }
        else
        {
          USBx_INEP(epnum)->DIEPCTL |= USB_OTG_DIEPCTL_SD0PID_SEVNFRM;
 8006654:	69bb      	ldr	r3, [r7, #24]
 8006656:	015a      	lsls	r2, r3, #5
 8006658:	69fb      	ldr	r3, [r7, #28]
 800665a:	4413      	add	r3, r2
 800665c:	f503 6310 	add.w	r3, r3, #2304	@ 0x900
 8006660:	681b      	ldr	r3, [r3, #0]
 8006662:	69ba      	ldr	r2, [r7, #24]
 8006664:	0151      	lsls	r1, r2, #5
 8006666:	69fa      	ldr	r2, [r7, #28]
 8006668:	440a      	add	r2, r1
 800666a:	f502 6210 	add.w	r2, r2, #2304	@ 0x900
 800666e:	f043 5380 	orr.w	r3, r3, #268435456	@ 0x10000000
 8006672:	6013      	str	r3, [r2, #0]
        }
      }

      /* EP enable, IN data in FIFO */
      USBx_INEP(epnum)->DIEPCTL |= (USB_OTG_DIEPCTL_CNAK | USB_OTG_DIEPCTL_EPENA);
 8006674:	69bb      	ldr	r3, [r7, #24]
 8006676:	015a      	lsls	r2, r3, #5
 8006678:	69fb      	ldr	r3, [r7, #28]
 800667a:	4413      	add	r3, r2
 800667c:	f503 6310 	add.w	r3, r3, #2304	@ 0x900
 8006680:	681b      	ldr	r3, [r3, #0]
 8006682:	69ba      	ldr	r2, [r7, #24]
 8006684:	0151      	lsls	r1, r2, #5
 8006686:	69fa      	ldr	r2, [r7, #28]
 8006688:	440a      	add	r2, r1
 800668a:	f502 6210 	add.w	r2, r2, #2304	@ 0x900
 800668e:	f043 4304 	orr.w	r3, r3, #2214592512	@ 0x84000000
 8006692:	6013      	str	r3, [r2, #0]
 8006694:	e169      	b.n	800696a <USB_EPStartXfer+0x532>
    }
    else
    {
      /* EP enable, IN data in FIFO */
      USBx_INEP(epnum)->DIEPCTL |= (USB_OTG_DIEPCTL_CNAK | USB_OTG_DIEPCTL_EPENA);
 8006696:	69bb      	ldr	r3, [r7, #24]
 8006698:	015a      	lsls	r2, r3, #5
 800669a:	69fb      	ldr	r3, [r7, #28]
 800669c:	4413      	add	r3, r2
 800669e:	f503 6310 	add.w	r3, r3, #2304	@ 0x900
 80066a2:	681b      	ldr	r3, [r3, #0]
 80066a4:	69ba      	ldr	r2, [r7, #24]
 80066a6:	0151      	lsls	r1, r2, #5
 80066a8:	69fa      	ldr	r2, [r7, #28]
 80066aa:	440a      	add	r2, r1
 80066ac:	f502 6210 	add.w	r2, r2, #2304	@ 0x900
 80066b0:	f043 4304 	orr.w	r3, r3, #2214592512	@ 0x84000000
 80066b4:	6013      	str	r3, [r2, #0]

      if (ep->type != EP_TYPE_ISOC)
 80066b6:	68bb      	ldr	r3, [r7, #8]
 80066b8:	791b      	ldrb	r3, [r3, #4]
 80066ba:	2b01      	cmp	r3, #1
 80066bc:	d015      	beq.n	80066ea <USB_EPStartXfer+0x2b2>
      {
        /* Enable the Tx FIFO Empty Interrupt for this EP */
        if (ep->xfer_len > 0U)
 80066be:	68bb      	ldr	r3, [r7, #8]
 80066c0:	691b      	ldr	r3, [r3, #16]
 80066c2:	2b00      	cmp	r3, #0
 80066c4:	f000 8151 	beq.w	800696a <USB_EPStartXfer+0x532>
        {
          USBx_DEVICE->DIEPEMPMSK |= 1UL << (ep->num & EP_ADDR_MSK);
 80066c8:	69fb      	ldr	r3, [r7, #28]
 80066ca:	f503 6300 	add.w	r3, r3, #2048	@ 0x800
 80066ce:	6b5a      	ldr	r2, [r3, #52]	@ 0x34
 80066d0:	68bb      	ldr	r3, [r7, #8]
 80066d2:	781b      	ldrb	r3, [r3, #0]
 80066d4:	f003 030f 	and.w	r3, r3, #15
 80066d8:	2101      	movs	r1, #1
 80066da:	fa01 f303 	lsl.w	r3, r1, r3
 80066de:	69f9      	ldr	r1, [r7, #28]
 80066e0:	f501 6100 	add.w	r1, r1, #2048	@ 0x800
 80066e4:	4313      	orrs	r3, r2
 80066e6:	634b      	str	r3, [r1, #52]	@ 0x34
 80066e8:	e13f      	b.n	800696a <USB_EPStartXfer+0x532>
        }
      }
      else
      {
        if ((USBx_DEVICE->DSTS & (1UL << 8)) == 0U)
 80066ea:	69fb      	ldr	r3, [r7, #28]
 80066ec:	f503 6300 	add.w	r3, r3, #2048	@ 0x800
 80066f0:	689b      	ldr	r3, [r3, #8]
 80066f2:	f403 7380 	and.w	r3, r3, #256	@ 0x100
 80066f6:	2b00      	cmp	r3, #0
 80066f8:	d116      	bne.n	8006728 <USB_EPStartXfer+0x2f0>
        {
          USBx_INEP(epnum)->DIEPCTL |= USB_OTG_DIEPCTL_SODDFRM;
 80066fa:	69bb      	ldr	r3, [r7, #24]
 80066fc:	015a      	lsls	r2, r3, #5
 80066fe:	69fb      	ldr	r3, [r7, #28]
 8006700:	4413      	add	r3, r2
 8006702:	f503 6310 	add.w	r3, r3, #2304	@ 0x900
 8006706:	681b      	ldr	r3, [r3, #0]
 8006708:	69ba      	ldr	r2, [r7, #24]
 800670a:	0151      	lsls	r1, r2, #5
 800670c:	69fa      	ldr	r2, [r7, #28]
 800670e:	440a      	add	r2, r1
 8006710:	f502 6210 	add.w	r2, r2, #2304	@ 0x900
 8006714:	f043 5300 	orr.w	r3, r3, #536870912	@ 0x20000000
 8006718:	6013      	str	r3, [r2, #0]
 800671a:	e015      	b.n	8006748 <USB_EPStartXfer+0x310>
 800671c:	e007ffff 	.word	0xe007ffff
 8006720:	fff80000 	.word	0xfff80000
 8006724:	1ff80000 	.word	0x1ff80000
        }
        else
        {
          USBx_INEP(epnum)->DIEPCTL |= USB_OTG_DIEPCTL_SD0PID_SEVNFRM;
 8006728:	69bb      	ldr	r3, [r7, #24]
 800672a:	015a      	lsls	r2, r3, #5
 800672c:	69fb      	ldr	r3, [r7, #28]
 800672e:	4413      	add	r3, r2
 8006730:	f503 6310 	add.w	r3, r3, #2304	@ 0x900
 8006734:	681b      	ldr	r3, [r3, #0]
 8006736:	69ba      	ldr	r2, [r7, #24]
 8006738:	0151      	lsls	r1, r2, #5
 800673a:	69fa      	ldr	r2, [r7, #28]
 800673c:	440a      	add	r2, r1
 800673e:	f502 6210 	add.w	r2, r2, #2304	@ 0x900
 8006742:	f043 5380 	orr.w	r3, r3, #268435456	@ 0x10000000
 8006746:	6013      	str	r3, [r2, #0]
        }

        (void)USB_WritePacket(USBx, ep->xfer_buff, ep->num, (uint16_t)ep->xfer_len, dma);
 8006748:	68bb      	ldr	r3, [r7, #8]
 800674a:	68d9      	ldr	r1, [r3, #12]
 800674c:	68bb      	ldr	r3, [r7, #8]
 800674e:	781a      	ldrb	r2, [r3, #0]
 8006750:	68bb      	ldr	r3, [r7, #8]
 8006752:	691b      	ldr	r3, [r3, #16]
 8006754:	b298      	uxth	r0, r3
 8006756:	79fb      	ldrb	r3, [r7, #7]
 8006758:	9300      	str	r3, [sp, #0]
 800675a:	4603      	mov	r3, r0
 800675c:	68f8      	ldr	r0, [r7, #12]
 800675e:	f000 fae0 	bl	8006d22 <USB_WritePacket>
 8006762:	e102      	b.n	800696a <USB_EPStartXfer+0x532>
  {
    /* Program the transfer size and packet count as follows:
    * pktcnt = N
    * xfersize = N * maxpacket
    */
    USBx_OUTEP(epnum)->DOEPTSIZ &= ~(USB_OTG_DOEPTSIZ_XFRSIZ);
 8006764:	69bb      	ldr	r3, [r7, #24]
 8006766:	015a      	lsls	r2, r3, #5
 8006768:	69fb      	ldr	r3, [r7, #28]
 800676a:	4413      	add	r3, r2
 800676c:	f503 6330 	add.w	r3, r3, #2816	@ 0xb00
 8006770:	691a      	ldr	r2, [r3, #16]
 8006772:	69bb      	ldr	r3, [r7, #24]
 8006774:	0159      	lsls	r1, r3, #5
 8006776:	69fb      	ldr	r3, [r7, #28]
 8006778:	440b      	add	r3, r1
 800677a:	f503 6330 	add.w	r3, r3, #2816	@ 0xb00
 800677e:	4619      	mov	r1, r3
 8006780:	4b7c      	ldr	r3, [pc, #496]	@ (8006974 <USB_EPStartXfer+0x53c>)
 8006782:	4013      	ands	r3, r2
 8006784:	610b      	str	r3, [r1, #16]
    USBx_OUTEP(epnum)->DOEPTSIZ &= ~(USB_OTG_DOEPTSIZ_PKTCNT);
 8006786:	69bb      	ldr	r3, [r7, #24]
 8006788:	015a      	lsls	r2, r3, #5
 800678a:	69fb      	ldr	r3, [r7, #28]
 800678c:	4413      	add	r3, r2
 800678e:	f503 6330 	add.w	r3, r3, #2816	@ 0xb00
 8006792:	691a      	ldr	r2, [r3, #16]
 8006794:	69bb      	ldr	r3, [r7, #24]
 8006796:	0159      	lsls	r1, r3, #5
 8006798:	69fb      	ldr	r3, [r7, #28]
 800679a:	440b      	add	r3, r1
 800679c:	f503 6330 	add.w	r3, r3, #2816	@ 0xb00
 80067a0:	4619      	mov	r1, r3
 80067a2:	4b75      	ldr	r3, [pc, #468]	@ (8006978 <USB_EPStartXfer+0x540>)
 80067a4:	4013      	ands	r3, r2
 80067a6:	610b      	str	r3, [r1, #16]

    if (epnum == 0U)
 80067a8:	69bb      	ldr	r3, [r7, #24]
 80067aa:	2b00      	cmp	r3, #0
 80067ac:	d12f      	bne.n	800680e <USB_EPStartXfer+0x3d6>
    {
      if (ep->xfer_len > 0U)
 80067ae:	68bb      	ldr	r3, [r7, #8]
 80067b0:	691b      	ldr	r3, [r3, #16]
 80067b2:	2b00      	cmp	r3, #0
 80067b4:	d003      	beq.n	80067be <USB_EPStartXfer+0x386>
      {
        ep->xfer_len = ep->maxpacket;
 80067b6:	68bb      	ldr	r3, [r7, #8]
 80067b8:	689a      	ldr	r2, [r3, #8]
 80067ba:	68bb      	ldr	r3, [r7, #8]
 80067bc:	611a      	str	r2, [r3, #16]
      }

      /* Store transfer size, for EP0 this is equal to endpoint max packet size */
      ep->xfer_size = ep->maxpacket;
 80067be:	68bb      	ldr	r3, [r7, #8]
 80067c0:	689a      	ldr	r2, [r3, #8]
 80067c2:	68bb      	ldr	r3, [r7, #8]
 80067c4:	621a      	str	r2, [r3, #32]

      USBx_OUTEP(epnum)->DOEPTSIZ |= (USB_OTG_DOEPTSIZ_XFRSIZ & ep->xfer_size);
 80067c6:	69bb      	ldr	r3, [r7, #24]
 80067c8:	015a      	lsls	r2, r3, #5
 80067ca:	69fb      	ldr	r3, [r7, #28]
 80067cc:	4413      	add	r3, r2
 80067ce:	f503 6330 	add.w	r3, r3, #2816	@ 0xb00
 80067d2:	691a      	ldr	r2, [r3, #16]
 80067d4:	68bb      	ldr	r3, [r7, #8]
 80067d6:	6a1b      	ldr	r3, [r3, #32]
 80067d8:	f3c3 0312 	ubfx	r3, r3, #0, #19
 80067dc:	69b9      	ldr	r1, [r7, #24]
 80067de:	0148      	lsls	r0, r1, #5
 80067e0:	69f9      	ldr	r1, [r7, #28]
 80067e2:	4401      	add	r1, r0
 80067e4:	f501 6130 	add.w	r1, r1, #2816	@ 0xb00
 80067e8:	4313      	orrs	r3, r2
 80067ea:	610b      	str	r3, [r1, #16]
      USBx_OUTEP(epnum)->DOEPTSIZ |= (USB_OTG_DOEPTSIZ_PKTCNT & (1UL << 19));
 80067ec:	69bb      	ldr	r3, [r7, #24]
 80067ee:	015a      	lsls	r2, r3, #5
 80067f0:	69fb      	ldr	r3, [r7, #28]
 80067f2:	4413      	add	r3, r2
 80067f4:	f503 6330 	add.w	r3, r3, #2816	@ 0xb00
 80067f8:	691b      	ldr	r3, [r3, #16]
 80067fa:	69ba      	ldr	r2, [r7, #24]
 80067fc:	0151      	lsls	r1, r2, #5
 80067fe:	69fa      	ldr	r2, [r7, #28]
 8006800:	440a      	add	r2, r1
 8006802:	f502 6230 	add.w	r2, r2, #2816	@ 0xb00
 8006806:	f443 2300 	orr.w	r3, r3, #524288	@ 0x80000
 800680a:	6113      	str	r3, [r2, #16]
 800680c:	e05f      	b.n	80068ce <USB_EPStartXfer+0x496>
    }
    else
    {
      if (ep->xfer_len == 0U)
 800680e:	68bb      	ldr	r3, [r7, #8]
 8006810:	691b      	ldr	r3, [r3, #16]
 8006812:	2b00      	cmp	r3, #0
 8006814:	d123      	bne.n	800685e <USB_EPStartXfer+0x426>
      {
        USBx_OUTEP(epnum)->DOEPTSIZ |= (USB_OTG_DOEPTSIZ_XFRSIZ & ep->maxpacket);
 8006816:	69bb      	ldr	r3, [r7, #24]
 8006818:	015a      	lsls	r2, r3, #5
 800681a:	69fb      	ldr	r3, [r7, #28]
 800681c:	4413      	add	r3, r2
 800681e:	f503 6330 	add.w	r3, r3, #2816	@ 0xb00
 8006822:	691a      	ldr	r2, [r3, #16]
 8006824:	68bb      	ldr	r3, [r7, #8]
 8006826:	689b      	ldr	r3, [r3, #8]
 8006828:	f3c3 0312 	ubfx	r3, r3, #0, #19
 800682c:	69b9      	ldr	r1, [r7, #24]
 800682e:	0148      	lsls	r0, r1, #5
 8006830:	69f9      	ldr	r1, [r7, #28]
 8006832:	4401      	add	r1, r0
 8006834:	f501 6130 	add.w	r1, r1, #2816	@ 0xb00
 8006838:	4313      	orrs	r3, r2
 800683a:	610b      	str	r3, [r1, #16]
        USBx_OUTEP(epnum)->DOEPTSIZ |= (USB_OTG_DOEPTSIZ_PKTCNT & (1UL << 19));
 800683c:	69bb      	ldr	r3, [r7, #24]
 800683e:	015a      	lsls	r2, r3, #5
 8006840:	69fb      	ldr	r3, [r7, #28]
 8006842:	4413      	add	r3, r2
 8006844:	f503 6330 	add.w	r3, r3, #2816	@ 0xb00
 8006848:	691b      	ldr	r3, [r3, #16]
 800684a:	69ba      	ldr	r2, [r7, #24]
 800684c:	0151      	lsls	r1, r2, #5
 800684e:	69fa      	ldr	r2, [r7, #28]
 8006850:	440a      	add	r2, r1
 8006852:	f502 6230 	add.w	r2, r2, #2816	@ 0xb00
 8006856:	f443 2300 	orr.w	r3, r3, #524288	@ 0x80000
 800685a:	6113      	str	r3, [r2, #16]
 800685c:	e037      	b.n	80068ce <USB_EPStartXfer+0x496>
      }
      else
      {
        pktcnt = (uint16_t)((ep->xfer_len + ep->maxpacket - 1U) / ep->maxpacket);
 800685e:	68bb      	ldr	r3, [r7, #8]
 8006860:	691a      	ldr	r2, [r3, #16]
 8006862:	68bb      	ldr	r3, [r7, #8]
 8006864:	689b      	ldr	r3, [r3, #8]
 8006866:	4413      	add	r3, r2
 8006868:	1e5a      	subs	r2, r3, #1
 800686a:	68bb      	ldr	r3, [r7, #8]
 800686c:	689b      	ldr	r3, [r3, #8]
 800686e:	fbb2 f3f3 	udiv	r3, r2, r3
 8006872:	82fb      	strh	r3, [r7, #22]
        ep->xfer_size = ep->maxpacket * pktcnt;
 8006874:	68bb      	ldr	r3, [r7, #8]
 8006876:	689b      	ldr	r3, [r3, #8]
 8006878:	8afa      	ldrh	r2, [r7, #22]
 800687a:	fb03 f202 	mul.w	r2, r3, r2
 800687e:	68bb      	ldr	r3, [r7, #8]
 8006880:	621a      	str	r2, [r3, #32]

        USBx_OUTEP(epnum)->DOEPTSIZ |= USB_OTG_DOEPTSIZ_PKTCNT & ((uint32_t)pktcnt << 19);
 8006882:	69bb      	ldr	r3, [r7, #24]
 8006884:	015a      	lsls	r2, r3, #5
 8006886:	69fb      	ldr	r3, [r7, #28]
 8006888:	4413      	add	r3, r2
 800688a:	f503 6330 	add.w	r3, r3, #2816	@ 0xb00
 800688e:	691a      	ldr	r2, [r3, #16]
 8006890:	8afb      	ldrh	r3, [r7, #22]
 8006892:	04d9      	lsls	r1, r3, #19
 8006894:	4b39      	ldr	r3, [pc, #228]	@ (800697c <USB_EPStartXfer+0x544>)
 8006896:	400b      	ands	r3, r1
 8006898:	69b9      	ldr	r1, [r7, #24]
 800689a:	0148      	lsls	r0, r1, #5
 800689c:	69f9      	ldr	r1, [r7, #28]
 800689e:	4401      	add	r1, r0
 80068a0:	f501 6130 	add.w	r1, r1, #2816	@ 0xb00
 80068a4:	4313      	orrs	r3, r2
 80068a6:	610b      	str	r3, [r1, #16]
        USBx_OUTEP(epnum)->DOEPTSIZ |= USB_OTG_DOEPTSIZ_XFRSIZ & ep->xfer_size;
 80068a8:	69bb      	ldr	r3, [r7, #24]
 80068aa:	015a      	lsls	r2, r3, #5
 80068ac:	69fb      	ldr	r3, [r7, #28]
 80068ae:	4413      	add	r3, r2
 80068b0:	f503 6330 	add.w	r3, r3, #2816	@ 0xb00
 80068b4:	691a      	ldr	r2, [r3, #16]
 80068b6:	68bb      	ldr	r3, [r7, #8]
 80068b8:	6a1b      	ldr	r3, [r3, #32]
 80068ba:	f3c3 0312 	ubfx	r3, r3, #0, #19
 80068be:	69b9      	ldr	r1, [r7, #24]
 80068c0:	0148      	lsls	r0, r1, #5
 80068c2:	69f9      	ldr	r1, [r7, #28]
 80068c4:	4401      	add	r1, r0
 80068c6:	f501 6130 	add.w	r1, r1, #2816	@ 0xb00
 80068ca:	4313      	orrs	r3, r2
 80068cc:	610b      	str	r3, [r1, #16]
      }
    }

    if (dma == 1U)
 80068ce:	79fb      	ldrb	r3, [r7, #7]
 80068d0:	2b01      	cmp	r3, #1
 80068d2:	d10d      	bne.n	80068f0 <USB_EPStartXfer+0x4b8>
    {
      if ((uint32_t)ep->xfer_buff != 0U)
 80068d4:	68bb      	ldr	r3, [r7, #8]
 80068d6:	68db      	ldr	r3, [r3, #12]
 80068d8:	2b00      	cmp	r3, #0
 80068da:	d009      	beq.n	80068f0 <USB_EPStartXfer+0x4b8>
      {
        USBx_OUTEP(epnum)->DOEPDMA = (uint32_t)(ep->xfer_buff);
 80068dc:	68bb      	ldr	r3, [r7, #8]
 80068de:	68d9      	ldr	r1, [r3, #12]
 80068e0:	69bb      	ldr	r3, [r7, #24]
 80068e2:	015a      	lsls	r2, r3, #5
 80068e4:	69fb      	ldr	r3, [r7, #28]
 80068e6:	4413      	add	r3, r2
 80068e8:	f503 6330 	add.w	r3, r3, #2816	@ 0xb00
 80068ec:	460a      	mov	r2, r1
 80068ee:	615a      	str	r2, [r3, #20]
      }
    }

    if (ep->type == EP_TYPE_ISOC)
 80068f0:	68bb      	ldr	r3, [r7, #8]
 80068f2:	791b      	ldrb	r3, [r3, #4]
 80068f4:	2b01      	cmp	r3, #1
 80068f6:	d128      	bne.n	800694a <USB_EPStartXfer+0x512>
    {
      if ((USBx_DEVICE->DSTS & (1UL << 8)) == 0U)
 80068f8:	69fb      	ldr	r3, [r7, #28]
 80068fa:	f503 6300 	add.w	r3, r3, #2048	@ 0x800
 80068fe:	689b      	ldr	r3, [r3, #8]
 8006900:	f403 7380 	and.w	r3, r3, #256	@ 0x100
 8006904:	2b00      	cmp	r3, #0
 8006906:	d110      	bne.n	800692a <USB_EPStartXfer+0x4f2>
      {
        USBx_OUTEP(epnum)->DOEPCTL |= USB_OTG_DOEPCTL_SODDFRM;
 8006908:	69bb      	ldr	r3, [r7, #24]
 800690a:	015a      	lsls	r2, r3, #5
 800690c:	69fb      	ldr	r3, [r7, #28]
 800690e:	4413      	add	r3, r2
 8006910:	f503 6330 	add.w	r3, r3, #2816	@ 0xb00
 8006914:	681b      	ldr	r3, [r3, #0]
 8006916:	69ba      	ldr	r2, [r7, #24]
 8006918:	0151      	lsls	r1, r2, #5
 800691a:	69fa      	ldr	r2, [r7, #28]
 800691c:	440a      	add	r2, r1
 800691e:	f502 6230 	add.w	r2, r2, #2816	@ 0xb00
 8006922:	f043 5300 	orr.w	r3, r3, #536870912	@ 0x20000000
 8006926:	6013      	str	r3, [r2, #0]
 8006928:	e00f      	b.n	800694a <USB_EPStartXfer+0x512>
      }
      else
      {
        USBx_OUTEP(epnum)->DOEPCTL |= USB_OTG_DOEPCTL_SD0PID_SEVNFRM;
 800692a:	69bb      	ldr	r3, [r7, #24]
 800692c:	015a      	lsls	r2, r3, #5
 800692e:	69fb      	ldr	r3, [r7, #28]
 8006930:	4413      	add	r3, r2
 8006932:	f503 6330 	add.w	r3, r3, #2816	@ 0xb00
 8006936:	681b      	ldr	r3, [r3, #0]
 8006938:	69ba      	ldr	r2, [r7, #24]
 800693a:	0151      	lsls	r1, r2, #5
 800693c:	69fa      	ldr	r2, [r7, #28]
 800693e:	440a      	add	r2, r1
 8006940:	f502 6230 	add.w	r2, r2, #2816	@ 0xb00
 8006944:	f043 5380 	orr.w	r3, r3, #268435456	@ 0x10000000
 8006948:	6013      	str	r3, [r2, #0]
      }
    }
    /* EP enable */
    USBx_OUTEP(epnum)->DOEPCTL |= (USB_OTG_DOEPCTL_CNAK | USB_OTG_DOEPCTL_EPENA);
 800694a:	69bb      	ldr	r3, [r7, #24]
 800694c:	015a      	lsls	r2, r3, #5
 800694e:	69fb      	ldr	r3, [r7, #28]
 8006950:	4413      	add	r3, r2
 8006952:	f503 6330 	add.w	r3, r3, #2816	@ 0xb00
 8006956:	681b      	ldr	r3, [r3, #0]
 8006958:	69ba      	ldr	r2, [r7, #24]
 800695a:	0151      	lsls	r1, r2, #5
 800695c:	69fa      	ldr	r2, [r7, #28]
 800695e:	440a      	add	r2, r1
 8006960:	f502 6230 	add.w	r2, r2, #2816	@ 0xb00
 8006964:	f043 4304 	orr.w	r3, r3, #2214592512	@ 0x84000000
 8006968:	6013      	str	r3, [r2, #0]
  }

  return HAL_OK;
 800696a:	2300      	movs	r3, #0
}
 800696c:	4618      	mov	r0, r3
 800696e:	3720      	adds	r7, #32
 8006970:	46bd      	mov	sp, r7
 8006972:	bd80      	pop	{r7, pc}
 8006974:	fff80000 	.word	0xfff80000
 8006978:	e007ffff 	.word	0xe007ffff
 800697c:	1ff80000 	.word	0x1ff80000

08006980 <USB_EPStopXfer>:
   * @param  USBx  usb device instance
   * @param  ep pointer to endpoint structure
   * @retval HAL status
   */
HAL_StatusTypeDef USB_EPStopXfer(USB_OTG_GlobalTypeDef *USBx, USB_OTG_EPTypeDef *ep)
{
 8006980:	b480      	push	{r7}
 8006982:	b089      	sub	sp, #36	@ 0x24
 8006984:	af00      	add	r7, sp, #0
 8006986:	6078      	str	r0, [r7, #4]
 8006988:	6039      	str	r1, [r7, #0]
  __IO uint32_t count = 0U;
 800698a:	2300      	movs	r3, #0
 800698c:	613b      	str	r3, [r7, #16]
  __IO uint32_t RegVal;
  HAL_StatusTypeDef ret = HAL_OK;
 800698e:	2300      	movs	r3, #0
 8006990:	77fb      	strb	r3, [r7, #31]
  uint32_t USBx_BASE = (uint32_t)USBx;
 8006992:	687b      	ldr	r3, [r7, #4]
 8006994:	61bb      	str	r3, [r7, #24]
  uint32_t dma_enable = (USBx->GAHBCFG & USB_OTG_GAHBCFG_DMAEN) >> 0x5U;
 8006996:	687b      	ldr	r3, [r7, #4]
 8006998:	689b      	ldr	r3, [r3, #8]
 800699a:	095b      	lsrs	r3, r3, #5
 800699c:	f003 0301 	and.w	r3, r3, #1
 80069a0:	617b      	str	r3, [r7, #20]

  /* IN endpoint */
  if (ep->is_in == 1U)
 80069a2:	683b      	ldr	r3, [r7, #0]
 80069a4:	785b      	ldrb	r3, [r3, #1]
 80069a6:	2b01      	cmp	r3, #1
 80069a8:	d149      	bne.n	8006a3e <USB_EPStopXfer+0xbe>
  {
    /* EP enable, IN data in FIFO */
    if (((USBx_INEP(ep->num)->DIEPCTL) & USB_OTG_DIEPCTL_EPENA) == USB_OTG_DIEPCTL_EPENA)
 80069aa:	683b      	ldr	r3, [r7, #0]
 80069ac:	781b      	ldrb	r3, [r3, #0]
 80069ae:	015a      	lsls	r2, r3, #5
 80069b0:	69bb      	ldr	r3, [r7, #24]
 80069b2:	4413      	add	r3, r2
 80069b4:	f503 6310 	add.w	r3, r3, #2304	@ 0x900
 80069b8:	681b      	ldr	r3, [r3, #0]
 80069ba:	f003 4300 	and.w	r3, r3, #2147483648	@ 0x80000000
 80069be:	f1b3 4f00 	cmp.w	r3, #2147483648	@ 0x80000000
 80069c2:	f040 80d3 	bne.w	8006b6c <USB_EPStopXfer+0x1ec>
    {
      USBx_INEP(ep->num)->DIEPCTL |= (USB_OTG_DIEPCTL_SNAK);
 80069c6:	683b      	ldr	r3, [r7, #0]
 80069c8:	781b      	ldrb	r3, [r3, #0]
 80069ca:	015a      	lsls	r2, r3, #5
 80069cc:	69bb      	ldr	r3, [r7, #24]
 80069ce:	4413      	add	r3, r2
 80069d0:	f503 6310 	add.w	r3, r3, #2304	@ 0x900
 80069d4:	681b      	ldr	r3, [r3, #0]
 80069d6:	683a      	ldr	r2, [r7, #0]
 80069d8:	7812      	ldrb	r2, [r2, #0]
 80069da:	0151      	lsls	r1, r2, #5
 80069dc:	69ba      	ldr	r2, [r7, #24]
 80069de:	440a      	add	r2, r1
 80069e0:	f502 6210 	add.w	r2, r2, #2304	@ 0x900
 80069e4:	f043 6300 	orr.w	r3, r3, #134217728	@ 0x8000000
 80069e8:	6013      	str	r3, [r2, #0]
      USBx_INEP(ep->num)->DIEPCTL |= (USB_OTG_DIEPCTL_EPDIS);
 80069ea:	683b      	ldr	r3, [r7, #0]
 80069ec:	781b      	ldrb	r3, [r3, #0]
 80069ee:	015a      	lsls	r2, r3, #5
 80069f0:	69bb      	ldr	r3, [r7, #24]
 80069f2:	4413      	add	r3, r2
 80069f4:	f503 6310 	add.w	r3, r3, #2304	@ 0x900
 80069f8:	681b      	ldr	r3, [r3, #0]
 80069fa:	683a      	ldr	r2, [r7, #0]
 80069fc:	7812      	ldrb	r2, [r2, #0]
 80069fe:	0151      	lsls	r1, r2, #5
 8006a00:	69ba      	ldr	r2, [r7, #24]
 8006a02:	440a      	add	r2, r1
 8006a04:	f502 6210 	add.w	r2, r2, #2304	@ 0x900
 8006a08:	f043 4380 	orr.w	r3, r3, #1073741824	@ 0x40000000
 8006a0c:	6013      	str	r3, [r2, #0]

      do
      {
        count++;
 8006a0e:	693b      	ldr	r3, [r7, #16]
 8006a10:	3301      	adds	r3, #1
 8006a12:	613b      	str	r3, [r7, #16]

        if (count > 0xF0000U)
 8006a14:	693b      	ldr	r3, [r7, #16]
 8006a16:	f5b3 2f70 	cmp.w	r3, #983040	@ 0xf0000
 8006a1a:	d902      	bls.n	8006a22 <USB_EPStopXfer+0xa2>
        {
          ret = HAL_ERROR;
 8006a1c:	2301      	movs	r3, #1
 8006a1e:	77fb      	strb	r3, [r7, #31]
          break;
 8006a20:	e0a4      	b.n	8006b6c <USB_EPStopXfer+0x1ec>
        }
      } while (((USBx_INEP(ep->num)->DIEPCTL) & USB_OTG_DIEPCTL_EPENA) == USB_OTG_DIEPCTL_EPENA);
 8006a22:	683b      	ldr	r3, [r7, #0]
 8006a24:	781b      	ldrb	r3, [r3, #0]
 8006a26:	015a      	lsls	r2, r3, #5
 8006a28:	69bb      	ldr	r3, [r7, #24]
 8006a2a:	4413      	add	r3, r2
 8006a2c:	f503 6310 	add.w	r3, r3, #2304	@ 0x900
 8006a30:	681b      	ldr	r3, [r3, #0]
 8006a32:	f003 4300 	and.w	r3, r3, #2147483648	@ 0x80000000
 8006a36:	f1b3 4f00 	cmp.w	r3, #2147483648	@ 0x80000000
 8006a3a:	d0e8      	beq.n	8006a0e <USB_EPStopXfer+0x8e>
 8006a3c:	e096      	b.n	8006b6c <USB_EPStopXfer+0x1ec>
    }
  }
  else /* OUT endpoint */
  {
    USBx->GINTMSK &= ~USB_OTG_GINTMSK_GONAKEFFM;
 8006a3e:	687b      	ldr	r3, [r7, #4]
 8006a40:	699b      	ldr	r3, [r3, #24]
 8006a42:	f023 0280 	bic.w	r2, r3, #128	@ 0x80
 8006a46:	687b      	ldr	r3, [r7, #4]
 8006a48:	619a      	str	r2, [r3, #24]

    if ((USBx->GINTSTS & USB_OTG_GINTSTS_BOUTNAKEFF) == 0U)
 8006a4a:	687b      	ldr	r3, [r7, #4]
 8006a4c:	695b      	ldr	r3, [r3, #20]
 8006a4e:	f003 0380 	and.w	r3, r3, #128	@ 0x80
 8006a52:	2b00      	cmp	r3, #0
 8006a54:	d109      	bne.n	8006a6a <USB_EPStopXfer+0xea>
    {
      USBx_DEVICE->DCTL |= USB_OTG_DCTL_SGONAK;
 8006a56:	69bb      	ldr	r3, [r7, #24]
 8006a58:	f503 6300 	add.w	r3, r3, #2048	@ 0x800
 8006a5c:	685b      	ldr	r3, [r3, #4]
 8006a5e:	69ba      	ldr	r2, [r7, #24]
 8006a60:	f502 6200 	add.w	r2, r2, #2048	@ 0x800
 8006a64:	f443 7300 	orr.w	r3, r3, #512	@ 0x200
 8006a68:	6053      	str	r3, [r2, #4]
    }

    if (dma_enable == 0U)
 8006a6a:	697b      	ldr	r3, [r7, #20]
 8006a6c:	2b00      	cmp	r3, #0
 8006a6e:	d113      	bne.n	8006a98 <USB_EPStopXfer+0x118>
    {
      do
      {
        count++;
 8006a70:	693b      	ldr	r3, [r7, #16]
 8006a72:	3301      	adds	r3, #1
 8006a74:	613b      	str	r3, [r7, #16]

        if (count > 0xF0000U)
 8006a76:	693b      	ldr	r3, [r7, #16]
 8006a78:	f5b3 2f70 	cmp.w	r3, #983040	@ 0xf0000
 8006a7c:	d902      	bls.n	8006a84 <USB_EPStopXfer+0x104>
        {
          ret = HAL_ERROR;
 8006a7e:	2301      	movs	r3, #1
 8006a80:	77fb      	strb	r3, [r7, #31]
          break;
 8006a82:	e005      	b.n	8006a90 <USB_EPStopXfer+0x110>
        }
      } while (((USBx->GINTSTS & USB_OTG_GINTSTS_RXFLVL) & USB_OTG_GINTSTS_RXFLVL) != USB_OTG_GINTSTS_RXFLVL);
 8006a84:	687b      	ldr	r3, [r7, #4]
 8006a86:	695b      	ldr	r3, [r3, #20]
 8006a88:	f003 0310 	and.w	r3, r3, #16
 8006a8c:	2b10      	cmp	r3, #16
 8006a8e:	d1ef      	bne.n	8006a70 <USB_EPStopXfer+0xf0>

      /* POP the RX status register to generate the NAK Effective interrupt */
      RegVal = USBx->GRXSTSP;
 8006a90:	687b      	ldr	r3, [r7, #4]
 8006a92:	6a1b      	ldr	r3, [r3, #32]
 8006a94:	60fb      	str	r3, [r7, #12]
      UNUSED(RegVal);
 8006a96:	68fb      	ldr	r3, [r7, #12]
    }

    /* Wait for Global NAK effective to be set */
    count = 0U;
 8006a98:	2300      	movs	r3, #0
 8006a9a:	613b      	str	r3, [r7, #16]

    do
    {
      count++;
 8006a9c:	693b      	ldr	r3, [r7, #16]
 8006a9e:	3301      	adds	r3, #1
 8006aa0:	613b      	str	r3, [r7, #16]

      if (count > 0xF0000U)
 8006aa2:	693b      	ldr	r3, [r7, #16]
 8006aa4:	f5b3 2f70 	cmp.w	r3, #983040	@ 0xf0000
 8006aa8:	d902      	bls.n	8006ab0 <USB_EPStopXfer+0x130>
      {
        ret = HAL_ERROR;
 8006aaa:	2301      	movs	r3, #1
 8006aac:	77fb      	strb	r3, [r7, #31]
        break;
 8006aae:	e005      	b.n	8006abc <USB_EPStopXfer+0x13c>
      }
    } while (((USBx->GINTSTS & USB_OTG_GINTSTS_BOUTNAKEFF)
 8006ab0:	687b      	ldr	r3, [r7, #4]
 8006ab2:	695b      	ldr	r3, [r3, #20]
              & USB_OTG_GINTSTS_BOUTNAKEFF) != USB_OTG_GINTSTS_BOUTNAKEFF);
 8006ab4:	f003 0380 	and.w	r3, r3, #128	@ 0x80
 8006ab8:	2b80      	cmp	r3, #128	@ 0x80
 8006aba:	d1ef      	bne.n	8006a9c <USB_EPStopXfer+0x11c>

    USBx_OUTEP(ep->num)->DOEPCTL |= (USB_OTG_DOEPCTL_SNAK);
 8006abc:	683b      	ldr	r3, [r7, #0]
 8006abe:	781b      	ldrb	r3, [r3, #0]
 8006ac0:	015a      	lsls	r2, r3, #5
 8006ac2:	69bb      	ldr	r3, [r7, #24]
 8006ac4:	4413      	add	r3, r2
 8006ac6:	f503 6330 	add.w	r3, r3, #2816	@ 0xb00
 8006aca:	681b      	ldr	r3, [r3, #0]
 8006acc:	683a      	ldr	r2, [r7, #0]
 8006ace:	7812      	ldrb	r2, [r2, #0]
 8006ad0:	0151      	lsls	r1, r2, #5
 8006ad2:	69ba      	ldr	r2, [r7, #24]
 8006ad4:	440a      	add	r2, r1
 8006ad6:	f502 6230 	add.w	r2, r2, #2816	@ 0xb00
 8006ada:	f043 6300 	orr.w	r3, r3, #134217728	@ 0x8000000
 8006ade:	6013      	str	r3, [r2, #0]
    USBx_OUTEP(ep->num)->DOEPCTL |= (USB_OTG_DOEPCTL_EPDIS);
 8006ae0:	683b      	ldr	r3, [r7, #0]
 8006ae2:	781b      	ldrb	r3, [r3, #0]
 8006ae4:	015a      	lsls	r2, r3, #5
 8006ae6:	69bb      	ldr	r3, [r7, #24]
 8006ae8:	4413      	add	r3, r2
 8006aea:	f503 6330 	add.w	r3, r3, #2816	@ 0xb00
 8006aee:	681b      	ldr	r3, [r3, #0]
 8006af0:	683a      	ldr	r2, [r7, #0]
 8006af2:	7812      	ldrb	r2, [r2, #0]
 8006af4:	0151      	lsls	r1, r2, #5
 8006af6:	69ba      	ldr	r2, [r7, #24]
 8006af8:	440a      	add	r2, r1
 8006afa:	f502 6230 	add.w	r2, r2, #2816	@ 0xb00
 8006afe:	f043 4380 	orr.w	r3, r3, #1073741824	@ 0x40000000
 8006b02:	6013      	str	r3, [r2, #0]

    /* Wait for EP disable to take effect */
    count = 0U;
 8006b04:	2300      	movs	r3, #0
 8006b06:	613b      	str	r3, [r7, #16]

    do
    {
      count++;
 8006b08:	693b      	ldr	r3, [r7, #16]
 8006b0a:	3301      	adds	r3, #1
 8006b0c:	613b      	str	r3, [r7, #16]

      if (count > 0xF0000U)
 8006b0e:	693b      	ldr	r3, [r7, #16]
 8006b10:	f5b3 2f70 	cmp.w	r3, #983040	@ 0xf0000
 8006b14:	d902      	bls.n	8006b1c <USB_EPStopXfer+0x19c>
      {
        ret = HAL_ERROR;
 8006b16:	2301      	movs	r3, #1
 8006b18:	77fb      	strb	r3, [r7, #31]
        break;
 8006b1a:	e00b      	b.n	8006b34 <USB_EPStopXfer+0x1b4>
      }
    } while (((USBx_OUTEP(ep->num)->DOEPINT & USB_OTG_DOEPINT_EPDISD)
 8006b1c:	683b      	ldr	r3, [r7, #0]
 8006b1e:	781b      	ldrb	r3, [r3, #0]
 8006b20:	015a      	lsls	r2, r3, #5
 8006b22:	69bb      	ldr	r3, [r7, #24]
 8006b24:	4413      	add	r3, r2
 8006b26:	f503 6330 	add.w	r3, r3, #2816	@ 0xb00
 8006b2a:	689b      	ldr	r3, [r3, #8]
              & USB_OTG_DOEPINT_EPDISD) != USB_OTG_DOEPINT_EPDISD);
 8006b2c:	f003 0302 	and.w	r3, r3, #2
 8006b30:	2b02      	cmp	r3, #2
 8006b32:	d1e9      	bne.n	8006b08 <USB_EPStopXfer+0x188>

    /* Clear OUT EP disable interrupt */
    USBx_OUTEP(ep->num)->DOEPINT |= USB_OTG_DOEPINT_EPDISD;
 8006b34:	683b      	ldr	r3, [r7, #0]
 8006b36:	781b      	ldrb	r3, [r3, #0]
 8006b38:	015a      	lsls	r2, r3, #5
 8006b3a:	69bb      	ldr	r3, [r7, #24]
 8006b3c:	4413      	add	r3, r2
 8006b3e:	f503 6330 	add.w	r3, r3, #2816	@ 0xb00
 8006b42:	689b      	ldr	r3, [r3, #8]
 8006b44:	683a      	ldr	r2, [r7, #0]
 8006b46:	7812      	ldrb	r2, [r2, #0]
 8006b48:	0151      	lsls	r1, r2, #5
 8006b4a:	69ba      	ldr	r2, [r7, #24]
 8006b4c:	440a      	add	r2, r1
 8006b4e:	f502 6230 	add.w	r2, r2, #2816	@ 0xb00
 8006b52:	f043 0302 	orr.w	r3, r3, #2
 8006b56:	6093      	str	r3, [r2, #8]

    /* Clear Global OUT NAK */
    USBx_DEVICE->DCTL |= USB_OTG_DCTL_CGONAK;
 8006b58:	69bb      	ldr	r3, [r7, #24]
 8006b5a:	f503 6300 	add.w	r3, r3, #2048	@ 0x800
 8006b5e:	685b      	ldr	r3, [r3, #4]
 8006b60:	69ba      	ldr	r2, [r7, #24]
 8006b62:	f502 6200 	add.w	r2, r2, #2048	@ 0x800
 8006b66:	f443 6380 	orr.w	r3, r3, #1024	@ 0x400
 8006b6a:	6053      	str	r3, [r2, #4]
  }

  return ret;
 8006b6c:	7ffb      	ldrb	r3, [r7, #31]
}
 8006b6e:	4618      	mov	r0, r3
 8006b70:	3724      	adds	r7, #36	@ 0x24
 8006b72:	46bd      	mov	sp, r7
 8006b74:	f85d 7b04 	ldr.w	r7, [sp], #4
 8006b78:	4770      	bx	lr

08006b7a <USB_EPSetStall>:
  * @param  USBx  Selected device
  * @param  ep pointer to endpoint structure
  * @retval HAL status
  */
HAL_StatusTypeDef USB_EPSetStall(const USB_OTG_GlobalTypeDef *USBx, const USB_OTG_EPTypeDef *ep)
{
 8006b7a:	b480      	push	{r7}
 8006b7c:	b085      	sub	sp, #20
 8006b7e:	af00      	add	r7, sp, #0
 8006b80:	6078      	str	r0, [r7, #4]
 8006b82:	6039      	str	r1, [r7, #0]
  uint32_t USBx_BASE = (uint32_t)USBx;
 8006b84:	687b      	ldr	r3, [r7, #4]
 8006b86:	60fb      	str	r3, [r7, #12]
  uint32_t epnum = (uint32_t)ep->num;
 8006b88:	683b      	ldr	r3, [r7, #0]
 8006b8a:	781b      	ldrb	r3, [r3, #0]
 8006b8c:	60bb      	str	r3, [r7, #8]

  if (ep->is_in == 1U)
 8006b8e:	683b      	ldr	r3, [r7, #0]
 8006b90:	785b      	ldrb	r3, [r3, #1]
 8006b92:	2b01      	cmp	r3, #1
 8006b94:	d12c      	bne.n	8006bf0 <USB_EPSetStall+0x76>
  {
    if (((USBx_INEP(epnum)->DIEPCTL & USB_OTG_DIEPCTL_EPENA) == 0U) && (epnum != 0U))
 8006b96:	68bb      	ldr	r3, [r7, #8]
 8006b98:	015a      	lsls	r2, r3, #5
 8006b9a:	68fb      	ldr	r3, [r7, #12]
 8006b9c:	4413      	add	r3, r2
 8006b9e:	f503 6310 	add.w	r3, r3, #2304	@ 0x900
 8006ba2:	681b      	ldr	r3, [r3, #0]
 8006ba4:	2b00      	cmp	r3, #0
 8006ba6:	db12      	blt.n	8006bce <USB_EPSetStall+0x54>
 8006ba8:	68bb      	ldr	r3, [r7, #8]
 8006baa:	2b00      	cmp	r3, #0
 8006bac:	d00f      	beq.n	8006bce <USB_EPSetStall+0x54>
    {
      USBx_INEP(epnum)->DIEPCTL &= ~(USB_OTG_DIEPCTL_EPDIS);
 8006bae:	68bb      	ldr	r3, [r7, #8]
 8006bb0:	015a      	lsls	r2, r3, #5
 8006bb2:	68fb      	ldr	r3, [r7, #12]
 8006bb4:	4413      	add	r3, r2
 8006bb6:	f503 6310 	add.w	r3, r3, #2304	@ 0x900
 8006bba:	681b      	ldr	r3, [r3, #0]
 8006bbc:	68ba      	ldr	r2, [r7, #8]
 8006bbe:	0151      	lsls	r1, r2, #5
 8006bc0:	68fa      	ldr	r2, [r7, #12]
 8006bc2:	440a      	add	r2, r1
 8006bc4:	f502 6210 	add.w	r2, r2, #2304	@ 0x900
 8006bc8:	f023 4380 	bic.w	r3, r3, #1073741824	@ 0x40000000
 8006bcc:	6013      	str	r3, [r2, #0]
    }
    USBx_INEP(epnum)->DIEPCTL |= USB_OTG_DIEPCTL_STALL;
 8006bce:	68bb      	ldr	r3, [r7, #8]
 8006bd0:	015a      	lsls	r2, r3, #5
 8006bd2:	68fb      	ldr	r3, [r7, #12]
 8006bd4:	4413      	add	r3, r2
 8006bd6:	f503 6310 	add.w	r3, r3, #2304	@ 0x900
 8006bda:	681b      	ldr	r3, [r3, #0]
 8006bdc:	68ba      	ldr	r2, [r7, #8]
 8006bde:	0151      	lsls	r1, r2, #5
 8006be0:	68fa      	ldr	r2, [r7, #12]
 8006be2:	440a      	add	r2, r1
 8006be4:	f502 6210 	add.w	r2, r2, #2304	@ 0x900
 8006be8:	f443 1300 	orr.w	r3, r3, #2097152	@ 0x200000
 8006bec:	6013      	str	r3, [r2, #0]
 8006bee:	e02b      	b.n	8006c48 <USB_EPSetStall+0xce>
  }
  else
  {
    if (((USBx_OUTEP(epnum)->DOEPCTL & USB_OTG_DOEPCTL_EPENA) == 0U) && (epnum != 0U))
 8006bf0:	68bb      	ldr	r3, [r7, #8]
 8006bf2:	015a      	lsls	r2, r3, #5
 8006bf4:	68fb      	ldr	r3, [r7, #12]
 8006bf6:	4413      	add	r3, r2
 8006bf8:	f503 6330 	add.w	r3, r3, #2816	@ 0xb00
 8006bfc:	681b      	ldr	r3, [r3, #0]
 8006bfe:	2b00      	cmp	r3, #0
 8006c00:	db12      	blt.n	8006c28 <USB_EPSetStall+0xae>
 8006c02:	68bb      	ldr	r3, [r7, #8]
 8006c04:	2b00      	cmp	r3, #0
 8006c06:	d00f      	beq.n	8006c28 <USB_EPSetStall+0xae>
    {
      USBx_OUTEP(epnum)->DOEPCTL &= ~(USB_OTG_DOEPCTL_EPDIS);
 8006c08:	68bb      	ldr	r3, [r7, #8]
 8006c0a:	015a      	lsls	r2, r3, #5
 8006c0c:	68fb      	ldr	r3, [r7, #12]
 8006c0e:	4413      	add	r3, r2
 8006c10:	f503 6330 	add.w	r3, r3, #2816	@ 0xb00
 8006c14:	681b      	ldr	r3, [r3, #0]
 8006c16:	68ba      	ldr	r2, [r7, #8]
 8006c18:	0151      	lsls	r1, r2, #5
 8006c1a:	68fa      	ldr	r2, [r7, #12]
 8006c1c:	440a      	add	r2, r1
 8006c1e:	f502 6230 	add.w	r2, r2, #2816	@ 0xb00
 8006c22:	f023 4380 	bic.w	r3, r3, #1073741824	@ 0x40000000
 8006c26:	6013      	str	r3, [r2, #0]
    }
    USBx_OUTEP(epnum)->DOEPCTL |= USB_OTG_DOEPCTL_STALL;
 8006c28:	68bb      	ldr	r3, [r7, #8]
 8006c2a:	015a      	lsls	r2, r3, #5
 8006c2c:	68fb      	ldr	r3, [r7, #12]
 8006c2e:	4413      	add	r3, r2
 8006c30:	f503 6330 	add.w	r3, r3, #2816	@ 0xb00
 8006c34:	681b      	ldr	r3, [r3, #0]
 8006c36:	68ba      	ldr	r2, [r7, #8]
 8006c38:	0151      	lsls	r1, r2, #5
 8006c3a:	68fa      	ldr	r2, [r7, #12]
 8006c3c:	440a      	add	r2, r1
 8006c3e:	f502 6230 	add.w	r2, r2, #2816	@ 0xb00
 8006c42:	f443 1300 	orr.w	r3, r3, #2097152	@ 0x200000
 8006c46:	6013      	str	r3, [r2, #0]
  }

  return HAL_OK;
 8006c48:	2300      	movs	r3, #0
}
 8006c4a:	4618      	mov	r0, r3
 8006c4c:	3714      	adds	r7, #20
 8006c4e:	46bd      	mov	sp, r7
 8006c50:	f85d 7b04 	ldr.w	r7, [sp], #4
 8006c54:	4770      	bx	lr

08006c56 <USB_EPClearStall>:
  * @param  USBx  Selected device
  * @param  ep pointer to endpoint structure
  * @retval HAL status
  */
HAL_StatusTypeDef USB_EPClearStall(const USB_OTG_GlobalTypeDef *USBx, const USB_OTG_EPTypeDef *ep)
{
 8006c56:	b480      	push	{r7}
 8006c58:	b085      	sub	sp, #20
 8006c5a:	af00      	add	r7, sp, #0
 8006c5c:	6078      	str	r0, [r7, #4]
 8006c5e:	6039      	str	r1, [r7, #0]
  uint32_t USBx_BASE = (uint32_t)USBx;
 8006c60:	687b      	ldr	r3, [r7, #4]
 8006c62:	60fb      	str	r3, [r7, #12]
  uint32_t epnum = (uint32_t)ep->num;
 8006c64:	683b      	ldr	r3, [r7, #0]
 8006c66:	781b      	ldrb	r3, [r3, #0]
 8006c68:	60bb      	str	r3, [r7, #8]

  if (ep->is_in == 1U)
 8006c6a:	683b      	ldr	r3, [r7, #0]
 8006c6c:	785b      	ldrb	r3, [r3, #1]
 8006c6e:	2b01      	cmp	r3, #1
 8006c70:	d128      	bne.n	8006cc4 <USB_EPClearStall+0x6e>
  {
    USBx_INEP(epnum)->DIEPCTL &= ~USB_OTG_DIEPCTL_STALL;
 8006c72:	68bb      	ldr	r3, [r7, #8]
 8006c74:	015a      	lsls	r2, r3, #5
 8006c76:	68fb      	ldr	r3, [r7, #12]
 8006c78:	4413      	add	r3, r2
 8006c7a:	f503 6310 	add.w	r3, r3, #2304	@ 0x900
 8006c7e:	681b      	ldr	r3, [r3, #0]
 8006c80:	68ba      	ldr	r2, [r7, #8]
 8006c82:	0151      	lsls	r1, r2, #5
 8006c84:	68fa      	ldr	r2, [r7, #12]
 8006c86:	440a      	add	r2, r1
 8006c88:	f502 6210 	add.w	r2, r2, #2304	@ 0x900
 8006c8c:	f423 1300 	bic.w	r3, r3, #2097152	@ 0x200000
 8006c90:	6013      	str	r3, [r2, #0]
    if ((ep->type == EP_TYPE_INTR) || (ep->type == EP_TYPE_BULK))
 8006c92:	683b      	ldr	r3, [r7, #0]
 8006c94:	791b      	ldrb	r3, [r3, #4]
 8006c96:	2b03      	cmp	r3, #3
 8006c98:	d003      	beq.n	8006ca2 <USB_EPClearStall+0x4c>
 8006c9a:	683b      	ldr	r3, [r7, #0]
 8006c9c:	791b      	ldrb	r3, [r3, #4]
 8006c9e:	2b02      	cmp	r3, #2
 8006ca0:	d138      	bne.n	8006d14 <USB_EPClearStall+0xbe>
    {
      USBx_INEP(epnum)->DIEPCTL |= USB_OTG_DIEPCTL_SD0PID_SEVNFRM; /* DATA0 */
 8006ca2:	68bb      	ldr	r3, [r7, #8]
 8006ca4:	015a      	lsls	r2, r3, #5
 8006ca6:	68fb      	ldr	r3, [r7, #12]
 8006ca8:	4413      	add	r3, r2
 8006caa:	f503 6310 	add.w	r3, r3, #2304	@ 0x900
 8006cae:	681b      	ldr	r3, [r3, #0]
 8006cb0:	68ba      	ldr	r2, [r7, #8]
 8006cb2:	0151      	lsls	r1, r2, #5
 8006cb4:	68fa      	ldr	r2, [r7, #12]
 8006cb6:	440a      	add	r2, r1
 8006cb8:	f502 6210 	add.w	r2, r2, #2304	@ 0x900
 8006cbc:	f043 5380 	orr.w	r3, r3, #268435456	@ 0x10000000
 8006cc0:	6013      	str	r3, [r2, #0]
 8006cc2:	e027      	b.n	8006d14 <USB_EPClearStall+0xbe>
    }
  }
  else
  {
    USBx_OUTEP(epnum)->DOEPCTL &= ~USB_OTG_DOEPCTL_STALL;
 8006cc4:	68bb      	ldr	r3, [r7, #8]
 8006cc6:	015a      	lsls	r2, r3, #5
 8006cc8:	68fb      	ldr	r3, [r7, #12]
 8006cca:	4413      	add	r3, r2
 8006ccc:	f503 6330 	add.w	r3, r3, #2816	@ 0xb00
 8006cd0:	681b      	ldr	r3, [r3, #0]
 8006cd2:	68ba      	ldr	r2, [r7, #8]
 8006cd4:	0151      	lsls	r1, r2, #5
 8006cd6:	68fa      	ldr	r2, [r7, #12]
 8006cd8:	440a      	add	r2, r1
 8006cda:	f502 6230 	add.w	r2, r2, #2816	@ 0xb00
 8006cde:	f423 1300 	bic.w	r3, r3, #2097152	@ 0x200000
 8006ce2:	6013      	str	r3, [r2, #0]
    if ((ep->type == EP_TYPE_INTR) || (ep->type == EP_TYPE_BULK))
 8006ce4:	683b      	ldr	r3, [r7, #0]
 8006ce6:	791b      	ldrb	r3, [r3, #4]
 8006ce8:	2b03      	cmp	r3, #3
 8006cea:	d003      	beq.n	8006cf4 <USB_EPClearStall+0x9e>
 8006cec:	683b      	ldr	r3, [r7, #0]
 8006cee:	791b      	ldrb	r3, [r3, #4]
 8006cf0:	2b02      	cmp	r3, #2
 8006cf2:	d10f      	bne.n	8006d14 <USB_EPClearStall+0xbe>
    {
      USBx_OUTEP(epnum)->DOEPCTL |= USB_OTG_DOEPCTL_SD0PID_SEVNFRM; /* DATA0 */
 8006cf4:	68bb      	ldr	r3, [r7, #8]
 8006cf6:	015a      	lsls	r2, r3, #5
 8006cf8:	68fb      	ldr	r3, [r7, #12]
 8006cfa:	4413      	add	r3, r2
 8006cfc:	f503 6330 	add.w	r3, r3, #2816	@ 0xb00
 8006d00:	681b      	ldr	r3, [r3, #0]
 8006d02:	68ba      	ldr	r2, [r7, #8]
 8006d04:	0151      	lsls	r1, r2, #5
 8006d06:	68fa      	ldr	r2, [r7, #12]
 8006d08:	440a      	add	r2, r1
 8006d0a:	f502 6230 	add.w	r2, r2, #2816	@ 0xb00
 8006d0e:	f043 5380 	orr.w	r3, r3, #268435456	@ 0x10000000
 8006d12:	6013      	str	r3, [r2, #0]
    }
  }
  return HAL_OK;
 8006d14:	2300      	movs	r3, #0
}
 8006d16:	4618      	mov	r0, r3
 8006d18:	3714      	adds	r7, #20
 8006d1a:	46bd      	mov	sp, r7
 8006d1c:	f85d 7b04 	ldr.w	r7, [sp], #4
 8006d20:	4770      	bx	lr

08006d22 <USB_WritePacket>:
  *           1 : DMA feature used
  * @retval HAL status
  */
HAL_StatusTypeDef USB_WritePacket(const USB_OTG_GlobalTypeDef *USBx, uint8_t *src,
                                  uint8_t ch_ep_num, uint16_t len, uint8_t dma)
{
 8006d22:	b480      	push	{r7}
 8006d24:	b089      	sub	sp, #36	@ 0x24
 8006d26:	af00      	add	r7, sp, #0
 8006d28:	60f8      	str	r0, [r7, #12]
 8006d2a:	60b9      	str	r1, [r7, #8]
 8006d2c:	4611      	mov	r1, r2
 8006d2e:	461a      	mov	r2, r3
 8006d30:	460b      	mov	r3, r1
 8006d32:	71fb      	strb	r3, [r7, #7]
 8006d34:	4613      	mov	r3, r2
 8006d36:	80bb      	strh	r3, [r7, #4]
  uint32_t USBx_BASE = (uint32_t)USBx;
 8006d38:	68fb      	ldr	r3, [r7, #12]
 8006d3a:	617b      	str	r3, [r7, #20]
  uint8_t *pSrc = src;
 8006d3c:	68bb      	ldr	r3, [r7, #8]
 8006d3e:	61fb      	str	r3, [r7, #28]
  uint32_t count32b;
  uint32_t i;

  if (dma == 0U)
 8006d40:	f897 3028 	ldrb.w	r3, [r7, #40]	@ 0x28
 8006d44:	2b00      	cmp	r3, #0
 8006d46:	d123      	bne.n	8006d90 <USB_WritePacket+0x6e>
  {
    count32b = ((uint32_t)len + 3U) / 4U;
 8006d48:	88bb      	ldrh	r3, [r7, #4]
 8006d4a:	3303      	adds	r3, #3
 8006d4c:	089b      	lsrs	r3, r3, #2
 8006d4e:	613b      	str	r3, [r7, #16]
    for (i = 0U; i < count32b; i++)
 8006d50:	2300      	movs	r3, #0
 8006d52:	61bb      	str	r3, [r7, #24]
 8006d54:	e018      	b.n	8006d88 <USB_WritePacket+0x66>
    {
      USBx_DFIFO((uint32_t)ch_ep_num) = __UNALIGNED_UINT32_READ(pSrc);
 8006d56:	79fb      	ldrb	r3, [r7, #7]
 8006d58:	031a      	lsls	r2, r3, #12
 8006d5a:	697b      	ldr	r3, [r7, #20]
 8006d5c:	4413      	add	r3, r2
 8006d5e:	f503 5380 	add.w	r3, r3, #4096	@ 0x1000
 8006d62:	461a      	mov	r2, r3
 8006d64:	69fb      	ldr	r3, [r7, #28]
 8006d66:	681b      	ldr	r3, [r3, #0]
 8006d68:	6013      	str	r3, [r2, #0]
      pSrc++;
 8006d6a:	69fb      	ldr	r3, [r7, #28]
 8006d6c:	3301      	adds	r3, #1
 8006d6e:	61fb      	str	r3, [r7, #28]
      pSrc++;
 8006d70:	69fb      	ldr	r3, [r7, #28]
 8006d72:	3301      	adds	r3, #1
 8006d74:	61fb      	str	r3, [r7, #28]
      pSrc++;
 8006d76:	69fb      	ldr	r3, [r7, #28]
 8006d78:	3301      	adds	r3, #1
 8006d7a:	61fb      	str	r3, [r7, #28]
      pSrc++;
 8006d7c:	69fb      	ldr	r3, [r7, #28]
 8006d7e:	3301      	adds	r3, #1
 8006d80:	61fb      	str	r3, [r7, #28]
    for (i = 0U; i < count32b; i++)
 8006d82:	69bb      	ldr	r3, [r7, #24]
 8006d84:	3301      	adds	r3, #1
 8006d86:	61bb      	str	r3, [r7, #24]
 8006d88:	69ba      	ldr	r2, [r7, #24]
 8006d8a:	693b      	ldr	r3, [r7, #16]
 8006d8c:	429a      	cmp	r2, r3
 8006d8e:	d3e2      	bcc.n	8006d56 <USB_WritePacket+0x34>
    }
  }

  return HAL_OK;
 8006d90:	2300      	movs	r3, #0
}
 8006d92:	4618      	mov	r0, r3
 8006d94:	3724      	adds	r7, #36	@ 0x24
 8006d96:	46bd      	mov	sp, r7
 8006d98:	f85d 7b04 	ldr.w	r7, [sp], #4
 8006d9c:	4770      	bx	lr

08006d9e <USB_ReadPacket>:
  * @param  dest  source pointer
  * @param  len  Number of bytes to read
  * @retval pointer to destination buffer
  */
void *USB_ReadPacket(const USB_OTG_GlobalTypeDef *USBx, uint8_t *dest, uint16_t len)
{
 8006d9e:	b480      	push	{r7}
 8006da0:	b08b      	sub	sp, #44	@ 0x2c
 8006da2:	af00      	add	r7, sp, #0
 8006da4:	60f8      	str	r0, [r7, #12]
 8006da6:	60b9      	str	r1, [r7, #8]
 8006da8:	4613      	mov	r3, r2
 8006daa:	80fb      	strh	r3, [r7, #6]
  uint32_t USBx_BASE = (uint32_t)USBx;
 8006dac:	68fb      	ldr	r3, [r7, #12]
 8006dae:	61bb      	str	r3, [r7, #24]
  uint8_t *pDest = dest;
 8006db0:	68bb      	ldr	r3, [r7, #8]
 8006db2:	627b      	str	r3, [r7, #36]	@ 0x24
  uint32_t pData;
  uint32_t i;
  uint32_t count32b = (uint32_t)len >> 2U;
 8006db4:	88fb      	ldrh	r3, [r7, #6]
 8006db6:	089b      	lsrs	r3, r3, #2
 8006db8:	b29b      	uxth	r3, r3
 8006dba:	617b      	str	r3, [r7, #20]
  uint16_t remaining_bytes = len % 4U;
 8006dbc:	88fb      	ldrh	r3, [r7, #6]
 8006dbe:	f003 0303 	and.w	r3, r3, #3
 8006dc2:	83fb      	strh	r3, [r7, #30]

  for (i = 0U; i < count32b; i++)
 8006dc4:	2300      	movs	r3, #0
 8006dc6:	623b      	str	r3, [r7, #32]
 8006dc8:	e014      	b.n	8006df4 <USB_ReadPacket+0x56>
  {
    __UNALIGNED_UINT32_WRITE(pDest, USBx_DFIFO(0U));
 8006dca:	69bb      	ldr	r3, [r7, #24]
 8006dcc:	f503 5380 	add.w	r3, r3, #4096	@ 0x1000
 8006dd0:	681a      	ldr	r2, [r3, #0]
 8006dd2:	6a7b      	ldr	r3, [r7, #36]	@ 0x24
 8006dd4:	601a      	str	r2, [r3, #0]
    pDest++;
 8006dd6:	6a7b      	ldr	r3, [r7, #36]	@ 0x24
 8006dd8:	3301      	adds	r3, #1
 8006dda:	627b      	str	r3, [r7, #36]	@ 0x24
    pDest++;
 8006ddc:	6a7b      	ldr	r3, [r7, #36]	@ 0x24
 8006dde:	3301      	adds	r3, #1
 8006de0:	627b      	str	r3, [r7, #36]	@ 0x24
    pDest++;
 8006de2:	6a7b      	ldr	r3, [r7, #36]	@ 0x24
 8006de4:	3301      	adds	r3, #1
 8006de6:	627b      	str	r3, [r7, #36]	@ 0x24
    pDest++;
 8006de8:	6a7b      	ldr	r3, [r7, #36]	@ 0x24
 8006dea:	3301      	adds	r3, #1
 8006dec:	627b      	str	r3, [r7, #36]	@ 0x24
  for (i = 0U; i < count32b; i++)
 8006dee:	6a3b      	ldr	r3, [r7, #32]
 8006df0:	3301      	adds	r3, #1
 8006df2:	623b      	str	r3, [r7, #32]
 8006df4:	6a3a      	ldr	r2, [r7, #32]
 8006df6:	697b      	ldr	r3, [r7, #20]
 8006df8:	429a      	cmp	r2, r3
 8006dfa:	d3e6      	bcc.n	8006dca <USB_ReadPacket+0x2c>
  }

  /* When Number of data is not word aligned, read the remaining byte */
  if (remaining_bytes != 0U)
 8006dfc:	8bfb      	ldrh	r3, [r7, #30]
 8006dfe:	2b00      	cmp	r3, #0
 8006e00:	d01e      	beq.n	8006e40 <USB_ReadPacket+0xa2>
  {
    i = 0U;
 8006e02:	2300      	movs	r3, #0
 8006e04:	623b      	str	r3, [r7, #32]
    __UNALIGNED_UINT32_WRITE(&pData, USBx_DFIFO(0U));
 8006e06:	69bb      	ldr	r3, [r7, #24]
 8006e08:	f503 5380 	add.w	r3, r3, #4096	@ 0x1000
 8006e0c:	461a      	mov	r2, r3
 8006e0e:	f107 0310 	add.w	r3, r7, #16
 8006e12:	6812      	ldr	r2, [r2, #0]
 8006e14:	601a      	str	r2, [r3, #0]

    do
    {
      *(uint8_t *)pDest = (uint8_t)(pData >> (8U * (uint8_t)(i)));
 8006e16:	693a      	ldr	r2, [r7, #16]
 8006e18:	6a3b      	ldr	r3, [r7, #32]
 8006e1a:	b2db      	uxtb	r3, r3
 8006e1c:	00db      	lsls	r3, r3, #3
 8006e1e:	fa22 f303 	lsr.w	r3, r2, r3
 8006e22:	b2da      	uxtb	r2, r3
 8006e24:	6a7b      	ldr	r3, [r7, #36]	@ 0x24
 8006e26:	701a      	strb	r2, [r3, #0]
      i++;
 8006e28:	6a3b      	ldr	r3, [r7, #32]
 8006e2a:	3301      	adds	r3, #1
 8006e2c:	623b      	str	r3, [r7, #32]
      pDest++;
 8006e2e:	6a7b      	ldr	r3, [r7, #36]	@ 0x24
 8006e30:	3301      	adds	r3, #1
 8006e32:	627b      	str	r3, [r7, #36]	@ 0x24
      remaining_bytes--;
 8006e34:	8bfb      	ldrh	r3, [r7, #30]
 8006e36:	3b01      	subs	r3, #1
 8006e38:	83fb      	strh	r3, [r7, #30]
    } while (remaining_bytes != 0U);
 8006e3a:	8bfb      	ldrh	r3, [r7, #30]
 8006e3c:	2b00      	cmp	r3, #0
 8006e3e:	d1ea      	bne.n	8006e16 <USB_ReadPacket+0x78>
  }

  return ((void *)pDest);
 8006e40:	6a7b      	ldr	r3, [r7, #36]	@ 0x24
}
 8006e42:	4618      	mov	r0, r3
 8006e44:	372c      	adds	r7, #44	@ 0x2c
 8006e46:	46bd      	mov	sp, r7
 8006e48:	f85d 7b04 	ldr.w	r7, [sp], #4
 8006e4c:	4770      	bx	lr

08006e4e <USB_SetDevAddress>:
  * @param  address  new device address to be assigned
  *          This parameter can be a value from 0 to 255
  * @retval HAL status
  */
HAL_StatusTypeDef USB_SetDevAddress(const USB_OTG_GlobalTypeDef *USBx, uint8_t address)
{
 8006e4e:	b480      	push	{r7}
 8006e50:	b085      	sub	sp, #20
 8006e52:	af00      	add	r7, sp, #0
 8006e54:	6078      	str	r0, [r7, #4]
 8006e56:	460b      	mov	r3, r1
 8006e58:	70fb      	strb	r3, [r7, #3]
  uint32_t USBx_BASE = (uint32_t)USBx;
 8006e5a:	687b      	ldr	r3, [r7, #4]
 8006e5c:	60fb      	str	r3, [r7, #12]

  USBx_DEVICE->DCFG &= ~(USB_OTG_DCFG_DAD);
 8006e5e:	68fb      	ldr	r3, [r7, #12]
 8006e60:	f503 6300 	add.w	r3, r3, #2048	@ 0x800
 8006e64:	681b      	ldr	r3, [r3, #0]
 8006e66:	68fa      	ldr	r2, [r7, #12]
 8006e68:	f502 6200 	add.w	r2, r2, #2048	@ 0x800
 8006e6c:	f423 63fe 	bic.w	r3, r3, #2032	@ 0x7f0
 8006e70:	6013      	str	r3, [r2, #0]
  USBx_DEVICE->DCFG |= ((uint32_t)address << 4) & USB_OTG_DCFG_DAD;
 8006e72:	68fb      	ldr	r3, [r7, #12]
 8006e74:	f503 6300 	add.w	r3, r3, #2048	@ 0x800
 8006e78:	681a      	ldr	r2, [r3, #0]
 8006e7a:	78fb      	ldrb	r3, [r7, #3]
 8006e7c:	011b      	lsls	r3, r3, #4
 8006e7e:	f403 63fe 	and.w	r3, r3, #2032	@ 0x7f0
 8006e82:	68f9      	ldr	r1, [r7, #12]
 8006e84:	f501 6100 	add.w	r1, r1, #2048	@ 0x800
 8006e88:	4313      	orrs	r3, r2
 8006e8a:	600b      	str	r3, [r1, #0]

  return HAL_OK;
 8006e8c:	2300      	movs	r3, #0
}
 8006e8e:	4618      	mov	r0, r3
 8006e90:	3714      	adds	r7, #20
 8006e92:	46bd      	mov	sp, r7
 8006e94:	f85d 7b04 	ldr.w	r7, [sp], #4
 8006e98:	4770      	bx	lr

08006e9a <USB_DevConnect>:
  * @brief  USB_DevConnect : Connect the USB device by enabling Rpu
  * @param  USBx  Selected device
  * @retval HAL status
  */
HAL_StatusTypeDef USB_DevConnect(const USB_OTG_GlobalTypeDef *USBx)
{
 8006e9a:	b480      	push	{r7}
 8006e9c:	b085      	sub	sp, #20
 8006e9e:	af00      	add	r7, sp, #0
 8006ea0:	6078      	str	r0, [r7, #4]
  uint32_t USBx_BASE = (uint32_t)USBx;
 8006ea2:	687b      	ldr	r3, [r7, #4]
 8006ea4:	60fb      	str	r3, [r7, #12]

  /* In case phy is stopped, ensure to ungate and restore the phy CLK */
  USBx_PCGCCTL &= ~(USB_OTG_PCGCCTL_STOPCLK | USB_OTG_PCGCCTL_GATECLK);
 8006ea6:	68fb      	ldr	r3, [r7, #12]
 8006ea8:	f503 6360 	add.w	r3, r3, #3584	@ 0xe00
 8006eac:	681b      	ldr	r3, [r3, #0]
 8006eae:	68fa      	ldr	r2, [r7, #12]
 8006eb0:	f502 6260 	add.w	r2, r2, #3584	@ 0xe00
 8006eb4:	f023 0303 	bic.w	r3, r3, #3
 8006eb8:	6013      	str	r3, [r2, #0]

  USBx_DEVICE->DCTL &= ~USB_OTG_DCTL_SDIS;
 8006eba:	68fb      	ldr	r3, [r7, #12]
 8006ebc:	f503 6300 	add.w	r3, r3, #2048	@ 0x800
 8006ec0:	685b      	ldr	r3, [r3, #4]
 8006ec2:	68fa      	ldr	r2, [r7, #12]
 8006ec4:	f502 6200 	add.w	r2, r2, #2048	@ 0x800
 8006ec8:	f023 0302 	bic.w	r3, r3, #2
 8006ecc:	6053      	str	r3, [r2, #4]

  return HAL_OK;
 8006ece:	2300      	movs	r3, #0
}
 8006ed0:	4618      	mov	r0, r3
 8006ed2:	3714      	adds	r7, #20
 8006ed4:	46bd      	mov	sp, r7
 8006ed6:	f85d 7b04 	ldr.w	r7, [sp], #4
 8006eda:	4770      	bx	lr

08006edc <USB_DevDisconnect>:
  * @brief  USB_DevDisconnect : Disconnect the USB device by disabling Rpu
  * @param  USBx  Selected device
  * @retval HAL status
  */
HAL_StatusTypeDef USB_DevDisconnect(const USB_OTG_GlobalTypeDef *USBx)
{
 8006edc:	b480      	push	{r7}
 8006ede:	b085      	sub	sp, #20
 8006ee0:	af00      	add	r7, sp, #0
 8006ee2:	6078      	str	r0, [r7, #4]
  uint32_t USBx_BASE = (uint32_t)USBx;
 8006ee4:	687b      	ldr	r3, [r7, #4]
 8006ee6:	60fb      	str	r3, [r7, #12]

  /* In case phy is stopped, ensure to ungate and restore the phy CLK */
  USBx_PCGCCTL &= ~(USB_OTG_PCGCCTL_STOPCLK | USB_OTG_PCGCCTL_GATECLK);
 8006ee8:	68fb      	ldr	r3, [r7, #12]
 8006eea:	f503 6360 	add.w	r3, r3, #3584	@ 0xe00
 8006eee:	681b      	ldr	r3, [r3, #0]
 8006ef0:	68fa      	ldr	r2, [r7, #12]
 8006ef2:	f502 6260 	add.w	r2, r2, #3584	@ 0xe00
 8006ef6:	f023 0303 	bic.w	r3, r3, #3
 8006efa:	6013      	str	r3, [r2, #0]

  USBx_DEVICE->DCTL |= USB_OTG_DCTL_SDIS;
 8006efc:	68fb      	ldr	r3, [r7, #12]
 8006efe:	f503 6300 	add.w	r3, r3, #2048	@ 0x800
 8006f02:	685b      	ldr	r3, [r3, #4]
 8006f04:	68fa      	ldr	r2, [r7, #12]
 8006f06:	f502 6200 	add.w	r2, r2, #2048	@ 0x800
 8006f0a:	f043 0302 	orr.w	r3, r3, #2
 8006f0e:	6053      	str	r3, [r2, #4]

  return HAL_OK;
 8006f10:	2300      	movs	r3, #0
}
 8006f12:	4618      	mov	r0, r3
 8006f14:	3714      	adds	r7, #20
 8006f16:	46bd      	mov	sp, r7
 8006f18:	f85d 7b04 	ldr.w	r7, [sp], #4
 8006f1c:	4770      	bx	lr

08006f1e <USB_ReadInterrupts>:
  * @brief  USB_ReadInterrupts: return the global USB interrupt status
  * @param  USBx  Selected device
  * @retval USB Global Interrupt status
  */
uint32_t USB_ReadInterrupts(USB_OTG_GlobalTypeDef const *USBx)
{
 8006f1e:	b480      	push	{r7}
 8006f20:	b085      	sub	sp, #20
 8006f22:	af00      	add	r7, sp, #0
 8006f24:	6078      	str	r0, [r7, #4]
  uint32_t tmpreg;

  tmpreg = USBx->GINTSTS;
 8006f26:	687b      	ldr	r3, [r7, #4]
 8006f28:	695b      	ldr	r3, [r3, #20]
 8006f2a:	60fb      	str	r3, [r7, #12]
  tmpreg &= USBx->GINTMSK;
 8006f2c:	687b      	ldr	r3, [r7, #4]
 8006f2e:	699b      	ldr	r3, [r3, #24]
 8006f30:	68fa      	ldr	r2, [r7, #12]
 8006f32:	4013      	ands	r3, r2
 8006f34:	60fb      	str	r3, [r7, #12]

  return tmpreg;
 8006f36:	68fb      	ldr	r3, [r7, #12]
}
 8006f38:	4618      	mov	r0, r3
 8006f3a:	3714      	adds	r7, #20
 8006f3c:	46bd      	mov	sp, r7
 8006f3e:	f85d 7b04 	ldr.w	r7, [sp], #4
 8006f42:	4770      	bx	lr

08006f44 <USB_ReadDevAllOutEpInterrupt>:
  * @brief  USB_ReadDevAllOutEpInterrupt: return the USB device OUT endpoints interrupt status
  * @param  USBx  Selected device
  * @retval USB Device OUT EP interrupt status
  */
uint32_t USB_ReadDevAllOutEpInterrupt(const USB_OTG_GlobalTypeDef *USBx)
{
 8006f44:	b480      	push	{r7}
 8006f46:	b085      	sub	sp, #20
 8006f48:	af00      	add	r7, sp, #0
 8006f4a:	6078      	str	r0, [r7, #4]
  uint32_t USBx_BASE = (uint32_t)USBx;
 8006f4c:	687b      	ldr	r3, [r7, #4]
 8006f4e:	60fb      	str	r3, [r7, #12]
  uint32_t tmpreg;

  tmpreg  = USBx_DEVICE->DAINT;
 8006f50:	68fb      	ldr	r3, [r7, #12]
 8006f52:	f503 6300 	add.w	r3, r3, #2048	@ 0x800
 8006f56:	699b      	ldr	r3, [r3, #24]
 8006f58:	60bb      	str	r3, [r7, #8]
  tmpreg &= USBx_DEVICE->DAINTMSK;
 8006f5a:	68fb      	ldr	r3, [r7, #12]
 8006f5c:	f503 6300 	add.w	r3, r3, #2048	@ 0x800
 8006f60:	69db      	ldr	r3, [r3, #28]
 8006f62:	68ba      	ldr	r2, [r7, #8]
 8006f64:	4013      	ands	r3, r2
 8006f66:	60bb      	str	r3, [r7, #8]

  return ((tmpreg & 0xffff0000U) >> 16);
 8006f68:	68bb      	ldr	r3, [r7, #8]
 8006f6a:	0c1b      	lsrs	r3, r3, #16
}
 8006f6c:	4618      	mov	r0, r3
 8006f6e:	3714      	adds	r7, #20
 8006f70:	46bd      	mov	sp, r7
 8006f72:	f85d 7b04 	ldr.w	r7, [sp], #4
 8006f76:	4770      	bx	lr

08006f78 <USB_ReadDevAllInEpInterrupt>:
  * @brief  USB_ReadDevAllInEpInterrupt: return the USB device IN endpoints interrupt status
  * @param  USBx  Selected device
  * @retval USB Device IN EP interrupt status
  */
uint32_t USB_ReadDevAllInEpInterrupt(const USB_OTG_GlobalTypeDef *USBx)
{
 8006f78:	b480      	push	{r7}
 8006f7a:	b085      	sub	sp, #20
 8006f7c:	af00      	add	r7, sp, #0
 8006f7e:	6078      	str	r0, [r7, #4]
  uint32_t USBx_BASE = (uint32_t)USBx;
 8006f80:	687b      	ldr	r3, [r7, #4]
 8006f82:	60fb      	str	r3, [r7, #12]
  uint32_t tmpreg;

  tmpreg  = USBx_DEVICE->DAINT;
 8006f84:	68fb      	ldr	r3, [r7, #12]
 8006f86:	f503 6300 	add.w	r3, r3, #2048	@ 0x800
 8006f8a:	699b      	ldr	r3, [r3, #24]
 8006f8c:	60bb      	str	r3, [r7, #8]
  tmpreg &= USBx_DEVICE->DAINTMSK;
 8006f8e:	68fb      	ldr	r3, [r7, #12]
 8006f90:	f503 6300 	add.w	r3, r3, #2048	@ 0x800
 8006f94:	69db      	ldr	r3, [r3, #28]
 8006f96:	68ba      	ldr	r2, [r7, #8]
 8006f98:	4013      	ands	r3, r2
 8006f9a:	60bb      	str	r3, [r7, #8]

  return ((tmpreg & 0xFFFFU));
 8006f9c:	68bb      	ldr	r3, [r7, #8]
 8006f9e:	b29b      	uxth	r3, r3
}
 8006fa0:	4618      	mov	r0, r3
 8006fa2:	3714      	adds	r7, #20
 8006fa4:	46bd      	mov	sp, r7
 8006fa6:	f85d 7b04 	ldr.w	r7, [sp], #4
 8006faa:	4770      	bx	lr

08006fac <USB_ReadDevOutEPInterrupt>:
  * @param  epnum  endpoint number
  *          This parameter can be a value from 0 to 15
  * @retval Device OUT EP Interrupt register
  */
uint32_t USB_ReadDevOutEPInterrupt(const USB_OTG_GlobalTypeDef *USBx, uint8_t epnum)
{
 8006fac:	b480      	push	{r7}
 8006fae:	b085      	sub	sp, #20
 8006fb0:	af00      	add	r7, sp, #0
 8006fb2:	6078      	str	r0, [r7, #4]
 8006fb4:	460b      	mov	r3, r1
 8006fb6:	70fb      	strb	r3, [r7, #3]
  uint32_t USBx_BASE = (uint32_t)USBx;
 8006fb8:	687b      	ldr	r3, [r7, #4]
 8006fba:	60fb      	str	r3, [r7, #12]
  uint32_t tmpreg;

  tmpreg  = USBx_OUTEP((uint32_t)epnum)->DOEPINT;
 8006fbc:	78fb      	ldrb	r3, [r7, #3]
 8006fbe:	015a      	lsls	r2, r3, #5
 8006fc0:	68fb      	ldr	r3, [r7, #12]
 8006fc2:	4413      	add	r3, r2
 8006fc4:	f503 6330 	add.w	r3, r3, #2816	@ 0xb00
 8006fc8:	689b      	ldr	r3, [r3, #8]
 8006fca:	60bb      	str	r3, [r7, #8]
  tmpreg &= USBx_DEVICE->DOEPMSK;
 8006fcc:	68fb      	ldr	r3, [r7, #12]
 8006fce:	f503 6300 	add.w	r3, r3, #2048	@ 0x800
 8006fd2:	695b      	ldr	r3, [r3, #20]
 8006fd4:	68ba      	ldr	r2, [r7, #8]
 8006fd6:	4013      	ands	r3, r2
 8006fd8:	60bb      	str	r3, [r7, #8]

  return tmpreg;
 8006fda:	68bb      	ldr	r3, [r7, #8]
}
 8006fdc:	4618      	mov	r0, r3
 8006fde:	3714      	adds	r7, #20
 8006fe0:	46bd      	mov	sp, r7
 8006fe2:	f85d 7b04 	ldr.w	r7, [sp], #4
 8006fe6:	4770      	bx	lr

08006fe8 <USB_ReadDevInEPInterrupt>:
  * @param  epnum  endpoint number
  *          This parameter can be a value from 0 to 15
  * @retval Device IN EP Interrupt register
  */
uint32_t USB_ReadDevInEPInterrupt(const USB_OTG_GlobalTypeDef *USBx, uint8_t epnum)
{
 8006fe8:	b480      	push	{r7}
 8006fea:	b087      	sub	sp, #28
 8006fec:	af00      	add	r7, sp, #0
 8006fee:	6078      	str	r0, [r7, #4]
 8006ff0:	460b      	mov	r3, r1
 8006ff2:	70fb      	strb	r3, [r7, #3]
  uint32_t USBx_BASE = (uint32_t)USBx;
 8006ff4:	687b      	ldr	r3, [r7, #4]
 8006ff6:	617b      	str	r3, [r7, #20]
  uint32_t tmpreg;
  uint32_t msk;
  uint32_t emp;

  msk = USBx_DEVICE->DIEPMSK;
 8006ff8:	697b      	ldr	r3, [r7, #20]
 8006ffa:	f503 6300 	add.w	r3, r3, #2048	@ 0x800
 8006ffe:	691b      	ldr	r3, [r3, #16]
 8007000:	613b      	str	r3, [r7, #16]
  emp = USBx_DEVICE->DIEPEMPMSK;
 8007002:	697b      	ldr	r3, [r7, #20]
 8007004:	f503 6300 	add.w	r3, r3, #2048	@ 0x800
 8007008:	6b5b      	ldr	r3, [r3, #52]	@ 0x34
 800700a:	60fb      	str	r3, [r7, #12]
  msk |= ((emp >> (epnum & EP_ADDR_MSK)) & 0x1U) << 7;
 800700c:	78fb      	ldrb	r3, [r7, #3]
 800700e:	f003 030f 	and.w	r3, r3, #15
 8007012:	68fa      	ldr	r2, [r7, #12]
 8007014:	fa22 f303 	lsr.w	r3, r2, r3
 8007018:	01db      	lsls	r3, r3, #7
 800701a:	b2db      	uxtb	r3, r3
 800701c:	693a      	ldr	r2, [r7, #16]
 800701e:	4313      	orrs	r3, r2
 8007020:	613b      	str	r3, [r7, #16]
  tmpreg = USBx_INEP((uint32_t)epnum)->DIEPINT & msk;
 8007022:	78fb      	ldrb	r3, [r7, #3]
 8007024:	015a      	lsls	r2, r3, #5
 8007026:	697b      	ldr	r3, [r7, #20]
 8007028:	4413      	add	r3, r2
 800702a:	f503 6310 	add.w	r3, r3, #2304	@ 0x900
 800702e:	689b      	ldr	r3, [r3, #8]
 8007030:	693a      	ldr	r2, [r7, #16]
 8007032:	4013      	ands	r3, r2
 8007034:	60bb      	str	r3, [r7, #8]

  return tmpreg;
 8007036:	68bb      	ldr	r3, [r7, #8]
}
 8007038:	4618      	mov	r0, r3
 800703a:	371c      	adds	r7, #28
 800703c:	46bd      	mov	sp, r7
 800703e:	f85d 7b04 	ldr.w	r7, [sp], #4
 8007042:	4770      	bx	lr

08007044 <USB_GetMode>:
  *          This parameter can be one of these values:
  *           1 : Host
  *           0 : Device
  */
uint32_t USB_GetMode(const USB_OTG_GlobalTypeDef *USBx)
{
 8007044:	b480      	push	{r7}
 8007046:	b083      	sub	sp, #12
 8007048:	af00      	add	r7, sp, #0
 800704a:	6078      	str	r0, [r7, #4]
  return ((USBx->GINTSTS) & 0x1U);
 800704c:	687b      	ldr	r3, [r7, #4]
 800704e:	695b      	ldr	r3, [r3, #20]
 8007050:	f003 0301 	and.w	r3, r3, #1
}
 8007054:	4618      	mov	r0, r3
 8007056:	370c      	adds	r7, #12
 8007058:	46bd      	mov	sp, r7
 800705a:	f85d 7b04 	ldr.w	r7, [sp], #4
 800705e:	4770      	bx	lr

08007060 <USB_ActivateSetup>:
  * @brief  Activate EP0 for Setup transactions
  * @param  USBx  Selected device
  * @retval HAL status
  */
HAL_StatusTypeDef USB_ActivateSetup(const USB_OTG_GlobalTypeDef *USBx)
{
 8007060:	b480      	push	{r7}
 8007062:	b085      	sub	sp, #20
 8007064:	af00      	add	r7, sp, #0
 8007066:	6078      	str	r0, [r7, #4]
  uint32_t USBx_BASE = (uint32_t)USBx;
 8007068:	687b      	ldr	r3, [r7, #4]
 800706a:	60fb      	str	r3, [r7, #12]

  /* Set the MPS of the IN EP0 to 64 bytes */
  USBx_INEP(0U)->DIEPCTL &= ~USB_OTG_DIEPCTL_MPSIZ;
 800706c:	68fb      	ldr	r3, [r7, #12]
 800706e:	f503 6310 	add.w	r3, r3, #2304	@ 0x900
 8007072:	681a      	ldr	r2, [r3, #0]
 8007074:	68fb      	ldr	r3, [r7, #12]
 8007076:	f503 6310 	add.w	r3, r3, #2304	@ 0x900
 800707a:	4619      	mov	r1, r3
 800707c:	4b09      	ldr	r3, [pc, #36]	@ (80070a4 <USB_ActivateSetup+0x44>)
 800707e:	4013      	ands	r3, r2
 8007080:	600b      	str	r3, [r1, #0]

  USBx_DEVICE->DCTL |= USB_OTG_DCTL_CGINAK;
 8007082:	68fb      	ldr	r3, [r7, #12]
 8007084:	f503 6300 	add.w	r3, r3, #2048	@ 0x800
 8007088:	685b      	ldr	r3, [r3, #4]
 800708a:	68fa      	ldr	r2, [r7, #12]
 800708c:	f502 6200 	add.w	r2, r2, #2048	@ 0x800
 8007090:	f443 7380 	orr.w	r3, r3, #256	@ 0x100
 8007094:	6053      	str	r3, [r2, #4]

  return HAL_OK;
 8007096:	2300      	movs	r3, #0
}
 8007098:	4618      	mov	r0, r3
 800709a:	3714      	adds	r7, #20
 800709c:	46bd      	mov	sp, r7
 800709e:	f85d 7b04 	ldr.w	r7, [sp], #4
 80070a2:	4770      	bx	lr
 80070a4:	fffff800 	.word	0xfffff800

080070a8 <USB_EP0_OutStart>:
  *           1 : DMA feature used
  * @param  psetup  pointer to setup packet
  * @retval HAL status
  */
HAL_StatusTypeDef USB_EP0_OutStart(const USB_OTG_GlobalTypeDef *USBx, uint8_t dma, const uint8_t *psetup)
{
 80070a8:	b480      	push	{r7}
 80070aa:	b087      	sub	sp, #28
 80070ac:	af00      	add	r7, sp, #0
 80070ae:	60f8      	str	r0, [r7, #12]
 80070b0:	460b      	mov	r3, r1
 80070b2:	607a      	str	r2, [r7, #4]
 80070b4:	72fb      	strb	r3, [r7, #11]
  uint32_t USBx_BASE = (uint32_t)USBx;
 80070b6:	68fb      	ldr	r3, [r7, #12]
 80070b8:	617b      	str	r3, [r7, #20]
  uint32_t gSNPSiD = *(__IO const uint32_t *)(&USBx->CID + 0x1U);
 80070ba:	68fb      	ldr	r3, [r7, #12]
 80070bc:	333c      	adds	r3, #60	@ 0x3c
 80070be:	3304      	adds	r3, #4
 80070c0:	681b      	ldr	r3, [r3, #0]
 80070c2:	613b      	str	r3, [r7, #16]

  if (gSNPSiD > USB_OTG_CORE_ID_300A)
 80070c4:	693b      	ldr	r3, [r7, #16]
 80070c6:	4a26      	ldr	r2, [pc, #152]	@ (8007160 <USB_EP0_OutStart+0xb8>)
 80070c8:	4293      	cmp	r3, r2
 80070ca:	d90a      	bls.n	80070e2 <USB_EP0_OutStart+0x3a>
  {
    if ((USBx_OUTEP(0U)->DOEPCTL & USB_OTG_DOEPCTL_EPENA) == USB_OTG_DOEPCTL_EPENA)
 80070cc:	697b      	ldr	r3, [r7, #20]
 80070ce:	f503 6330 	add.w	r3, r3, #2816	@ 0xb00
 80070d2:	681b      	ldr	r3, [r3, #0]
 80070d4:	f003 4300 	and.w	r3, r3, #2147483648	@ 0x80000000
 80070d8:	f1b3 4f00 	cmp.w	r3, #2147483648	@ 0x80000000
 80070dc:	d101      	bne.n	80070e2 <USB_EP0_OutStart+0x3a>
    {
      return HAL_OK;
 80070de:	2300      	movs	r3, #0
 80070e0:	e037      	b.n	8007152 <USB_EP0_OutStart+0xaa>
    }
  }

  USBx_OUTEP(0U)->DOEPTSIZ = 0U;
 80070e2:	697b      	ldr	r3, [r7, #20]
 80070e4:	f503 6330 	add.w	r3, r3, #2816	@ 0xb00
 80070e8:	461a      	mov	r2, r3
 80070ea:	2300      	movs	r3, #0
 80070ec:	6113      	str	r3, [r2, #16]
  USBx_OUTEP(0U)->DOEPTSIZ |= (USB_OTG_DOEPTSIZ_PKTCNT & (1UL << 19));
 80070ee:	697b      	ldr	r3, [r7, #20]
 80070f0:	f503 6330 	add.w	r3, r3, #2816	@ 0xb00
 80070f4:	691b      	ldr	r3, [r3, #16]
 80070f6:	697a      	ldr	r2, [r7, #20]
 80070f8:	f502 6230 	add.w	r2, r2, #2816	@ 0xb00
 80070fc:	f443 2300 	orr.w	r3, r3, #524288	@ 0x80000
 8007100:	6113      	str	r3, [r2, #16]
  USBx_OUTEP(0U)->DOEPTSIZ |= (3U * 8U);
 8007102:	697b      	ldr	r3, [r7, #20]
 8007104:	f503 6330 	add.w	r3, r3, #2816	@ 0xb00
 8007108:	691b      	ldr	r3, [r3, #16]
 800710a:	697a      	ldr	r2, [r7, #20]
 800710c:	f502 6230 	add.w	r2, r2, #2816	@ 0xb00
 8007110:	f043 0318 	orr.w	r3, r3, #24
 8007114:	6113      	str	r3, [r2, #16]
  USBx_OUTEP(0U)->DOEPTSIZ |=  USB_OTG_DOEPTSIZ_STUPCNT;
 8007116:	697b      	ldr	r3, [r7, #20]
 8007118:	f503 6330 	add.w	r3, r3, #2816	@ 0xb00
 800711c:	691b      	ldr	r3, [r3, #16]
 800711e:	697a      	ldr	r2, [r7, #20]
 8007120:	f502 6230 	add.w	r2, r2, #2816	@ 0xb00
 8007124:	f043 43c0 	orr.w	r3, r3, #1610612736	@ 0x60000000
 8007128:	6113      	str	r3, [r2, #16]

  if (dma == 1U)
 800712a:	7afb      	ldrb	r3, [r7, #11]
 800712c:	2b01      	cmp	r3, #1
 800712e:	d10f      	bne.n	8007150 <USB_EP0_OutStart+0xa8>
  {
    USBx_OUTEP(0U)->DOEPDMA = (uint32_t)psetup;
 8007130:	697b      	ldr	r3, [r7, #20]
 8007132:	f503 6330 	add.w	r3, r3, #2816	@ 0xb00
 8007136:	461a      	mov	r2, r3
 8007138:	687b      	ldr	r3, [r7, #4]
 800713a:	6153      	str	r3, [r2, #20]
    /* EP enable */
    USBx_OUTEP(0U)->DOEPCTL |= USB_OTG_DOEPCTL_EPENA | USB_OTG_DOEPCTL_USBAEP;
 800713c:	697b      	ldr	r3, [r7, #20]
 800713e:	f503 6330 	add.w	r3, r3, #2816	@ 0xb00
 8007142:	681b      	ldr	r3, [r3, #0]
 8007144:	697a      	ldr	r2, [r7, #20]
 8007146:	f502 6230 	add.w	r2, r2, #2816	@ 0xb00
 800714a:	f043 2380 	orr.w	r3, r3, #2147516416	@ 0x80008000
 800714e:	6013      	str	r3, [r2, #0]
  }

  return HAL_OK;
 8007150:	2300      	movs	r3, #0
}
 8007152:	4618      	mov	r0, r3
 8007154:	371c      	adds	r7, #28
 8007156:	46bd      	mov	sp, r7
 8007158:	f85d 7b04 	ldr.w	r7, [sp], #4
 800715c:	4770      	bx	lr
 800715e:	bf00      	nop
 8007160:	4f54300a 	.word	0x4f54300a

08007164 <USB_CoreReset>:
  * @brief  Reset the USB Core (needed after USB clock settings change)
  * @param  USBx  Selected device
  * @retval HAL status
  */
static HAL_StatusTypeDef USB_CoreReset(USB_OTG_GlobalTypeDef *USBx)
{
 8007164:	b480      	push	{r7}
 8007166:	b085      	sub	sp, #20
 8007168:	af00      	add	r7, sp, #0
 800716a:	6078      	str	r0, [r7, #4]
  __IO uint32_t count = 0U;
 800716c:	2300      	movs	r3, #0
 800716e:	60fb      	str	r3, [r7, #12]

  /* Wait for AHB master IDLE state. */
  do
  {
    count++;
 8007170:	68fb      	ldr	r3, [r7, #12]
 8007172:	3301      	adds	r3, #1
 8007174:	60fb      	str	r3, [r7, #12]

    if (count > HAL_USB_TIMEOUT)
 8007176:	68fb      	ldr	r3, [r7, #12]
 8007178:	f1b3 6f70 	cmp.w	r3, #251658240	@ 0xf000000
 800717c:	d901      	bls.n	8007182 <USB_CoreReset+0x1e>
    {
      return HAL_TIMEOUT;
 800717e:	2303      	movs	r3, #3
 8007180:	e022      	b.n	80071c8 <USB_CoreReset+0x64>
    }
  } while ((USBx->GRSTCTL & USB_OTG_GRSTCTL_AHBIDL) == 0U);
 8007182:	687b      	ldr	r3, [r7, #4]
 8007184:	691b      	ldr	r3, [r3, #16]
 8007186:	2b00      	cmp	r3, #0
 8007188:	daf2      	bge.n	8007170 <USB_CoreReset+0xc>

  count = 10U;
 800718a:	230a      	movs	r3, #10
 800718c:	60fb      	str	r3, [r7, #12]

  /* few cycles before setting core reset */
  while (count > 0U)
 800718e:	e002      	b.n	8007196 <USB_CoreReset+0x32>
  {
    count--;
 8007190:	68fb      	ldr	r3, [r7, #12]
 8007192:	3b01      	subs	r3, #1
 8007194:	60fb      	str	r3, [r7, #12]
  while (count > 0U)
 8007196:	68fb      	ldr	r3, [r7, #12]
 8007198:	2b00      	cmp	r3, #0
 800719a:	d1f9      	bne.n	8007190 <USB_CoreReset+0x2c>
  }

  /* Core Soft Reset */
  USBx->GRSTCTL |= USB_OTG_GRSTCTL_CSRST;
 800719c:	687b      	ldr	r3, [r7, #4]
 800719e:	691b      	ldr	r3, [r3, #16]
 80071a0:	f043 0201 	orr.w	r2, r3, #1
 80071a4:	687b      	ldr	r3, [r7, #4]
 80071a6:	611a      	str	r2, [r3, #16]

  do
  {
    count++;
 80071a8:	68fb      	ldr	r3, [r7, #12]
 80071aa:	3301      	adds	r3, #1
 80071ac:	60fb      	str	r3, [r7, #12]

    if (count > HAL_USB_TIMEOUT)
 80071ae:	68fb      	ldr	r3, [r7, #12]
 80071b0:	f1b3 6f70 	cmp.w	r3, #251658240	@ 0xf000000
 80071b4:	d901      	bls.n	80071ba <USB_CoreReset+0x56>
    {
      return HAL_TIMEOUT;
 80071b6:	2303      	movs	r3, #3
 80071b8:	e006      	b.n	80071c8 <USB_CoreReset+0x64>
    }
  } while ((USBx->GRSTCTL & USB_OTG_GRSTCTL_CSRST) == USB_OTG_GRSTCTL_CSRST);
 80071ba:	687b      	ldr	r3, [r7, #4]
 80071bc:	691b      	ldr	r3, [r3, #16]
 80071be:	f003 0301 	and.w	r3, r3, #1
 80071c2:	2b01      	cmp	r3, #1
 80071c4:	d0f0      	beq.n	80071a8 <USB_CoreReset+0x44>

  return HAL_OK;
 80071c6:	2300      	movs	r3, #0
}
 80071c8:	4618      	mov	r0, r3
 80071ca:	3714      	adds	r7, #20
 80071cc:	46bd      	mov	sp, r7
 80071ce:	f85d 7b04 	ldr.w	r7, [sp], #4
 80071d2:	4770      	bx	lr

080071d4 <USBD_CDC_Init>:
  * @param  pdev: device instance
  * @param  cfgidx: Configuration index
  * @retval status
  */
static uint8_t USBD_CDC_Init(USBD_HandleTypeDef *pdev, uint8_t cfgidx)
{
 80071d4:	b580      	push	{r7, lr}
 80071d6:	b084      	sub	sp, #16
 80071d8:	af00      	add	r7, sp, #0
 80071da:	6078      	str	r0, [r7, #4]
 80071dc:	460b      	mov	r3, r1
 80071de:	70fb      	strb	r3, [r7, #3]
  UNUSED(cfgidx);
  USBD_CDC_HandleTypeDef *hcdc;

  hcdc = (USBD_CDC_HandleTypeDef *)USBD_malloc(sizeof(USBD_CDC_HandleTypeDef));
 80071e0:	f44f 7007 	mov.w	r0, #540	@ 0x21c
 80071e4:	f002 fce6 	bl	8009bb4 <USBD_static_malloc>
 80071e8:	60f8      	str	r0, [r7, #12]

  if (hcdc == NULL)
 80071ea:	68fb      	ldr	r3, [r7, #12]
 80071ec:	2b00      	cmp	r3, #0
 80071ee:	d109      	bne.n	8007204 <USBD_CDC_Init+0x30>
  {
    pdev->pClassDataCmsit[pdev->classId] = NULL;
 80071f0:	687b      	ldr	r3, [r7, #4]
 80071f2:	f8d3 22d4 	ldr.w	r2, [r3, #724]	@ 0x2d4
 80071f6:	687b      	ldr	r3, [r7, #4]
 80071f8:	32b0      	adds	r2, #176	@ 0xb0
 80071fa:	2100      	movs	r1, #0
 80071fc:	f843 1022 	str.w	r1, [r3, r2, lsl #2]
    return (uint8_t)USBD_EMEM;
 8007200:	2302      	movs	r3, #2
 8007202:	e0d4      	b.n	80073ae <USBD_CDC_Init+0x1da>
  }

  (void)USBD_memset(hcdc, 0, sizeof(USBD_CDC_HandleTypeDef));
 8007204:	f44f 7207 	mov.w	r2, #540	@ 0x21c
 8007208:	2100      	movs	r1, #0
 800720a:	68f8      	ldr	r0, [r7, #12]
 800720c:	f002 fd16 	bl	8009c3c <memset>

  pdev->pClassDataCmsit[pdev->classId] = (void *)hcdc;
 8007210:	687b      	ldr	r3, [r7, #4]
 8007212:	f8d3 22d4 	ldr.w	r2, [r3, #724]	@ 0x2d4
 8007216:	687b      	ldr	r3, [r7, #4]
 8007218:	32b0      	adds	r2, #176	@ 0xb0
 800721a:	68f9      	ldr	r1, [r7, #12]
 800721c:	f843 1022 	str.w	r1, [r3, r2, lsl #2]
  pdev->pClassData = pdev->pClassDataCmsit[pdev->classId];
 8007220:	687b      	ldr	r3, [r7, #4]
 8007222:	f8d3 22d4 	ldr.w	r2, [r3, #724]	@ 0x2d4
 8007226:	687b      	ldr	r3, [r7, #4]
 8007228:	32b0      	adds	r2, #176	@ 0xb0
 800722a:	f853 2022 	ldr.w	r2, [r3, r2, lsl #2]
 800722e:	687b      	ldr	r3, [r7, #4]
 8007230:	f8c3 22bc 	str.w	r2, [r3, #700]	@ 0x2bc
  CDCInEpAdd  = USBD_CoreGetEPAdd(pdev, USBD_EP_IN, USBD_EP_TYPE_BULK, (uint8_t)pdev->classId);
  CDCOutEpAdd = USBD_CoreGetEPAdd(pdev, USBD_EP_OUT, USBD_EP_TYPE_BULK, (uint8_t)pdev->classId);
  CDCCmdEpAdd = USBD_CoreGetEPAdd(pdev, USBD_EP_IN, USBD_EP_TYPE_INTR, (uint8_t)pdev->classId);
#endif /* USE_USBD_COMPOSITE */

  if (pdev->dev_speed == USBD_SPEED_HIGH)
 8007234:	687b      	ldr	r3, [r7, #4]
 8007236:	7c1b      	ldrb	r3, [r3, #16]
 8007238:	2b00      	cmp	r3, #0
 800723a:	d138      	bne.n	80072ae <USBD_CDC_Init+0xda>
  {
    /* Open EP IN */
    (void)USBD_LL_OpenEP(pdev, CDCInEpAdd, USBD_EP_TYPE_BULK,
 800723c:	4b5e      	ldr	r3, [pc, #376]	@ (80073b8 <USBD_CDC_Init+0x1e4>)
 800723e:	7819      	ldrb	r1, [r3, #0]
 8007240:	f44f 7300 	mov.w	r3, #512	@ 0x200
 8007244:	2202      	movs	r2, #2
 8007246:	6878      	ldr	r0, [r7, #4]
 8007248:	f002 fb91 	bl	800996e <USBD_LL_OpenEP>
                         CDC_DATA_HS_IN_PACKET_SIZE);

    pdev->ep_in[CDCInEpAdd & 0xFU].is_used = 1U;
 800724c:	4b5a      	ldr	r3, [pc, #360]	@ (80073b8 <USBD_CDC_Init+0x1e4>)
 800724e:	781b      	ldrb	r3, [r3, #0]
 8007250:	f003 020f 	and.w	r2, r3, #15
 8007254:	6879      	ldr	r1, [r7, #4]
 8007256:	4613      	mov	r3, r2
 8007258:	009b      	lsls	r3, r3, #2
 800725a:	4413      	add	r3, r2
 800725c:	009b      	lsls	r3, r3, #2
 800725e:	440b      	add	r3, r1
 8007260:	3323      	adds	r3, #35	@ 0x23
 8007262:	2201      	movs	r2, #1
 8007264:	701a      	strb	r2, [r3, #0]

    /* Open EP OUT */
    (void)USBD_LL_OpenEP(pdev, CDCOutEpAdd, USBD_EP_TYPE_BULK,
 8007266:	4b55      	ldr	r3, [pc, #340]	@ (80073bc <USBD_CDC_Init+0x1e8>)
 8007268:	7819      	ldrb	r1, [r3, #0]
 800726a:	f44f 7300 	mov.w	r3, #512	@ 0x200
 800726e:	2202      	movs	r2, #2
 8007270:	6878      	ldr	r0, [r7, #4]
 8007272:	f002 fb7c 	bl	800996e <USBD_LL_OpenEP>
                         CDC_DATA_HS_OUT_PACKET_SIZE);

    pdev->ep_out[CDCOutEpAdd & 0xFU].is_used = 1U;
 8007276:	4b51      	ldr	r3, [pc, #324]	@ (80073bc <USBD_CDC_Init+0x1e8>)
 8007278:	781b      	ldrb	r3, [r3, #0]
 800727a:	f003 020f 	and.w	r2, r3, #15
 800727e:	6879      	ldr	r1, [r7, #4]
 8007280:	4613      	mov	r3, r2
 8007282:	009b      	lsls	r3, r3, #2
 8007284:	4413      	add	r3, r2
 8007286:	009b      	lsls	r3, r3, #2
 8007288:	440b      	add	r3, r1
 800728a:	f203 1363 	addw	r3, r3, #355	@ 0x163
 800728e:	2201      	movs	r2, #1
 8007290:	701a      	strb	r2, [r3, #0]

    /* Set bInterval for CDC CMD Endpoint */
    pdev->ep_in[CDCCmdEpAdd & 0xFU].bInterval = CDC_HS_BINTERVAL;
 8007292:	4b4b      	ldr	r3, [pc, #300]	@ (80073c0 <USBD_CDC_Init+0x1ec>)
 8007294:	781b      	ldrb	r3, [r3, #0]
 8007296:	f003 020f 	and.w	r2, r3, #15
 800729a:	6879      	ldr	r1, [r7, #4]
 800729c:	4613      	mov	r3, r2
 800729e:	009b      	lsls	r3, r3, #2
 80072a0:	4413      	add	r3, r2
 80072a2:	009b      	lsls	r3, r3, #2
 80072a4:	440b      	add	r3, r1
 80072a6:	331c      	adds	r3, #28
 80072a8:	2210      	movs	r2, #16
 80072aa:	601a      	str	r2, [r3, #0]
 80072ac:	e035      	b.n	800731a <USBD_CDC_Init+0x146>
  }
  else
  {
    /* Open EP IN */
    (void)USBD_LL_OpenEP(pdev, CDCInEpAdd, USBD_EP_TYPE_BULK,
 80072ae:	4b42      	ldr	r3, [pc, #264]	@ (80073b8 <USBD_CDC_Init+0x1e4>)
 80072b0:	7819      	ldrb	r1, [r3, #0]
 80072b2:	2340      	movs	r3, #64	@ 0x40
 80072b4:	2202      	movs	r2, #2
 80072b6:	6878      	ldr	r0, [r7, #4]
 80072b8:	f002 fb59 	bl	800996e <USBD_LL_OpenEP>
                         CDC_DATA_FS_IN_PACKET_SIZE);

    pdev->ep_in[CDCInEpAdd & 0xFU].is_used = 1U;
 80072bc:	4b3e      	ldr	r3, [pc, #248]	@ (80073b8 <USBD_CDC_Init+0x1e4>)
 80072be:	781b      	ldrb	r3, [r3, #0]
 80072c0:	f003 020f 	and.w	r2, r3, #15
 80072c4:	6879      	ldr	r1, [r7, #4]
 80072c6:	4613      	mov	r3, r2
 80072c8:	009b      	lsls	r3, r3, #2
 80072ca:	4413      	add	r3, r2
 80072cc:	009b      	lsls	r3, r3, #2
 80072ce:	440b      	add	r3, r1
 80072d0:	3323      	adds	r3, #35	@ 0x23
 80072d2:	2201      	movs	r2, #1
 80072d4:	701a      	strb	r2, [r3, #0]

    /* Open EP OUT */
    (void)USBD_LL_OpenEP(pdev, CDCOutEpAdd, USBD_EP_TYPE_BULK,
 80072d6:	4b39      	ldr	r3, [pc, #228]	@ (80073bc <USBD_CDC_Init+0x1e8>)
 80072d8:	7819      	ldrb	r1, [r3, #0]
 80072da:	2340      	movs	r3, #64	@ 0x40
 80072dc:	2202      	movs	r2, #2
 80072de:	6878      	ldr	r0, [r7, #4]
 80072e0:	f002 fb45 	bl	800996e <USBD_LL_OpenEP>
                         CDC_DATA_FS_OUT_PACKET_SIZE);

    pdev->ep_out[CDCOutEpAdd & 0xFU].is_used = 1U;
 80072e4:	4b35      	ldr	r3, [pc, #212]	@ (80073bc <USBD_CDC_Init+0x1e8>)
 80072e6:	781b      	ldrb	r3, [r3, #0]
 80072e8:	f003 020f 	and.w	r2, r3, #15
 80072ec:	6879      	ldr	r1, [r7, #4]
 80072ee:	4613      	mov	r3, r2
 80072f0:	009b      	lsls	r3, r3, #2
 80072f2:	4413      	add	r3, r2
 80072f4:	009b      	lsls	r3, r3, #2
 80072f6:	440b      	add	r3, r1
 80072f8:	f203 1363 	addw	r3, r3, #355	@ 0x163
 80072fc:	2201      	movs	r2, #1
 80072fe:	701a      	strb	r2, [r3, #0]

    /* Set bInterval for CMD Endpoint */
    pdev->ep_in[CDCCmdEpAdd & 0xFU].bInterval = CDC_FS_BINTERVAL;
 8007300:	4b2f      	ldr	r3, [pc, #188]	@ (80073c0 <USBD_CDC_Init+0x1ec>)
 8007302:	781b      	ldrb	r3, [r3, #0]
 8007304:	f003 020f 	and.w	r2, r3, #15
 8007308:	6879      	ldr	r1, [r7, #4]
 800730a:	4613      	mov	r3, r2
 800730c:	009b      	lsls	r3, r3, #2
 800730e:	4413      	add	r3, r2
 8007310:	009b      	lsls	r3, r3, #2
 8007312:	440b      	add	r3, r1
 8007314:	331c      	adds	r3, #28
 8007316:	2210      	movs	r2, #16
 8007318:	601a      	str	r2, [r3, #0]
  }

  /* Open Command IN EP */
  (void)USBD_LL_OpenEP(pdev, CDCCmdEpAdd, USBD_EP_TYPE_INTR, CDC_CMD_PACKET_SIZE);
 800731a:	4b29      	ldr	r3, [pc, #164]	@ (80073c0 <USBD_CDC_Init+0x1ec>)
 800731c:	7819      	ldrb	r1, [r3, #0]
 800731e:	2308      	movs	r3, #8
 8007320:	2203      	movs	r2, #3
 8007322:	6878      	ldr	r0, [r7, #4]
 8007324:	f002 fb23 	bl	800996e <USBD_LL_OpenEP>
  pdev->ep_in[CDCCmdEpAdd & 0xFU].is_used = 1U;
 8007328:	4b25      	ldr	r3, [pc, #148]	@ (80073c0 <USBD_CDC_Init+0x1ec>)
 800732a:	781b      	ldrb	r3, [r3, #0]
 800732c:	f003 020f 	and.w	r2, r3, #15
 8007330:	6879      	ldr	r1, [r7, #4]
 8007332:	4613      	mov	r3, r2
 8007334:	009b      	lsls	r3, r3, #2
 8007336:	4413      	add	r3, r2
 8007338:	009b      	lsls	r3, r3, #2
 800733a:	440b      	add	r3, r1
 800733c:	3323      	adds	r3, #35	@ 0x23
 800733e:	2201      	movs	r2, #1
 8007340:	701a      	strb	r2, [r3, #0]

  hcdc->RxBuffer = NULL;
 8007342:	68fb      	ldr	r3, [r7, #12]
 8007344:	2200      	movs	r2, #0
 8007346:	f8c3 2204 	str.w	r2, [r3, #516]	@ 0x204

  /* Init  physical Interface components */
  ((USBD_CDC_ItfTypeDef *)pdev->pUserData[pdev->classId])->Init();
 800734a:	687b      	ldr	r3, [r7, #4]
 800734c:	f8d3 32d4 	ldr.w	r3, [r3, #724]	@ 0x2d4
 8007350:	687a      	ldr	r2, [r7, #4]
 8007352:	33b0      	adds	r3, #176	@ 0xb0
 8007354:	009b      	lsls	r3, r3, #2
 8007356:	4413      	add	r3, r2
 8007358:	685b      	ldr	r3, [r3, #4]
 800735a:	681b      	ldr	r3, [r3, #0]
 800735c:	4798      	blx	r3

  /* Init Xfer states */
  hcdc->TxState = 0U;
 800735e:	68fb      	ldr	r3, [r7, #12]
 8007360:	2200      	movs	r2, #0
 8007362:	f8c3 2214 	str.w	r2, [r3, #532]	@ 0x214
  hcdc->RxState = 0U;
 8007366:	68fb      	ldr	r3, [r7, #12]
 8007368:	2200      	movs	r2, #0
 800736a:	f8c3 2218 	str.w	r2, [r3, #536]	@ 0x218

  if (hcdc->RxBuffer == NULL)
 800736e:	68fb      	ldr	r3, [r7, #12]
 8007370:	f8d3 3204 	ldr.w	r3, [r3, #516]	@ 0x204
 8007374:	2b00      	cmp	r3, #0
 8007376:	d101      	bne.n	800737c <USBD_CDC_Init+0x1a8>
  {
    return (uint8_t)USBD_EMEM;
 8007378:	2302      	movs	r3, #2
 800737a:	e018      	b.n	80073ae <USBD_CDC_Init+0x1da>
  }

  if (pdev->dev_speed == USBD_SPEED_HIGH)
 800737c:	687b      	ldr	r3, [r7, #4]
 800737e:	7c1b      	ldrb	r3, [r3, #16]
 8007380:	2b00      	cmp	r3, #0
 8007382:	d10a      	bne.n	800739a <USBD_CDC_Init+0x1c6>
  {
    /* Prepare Out endpoint to receive next packet */
    (void)USBD_LL_PrepareReceive(pdev, CDCOutEpAdd, hcdc->RxBuffer,
 8007384:	4b0d      	ldr	r3, [pc, #52]	@ (80073bc <USBD_CDC_Init+0x1e8>)
 8007386:	7819      	ldrb	r1, [r3, #0]
 8007388:	68fb      	ldr	r3, [r7, #12]
 800738a:	f8d3 2204 	ldr.w	r2, [r3, #516]	@ 0x204
 800738e:	f44f 7300 	mov.w	r3, #512	@ 0x200
 8007392:	6878      	ldr	r0, [r7, #4]
 8007394:	f002 fbda 	bl	8009b4c <USBD_LL_PrepareReceive>
 8007398:	e008      	b.n	80073ac <USBD_CDC_Init+0x1d8>
                                 CDC_DATA_HS_OUT_PACKET_SIZE);
  }
  else
  {
    /* Prepare Out endpoint to receive next packet */
    (void)USBD_LL_PrepareReceive(pdev, CDCOutEpAdd, hcdc->RxBuffer,
 800739a:	4b08      	ldr	r3, [pc, #32]	@ (80073bc <USBD_CDC_Init+0x1e8>)
 800739c:	7819      	ldrb	r1, [r3, #0]
 800739e:	68fb      	ldr	r3, [r7, #12]
 80073a0:	f8d3 2204 	ldr.w	r2, [r3, #516]	@ 0x204
 80073a4:	2340      	movs	r3, #64	@ 0x40
 80073a6:	6878      	ldr	r0, [r7, #4]
 80073a8:	f002 fbd0 	bl	8009b4c <USBD_LL_PrepareReceive>
                                 CDC_DATA_FS_OUT_PACKET_SIZE);
  }

  return (uint8_t)USBD_OK;
 80073ac:	2300      	movs	r3, #0
}
 80073ae:	4618      	mov	r0, r3
 80073b0:	3710      	adds	r7, #16
 80073b2:	46bd      	mov	sp, r7
 80073b4:	bd80      	pop	{r7, pc}
 80073b6:	bf00      	nop
 80073b8:	24000097 	.word	0x24000097
 80073bc:	24000098 	.word	0x24000098
 80073c0:	24000099 	.word	0x24000099

080073c4 <USBD_CDC_DeInit>:
  * @param  pdev: device instance
  * @param  cfgidx: Configuration index
  * @retval status
  */
static uint8_t USBD_CDC_DeInit(USBD_HandleTypeDef *pdev, uint8_t cfgidx)
{
 80073c4:	b580      	push	{r7, lr}
 80073c6:	b082      	sub	sp, #8
 80073c8:	af00      	add	r7, sp, #0
 80073ca:	6078      	str	r0, [r7, #4]
 80073cc:	460b      	mov	r3, r1
 80073ce:	70fb      	strb	r3, [r7, #3]
  CDCOutEpAdd = USBD_CoreGetEPAdd(pdev, USBD_EP_OUT, USBD_EP_TYPE_BULK, (uint8_t)pdev->classId);
  CDCCmdEpAdd = USBD_CoreGetEPAdd(pdev, USBD_EP_IN, USBD_EP_TYPE_INTR, (uint8_t)pdev->classId);
#endif /* USE_USBD_COMPOSITE */

  /* Close EP IN */
  (void)USBD_LL_CloseEP(pdev, CDCInEpAdd);
 80073d0:	4b3a      	ldr	r3, [pc, #232]	@ (80074bc <USBD_CDC_DeInit+0xf8>)
 80073d2:	781b      	ldrb	r3, [r3, #0]
 80073d4:	4619      	mov	r1, r3
 80073d6:	6878      	ldr	r0, [r7, #4]
 80073d8:	f002 faef 	bl	80099ba <USBD_LL_CloseEP>
  pdev->ep_in[CDCInEpAdd & 0xFU].is_used = 0U;
 80073dc:	4b37      	ldr	r3, [pc, #220]	@ (80074bc <USBD_CDC_DeInit+0xf8>)
 80073de:	781b      	ldrb	r3, [r3, #0]
 80073e0:	f003 020f 	and.w	r2, r3, #15
 80073e4:	6879      	ldr	r1, [r7, #4]
 80073e6:	4613      	mov	r3, r2
 80073e8:	009b      	lsls	r3, r3, #2
 80073ea:	4413      	add	r3, r2
 80073ec:	009b      	lsls	r3, r3, #2
 80073ee:	440b      	add	r3, r1
 80073f0:	3323      	adds	r3, #35	@ 0x23
 80073f2:	2200      	movs	r2, #0
 80073f4:	701a      	strb	r2, [r3, #0]

  /* Close EP OUT */
  (void)USBD_LL_CloseEP(pdev, CDCOutEpAdd);
 80073f6:	4b32      	ldr	r3, [pc, #200]	@ (80074c0 <USBD_CDC_DeInit+0xfc>)
 80073f8:	781b      	ldrb	r3, [r3, #0]
 80073fa:	4619      	mov	r1, r3
 80073fc:	6878      	ldr	r0, [r7, #4]
 80073fe:	f002 fadc 	bl	80099ba <USBD_LL_CloseEP>
  pdev->ep_out[CDCOutEpAdd & 0xFU].is_used = 0U;
 8007402:	4b2f      	ldr	r3, [pc, #188]	@ (80074c0 <USBD_CDC_DeInit+0xfc>)
 8007404:	781b      	ldrb	r3, [r3, #0]
 8007406:	f003 020f 	and.w	r2, r3, #15
 800740a:	6879      	ldr	r1, [r7, #4]
 800740c:	4613      	mov	r3, r2
 800740e:	009b      	lsls	r3, r3, #2
 8007410:	4413      	add	r3, r2
 8007412:	009b      	lsls	r3, r3, #2
 8007414:	440b      	add	r3, r1
 8007416:	f203 1363 	addw	r3, r3, #355	@ 0x163
 800741a:	2200      	movs	r2, #0
 800741c:	701a      	strb	r2, [r3, #0]

  /* Close Command IN EP */
  (void)USBD_LL_CloseEP(pdev, CDCCmdEpAdd);
 800741e:	4b29      	ldr	r3, [pc, #164]	@ (80074c4 <USBD_CDC_DeInit+0x100>)
 8007420:	781b      	ldrb	r3, [r3, #0]
 8007422:	4619      	mov	r1, r3
 8007424:	6878      	ldr	r0, [r7, #4]
 8007426:	f002 fac8 	bl	80099ba <USBD_LL_CloseEP>
  pdev->ep_in[CDCCmdEpAdd & 0xFU].is_used = 0U;
 800742a:	4b26      	ldr	r3, [pc, #152]	@ (80074c4 <USBD_CDC_DeInit+0x100>)
 800742c:	781b      	ldrb	r3, [r3, #0]
 800742e:	f003 020f 	and.w	r2, r3, #15
 8007432:	6879      	ldr	r1, [r7, #4]
 8007434:	4613      	mov	r3, r2
 8007436:	009b      	lsls	r3, r3, #2
 8007438:	4413      	add	r3, r2
 800743a:	009b      	lsls	r3, r3, #2
 800743c:	440b      	add	r3, r1
 800743e:	3323      	adds	r3, #35	@ 0x23
 8007440:	2200      	movs	r2, #0
 8007442:	701a      	strb	r2, [r3, #0]
  pdev->ep_in[CDCCmdEpAdd & 0xFU].bInterval = 0U;
 8007444:	4b1f      	ldr	r3, [pc, #124]	@ (80074c4 <USBD_CDC_DeInit+0x100>)
 8007446:	781b      	ldrb	r3, [r3, #0]
 8007448:	f003 020f 	and.w	r2, r3, #15
 800744c:	6879      	ldr	r1, [r7, #4]
 800744e:	4613      	mov	r3, r2
 8007450:	009b      	lsls	r3, r3, #2
 8007452:	4413      	add	r3, r2
 8007454:	009b      	lsls	r3, r3, #2
 8007456:	440b      	add	r3, r1
 8007458:	331c      	adds	r3, #28
 800745a:	2200      	movs	r2, #0
 800745c:	601a      	str	r2, [r3, #0]

  /* DeInit  physical Interface components */
  if (pdev->pClassDataCmsit[pdev->classId] != NULL)
 800745e:	687b      	ldr	r3, [r7, #4]
 8007460:	f8d3 22d4 	ldr.w	r2, [r3, #724]	@ 0x2d4
 8007464:	687b      	ldr	r3, [r7, #4]
 8007466:	32b0      	adds	r2, #176	@ 0xb0
 8007468:	f853 3022 	ldr.w	r3, [r3, r2, lsl #2]
 800746c:	2b00      	cmp	r3, #0
 800746e:	d01f      	beq.n	80074b0 <USBD_CDC_DeInit+0xec>
  {
    ((USBD_CDC_ItfTypeDef *)pdev->pUserData[pdev->classId])->DeInit();
 8007470:	687b      	ldr	r3, [r7, #4]
 8007472:	f8d3 32d4 	ldr.w	r3, [r3, #724]	@ 0x2d4
 8007476:	687a      	ldr	r2, [r7, #4]
 8007478:	33b0      	adds	r3, #176	@ 0xb0
 800747a:	009b      	lsls	r3, r3, #2
 800747c:	4413      	add	r3, r2
 800747e:	685b      	ldr	r3, [r3, #4]
 8007480:	685b      	ldr	r3, [r3, #4]
 8007482:	4798      	blx	r3
    (void)USBD_free(pdev->pClassDataCmsit[pdev->classId]);
 8007484:	687b      	ldr	r3, [r7, #4]
 8007486:	f8d3 22d4 	ldr.w	r2, [r3, #724]	@ 0x2d4
 800748a:	687b      	ldr	r3, [r7, #4]
 800748c:	32b0      	adds	r2, #176	@ 0xb0
 800748e:	f853 3022 	ldr.w	r3, [r3, r2, lsl #2]
 8007492:	4618      	mov	r0, r3
 8007494:	f002 fb9c 	bl	8009bd0 <USBD_static_free>
    pdev->pClassDataCmsit[pdev->classId] = NULL;
 8007498:	687b      	ldr	r3, [r7, #4]
 800749a:	f8d3 22d4 	ldr.w	r2, [r3, #724]	@ 0x2d4
 800749e:	687b      	ldr	r3, [r7, #4]
 80074a0:	32b0      	adds	r2, #176	@ 0xb0
 80074a2:	2100      	movs	r1, #0
 80074a4:	f843 1022 	str.w	r1, [r3, r2, lsl #2]
    pdev->pClassData = NULL;
 80074a8:	687b      	ldr	r3, [r7, #4]
 80074aa:	2200      	movs	r2, #0
 80074ac:	f8c3 22bc 	str.w	r2, [r3, #700]	@ 0x2bc
  }

  return (uint8_t)USBD_OK;
 80074b0:	2300      	movs	r3, #0
}
 80074b2:	4618      	mov	r0, r3
 80074b4:	3708      	adds	r7, #8
 80074b6:	46bd      	mov	sp, r7
 80074b8:	bd80      	pop	{r7, pc}
 80074ba:	bf00      	nop
 80074bc:	24000097 	.word	0x24000097
 80074c0:	24000098 	.word	0x24000098
 80074c4:	24000099 	.word	0x24000099

080074c8 <USBD_CDC_Setup>:
  * @param  req: usb requests
  * @retval status
  */
static uint8_t USBD_CDC_Setup(USBD_HandleTypeDef *pdev,
                              USBD_SetupReqTypedef *req)
{
 80074c8:	b580      	push	{r7, lr}
 80074ca:	b086      	sub	sp, #24
 80074cc:	af00      	add	r7, sp, #0
 80074ce:	6078      	str	r0, [r7, #4]
 80074d0:	6039      	str	r1, [r7, #0]
  USBD_CDC_HandleTypeDef *hcdc = (USBD_CDC_HandleTypeDef *)pdev->pClassDataCmsit[pdev->classId];
 80074d2:	687b      	ldr	r3, [r7, #4]
 80074d4:	f8d3 22d4 	ldr.w	r2, [r3, #724]	@ 0x2d4
 80074d8:	687b      	ldr	r3, [r7, #4]
 80074da:	32b0      	adds	r2, #176	@ 0xb0
 80074dc:	f853 3022 	ldr.w	r3, [r3, r2, lsl #2]
 80074e0:	613b      	str	r3, [r7, #16]
  uint16_t len;
  uint8_t ifalt = 0U;
 80074e2:	2300      	movs	r3, #0
 80074e4:	737b      	strb	r3, [r7, #13]
  uint16_t status_info = 0U;
 80074e6:	2300      	movs	r3, #0
 80074e8:	817b      	strh	r3, [r7, #10]
  USBD_StatusTypeDef ret = USBD_OK;
 80074ea:	2300      	movs	r3, #0
 80074ec:	75fb      	strb	r3, [r7, #23]

  if (hcdc == NULL)
 80074ee:	693b      	ldr	r3, [r7, #16]
 80074f0:	2b00      	cmp	r3, #0
 80074f2:	d101      	bne.n	80074f8 <USBD_CDC_Setup+0x30>
  {
    return (uint8_t)USBD_FAIL;
 80074f4:	2303      	movs	r3, #3
 80074f6:	e0bf      	b.n	8007678 <USBD_CDC_Setup+0x1b0>
  }

  switch (req->bmRequest & USB_REQ_TYPE_MASK)
 80074f8:	683b      	ldr	r3, [r7, #0]
 80074fa:	781b      	ldrb	r3, [r3, #0]
 80074fc:	f003 0360 	and.w	r3, r3, #96	@ 0x60
 8007500:	2b00      	cmp	r3, #0
 8007502:	d050      	beq.n	80075a6 <USBD_CDC_Setup+0xde>
 8007504:	2b20      	cmp	r3, #32
 8007506:	f040 80af 	bne.w	8007668 <USBD_CDC_Setup+0x1a0>
  {
    case USB_REQ_TYPE_CLASS:
      if (req->wLength != 0U)
 800750a:	683b      	ldr	r3, [r7, #0]
 800750c:	88db      	ldrh	r3, [r3, #6]
 800750e:	2b00      	cmp	r3, #0
 8007510:	d03a      	beq.n	8007588 <USBD_CDC_Setup+0xc0>
      {
        if ((req->bmRequest & 0x80U) != 0U)
 8007512:	683b      	ldr	r3, [r7, #0]
 8007514:	781b      	ldrb	r3, [r3, #0]
 8007516:	b25b      	sxtb	r3, r3
 8007518:	2b00      	cmp	r3, #0
 800751a:	da1b      	bge.n	8007554 <USBD_CDC_Setup+0x8c>
        {
          ((USBD_CDC_ItfTypeDef *)pdev->pUserData[pdev->classId])->Control(req->bRequest,
 800751c:	687b      	ldr	r3, [r7, #4]
 800751e:	f8d3 32d4 	ldr.w	r3, [r3, #724]	@ 0x2d4
 8007522:	687a      	ldr	r2, [r7, #4]
 8007524:	33b0      	adds	r3, #176	@ 0xb0
 8007526:	009b      	lsls	r3, r3, #2
 8007528:	4413      	add	r3, r2
 800752a:	685b      	ldr	r3, [r3, #4]
 800752c:	689b      	ldr	r3, [r3, #8]
 800752e:	683a      	ldr	r2, [r7, #0]
 8007530:	7850      	ldrb	r0, [r2, #1]
                                                                           (uint8_t *)hcdc->data,
 8007532:	6939      	ldr	r1, [r7, #16]
          ((USBD_CDC_ItfTypeDef *)pdev->pUserData[pdev->classId])->Control(req->bRequest,
 8007534:	683a      	ldr	r2, [r7, #0]
 8007536:	88d2      	ldrh	r2, [r2, #6]
 8007538:	4798      	blx	r3
                                                                           req->wLength);

          len = MIN(CDC_REQ_MAX_DATA_SIZE, req->wLength);
 800753a:	683b      	ldr	r3, [r7, #0]
 800753c:	88db      	ldrh	r3, [r3, #6]
 800753e:	2b07      	cmp	r3, #7
 8007540:	bf28      	it	cs
 8007542:	2307      	movcs	r3, #7
 8007544:	81fb      	strh	r3, [r7, #14]
          (void)USBD_CtlSendData(pdev, (uint8_t *)hcdc->data, len);
 8007546:	693b      	ldr	r3, [r7, #16]
 8007548:	89fa      	ldrh	r2, [r7, #14]
 800754a:	4619      	mov	r1, r3
 800754c:	6878      	ldr	r0, [r7, #4]
 800754e:	f001 fdd3 	bl	80090f8 <USBD_CtlSendData>
      else
      {
        ((USBD_CDC_ItfTypeDef *)pdev->pUserData[pdev->classId])->Control(req->bRequest,
                                                                         (uint8_t *)req, 0U);
      }
      break;
 8007552:	e090      	b.n	8007676 <USBD_CDC_Setup+0x1ae>
          hcdc->CmdOpCode = req->bRequest;
 8007554:	683b      	ldr	r3, [r7, #0]
 8007556:	785a      	ldrb	r2, [r3, #1]
 8007558:	693b      	ldr	r3, [r7, #16]
 800755a:	f883 2200 	strb.w	r2, [r3, #512]	@ 0x200
          hcdc->CmdLength = (uint8_t)MIN(req->wLength, USB_MAX_EP0_SIZE);
 800755e:	683b      	ldr	r3, [r7, #0]
 8007560:	88db      	ldrh	r3, [r3, #6]
 8007562:	2b3f      	cmp	r3, #63	@ 0x3f
 8007564:	d803      	bhi.n	800756e <USBD_CDC_Setup+0xa6>
 8007566:	683b      	ldr	r3, [r7, #0]
 8007568:	88db      	ldrh	r3, [r3, #6]
 800756a:	b2da      	uxtb	r2, r3
 800756c:	e000      	b.n	8007570 <USBD_CDC_Setup+0xa8>
 800756e:	2240      	movs	r2, #64	@ 0x40
 8007570:	693b      	ldr	r3, [r7, #16]
 8007572:	f883 2201 	strb.w	r2, [r3, #513]	@ 0x201
          (void)USBD_CtlPrepareRx(pdev, (uint8_t *)hcdc->data, hcdc->CmdLength);
 8007576:	6939      	ldr	r1, [r7, #16]
 8007578:	693b      	ldr	r3, [r7, #16]
 800757a:	f893 3201 	ldrb.w	r3, [r3, #513]	@ 0x201
 800757e:	461a      	mov	r2, r3
 8007580:	6878      	ldr	r0, [r7, #4]
 8007582:	f001 fde8 	bl	8009156 <USBD_CtlPrepareRx>
      break;
 8007586:	e076      	b.n	8007676 <USBD_CDC_Setup+0x1ae>
        ((USBD_CDC_ItfTypeDef *)pdev->pUserData[pdev->classId])->Control(req->bRequest,
 8007588:	687b      	ldr	r3, [r7, #4]
 800758a:	f8d3 32d4 	ldr.w	r3, [r3, #724]	@ 0x2d4
 800758e:	687a      	ldr	r2, [r7, #4]
 8007590:	33b0      	adds	r3, #176	@ 0xb0
 8007592:	009b      	lsls	r3, r3, #2
 8007594:	4413      	add	r3, r2
 8007596:	685b      	ldr	r3, [r3, #4]
 8007598:	689b      	ldr	r3, [r3, #8]
 800759a:	683a      	ldr	r2, [r7, #0]
 800759c:	7850      	ldrb	r0, [r2, #1]
 800759e:	2200      	movs	r2, #0
 80075a0:	6839      	ldr	r1, [r7, #0]
 80075a2:	4798      	blx	r3
      break;
 80075a4:	e067      	b.n	8007676 <USBD_CDC_Setup+0x1ae>

    case USB_REQ_TYPE_STANDARD:
      switch (req->bRequest)
 80075a6:	683b      	ldr	r3, [r7, #0]
 80075a8:	785b      	ldrb	r3, [r3, #1]
 80075aa:	2b0b      	cmp	r3, #11
 80075ac:	d851      	bhi.n	8007652 <USBD_CDC_Setup+0x18a>
 80075ae:	a201      	add	r2, pc, #4	@ (adr r2, 80075b4 <USBD_CDC_Setup+0xec>)
 80075b0:	f852 f023 	ldr.w	pc, [r2, r3, lsl #2]
 80075b4:	080075e5 	.word	0x080075e5
 80075b8:	08007661 	.word	0x08007661
 80075bc:	08007653 	.word	0x08007653
 80075c0:	08007653 	.word	0x08007653
 80075c4:	08007653 	.word	0x08007653
 80075c8:	08007653 	.word	0x08007653
 80075cc:	08007653 	.word	0x08007653
 80075d0:	08007653 	.word	0x08007653
 80075d4:	08007653 	.word	0x08007653
 80075d8:	08007653 	.word	0x08007653
 80075dc:	0800760f 	.word	0x0800760f
 80075e0:	08007639 	.word	0x08007639
      {
        case USB_REQ_GET_STATUS:
          if (pdev->dev_state == USBD_STATE_CONFIGURED)
 80075e4:	687b      	ldr	r3, [r7, #4]
 80075e6:	f893 329c 	ldrb.w	r3, [r3, #668]	@ 0x29c
 80075ea:	b2db      	uxtb	r3, r3
 80075ec:	2b03      	cmp	r3, #3
 80075ee:	d107      	bne.n	8007600 <USBD_CDC_Setup+0x138>
          {
            (void)USBD_CtlSendData(pdev, (uint8_t *)&status_info, 2U);
 80075f0:	f107 030a 	add.w	r3, r7, #10
 80075f4:	2202      	movs	r2, #2
 80075f6:	4619      	mov	r1, r3
 80075f8:	6878      	ldr	r0, [r7, #4]
 80075fa:	f001 fd7d 	bl	80090f8 <USBD_CtlSendData>
          else
          {
            USBD_CtlError(pdev, req);
            ret = USBD_FAIL;
          }
          break;
 80075fe:	e032      	b.n	8007666 <USBD_CDC_Setup+0x19e>
            USBD_CtlError(pdev, req);
 8007600:	6839      	ldr	r1, [r7, #0]
 8007602:	6878      	ldr	r0, [r7, #4]
 8007604:	f001 fcfb 	bl	8008ffe <USBD_CtlError>
            ret = USBD_FAIL;
 8007608:	2303      	movs	r3, #3
 800760a:	75fb      	strb	r3, [r7, #23]
          break;
 800760c:	e02b      	b.n	8007666 <USBD_CDC_Setup+0x19e>

        case USB_REQ_GET_INTERFACE:
          if (pdev->dev_state == USBD_STATE_CONFIGURED)
 800760e:	687b      	ldr	r3, [r7, #4]
 8007610:	f893 329c 	ldrb.w	r3, [r3, #668]	@ 0x29c
 8007614:	b2db      	uxtb	r3, r3
 8007616:	2b03      	cmp	r3, #3
 8007618:	d107      	bne.n	800762a <USBD_CDC_Setup+0x162>
          {
            (void)USBD_CtlSendData(pdev, &ifalt, 1U);
 800761a:	f107 030d 	add.w	r3, r7, #13
 800761e:	2201      	movs	r2, #1
 8007620:	4619      	mov	r1, r3
 8007622:	6878      	ldr	r0, [r7, #4]
 8007624:	f001 fd68 	bl	80090f8 <USBD_CtlSendData>
          else
          {
            USBD_CtlError(pdev, req);
            ret = USBD_FAIL;
          }
          break;
 8007628:	e01d      	b.n	8007666 <USBD_CDC_Setup+0x19e>
            USBD_CtlError(pdev, req);
 800762a:	6839      	ldr	r1, [r7, #0]
 800762c:	6878      	ldr	r0, [r7, #4]
 800762e:	f001 fce6 	bl	8008ffe <USBD_CtlError>
            ret = USBD_FAIL;
 8007632:	2303      	movs	r3, #3
 8007634:	75fb      	strb	r3, [r7, #23]
          break;
 8007636:	e016      	b.n	8007666 <USBD_CDC_Setup+0x19e>

        case USB_REQ_SET_INTERFACE:
          if (pdev->dev_state != USBD_STATE_CONFIGURED)
 8007638:	687b      	ldr	r3, [r7, #4]
 800763a:	f893 329c 	ldrb.w	r3, [r3, #668]	@ 0x29c
 800763e:	b2db      	uxtb	r3, r3
 8007640:	2b03      	cmp	r3, #3
 8007642:	d00f      	beq.n	8007664 <USBD_CDC_Setup+0x19c>
          {
            USBD_CtlError(pdev, req);
 8007644:	6839      	ldr	r1, [r7, #0]
 8007646:	6878      	ldr	r0, [r7, #4]
 8007648:	f001 fcd9 	bl	8008ffe <USBD_CtlError>
            ret = USBD_FAIL;
 800764c:	2303      	movs	r3, #3
 800764e:	75fb      	strb	r3, [r7, #23]
          }
          break;
 8007650:	e008      	b.n	8007664 <USBD_CDC_Setup+0x19c>

        case USB_REQ_CLEAR_FEATURE:
          break;

        default:
          USBD_CtlError(pdev, req);
 8007652:	6839      	ldr	r1, [r7, #0]
 8007654:	6878      	ldr	r0, [r7, #4]
 8007656:	f001 fcd2 	bl	8008ffe <USBD_CtlError>
          ret = USBD_FAIL;
 800765a:	2303      	movs	r3, #3
 800765c:	75fb      	strb	r3, [r7, #23]
          break;
 800765e:	e002      	b.n	8007666 <USBD_CDC_Setup+0x19e>
          break;
 8007660:	bf00      	nop
 8007662:	e008      	b.n	8007676 <USBD_CDC_Setup+0x1ae>
          break;
 8007664:	bf00      	nop
      }
      break;
 8007666:	e006      	b.n	8007676 <USBD_CDC_Setup+0x1ae>

    default:
      USBD_CtlError(pdev, req);
 8007668:	6839      	ldr	r1, [r7, #0]
 800766a:	6878      	ldr	r0, [r7, #4]
 800766c:	f001 fcc7 	bl	8008ffe <USBD_CtlError>
      ret = USBD_FAIL;
 8007670:	2303      	movs	r3, #3
 8007672:	75fb      	strb	r3, [r7, #23]
      break;
 8007674:	bf00      	nop
  }

  return (uint8_t)ret;
 8007676:	7dfb      	ldrb	r3, [r7, #23]
}
 8007678:	4618      	mov	r0, r3
 800767a:	3718      	adds	r7, #24
 800767c:	46bd      	mov	sp, r7
 800767e:	bd80      	pop	{r7, pc}

08007680 <USBD_CDC_DataIn>:
  * @param  pdev: device instance
  * @param  epnum: endpoint number
  * @retval status
  */
static uint8_t USBD_CDC_DataIn(USBD_HandleTypeDef *pdev, uint8_t epnum)
{
 8007680:	b580      	push	{r7, lr}
 8007682:	b084      	sub	sp, #16
 8007684:	af00      	add	r7, sp, #0
 8007686:	6078      	str	r0, [r7, #4]
 8007688:	460b      	mov	r3, r1
 800768a:	70fb      	strb	r3, [r7, #3]
  USBD_CDC_HandleTypeDef *hcdc;
  PCD_HandleTypeDef *hpcd = (PCD_HandleTypeDef *)pdev->pData;
 800768c:	687b      	ldr	r3, [r7, #4]
 800768e:	f8d3 32c8 	ldr.w	r3, [r3, #712]	@ 0x2c8
 8007692:	60fb      	str	r3, [r7, #12]

  if (pdev->pClassDataCmsit[pdev->classId] == NULL)
 8007694:	687b      	ldr	r3, [r7, #4]
 8007696:	f8d3 22d4 	ldr.w	r2, [r3, #724]	@ 0x2d4
 800769a:	687b      	ldr	r3, [r7, #4]
 800769c:	32b0      	adds	r2, #176	@ 0xb0
 800769e:	f853 3022 	ldr.w	r3, [r3, r2, lsl #2]
 80076a2:	2b00      	cmp	r3, #0
 80076a4:	d101      	bne.n	80076aa <USBD_CDC_DataIn+0x2a>
  {
    return (uint8_t)USBD_FAIL;
 80076a6:	2303      	movs	r3, #3
 80076a8:	e065      	b.n	8007776 <USBD_CDC_DataIn+0xf6>
  }

  hcdc = (USBD_CDC_HandleTypeDef *)pdev->pClassDataCmsit[pdev->classId];
 80076aa:	687b      	ldr	r3, [r7, #4]
 80076ac:	f8d3 22d4 	ldr.w	r2, [r3, #724]	@ 0x2d4
 80076b0:	687b      	ldr	r3, [r7, #4]
 80076b2:	32b0      	adds	r2, #176	@ 0xb0
 80076b4:	f853 3022 	ldr.w	r3, [r3, r2, lsl #2]
 80076b8:	60bb      	str	r3, [r7, #8]

  if ((pdev->ep_in[epnum & 0xFU].total_length > 0U) &&
 80076ba:	78fb      	ldrb	r3, [r7, #3]
 80076bc:	f003 020f 	and.w	r2, r3, #15
 80076c0:	6879      	ldr	r1, [r7, #4]
 80076c2:	4613      	mov	r3, r2
 80076c4:	009b      	lsls	r3, r3, #2
 80076c6:	4413      	add	r3, r2
 80076c8:	009b      	lsls	r3, r3, #2
 80076ca:	440b      	add	r3, r1
 80076cc:	3314      	adds	r3, #20
 80076ce:	681b      	ldr	r3, [r3, #0]
 80076d0:	2b00      	cmp	r3, #0
 80076d2:	d02f      	beq.n	8007734 <USBD_CDC_DataIn+0xb4>
      ((pdev->ep_in[epnum & 0xFU].total_length % hpcd->IN_ep[epnum & 0xFU].maxpacket) == 0U))
 80076d4:	78fb      	ldrb	r3, [r7, #3]
 80076d6:	f003 020f 	and.w	r2, r3, #15
 80076da:	6879      	ldr	r1, [r7, #4]
 80076dc:	4613      	mov	r3, r2
 80076de:	009b      	lsls	r3, r3, #2
 80076e0:	4413      	add	r3, r2
 80076e2:	009b      	lsls	r3, r3, #2
 80076e4:	440b      	add	r3, r1
 80076e6:	3314      	adds	r3, #20
 80076e8:	681a      	ldr	r2, [r3, #0]
 80076ea:	78fb      	ldrb	r3, [r7, #3]
 80076ec:	f003 010f 	and.w	r1, r3, #15
 80076f0:	68f8      	ldr	r0, [r7, #12]
 80076f2:	460b      	mov	r3, r1
 80076f4:	00db      	lsls	r3, r3, #3
 80076f6:	440b      	add	r3, r1
 80076f8:	009b      	lsls	r3, r3, #2
 80076fa:	4403      	add	r3, r0
 80076fc:	331c      	adds	r3, #28
 80076fe:	681b      	ldr	r3, [r3, #0]
 8007700:	fbb2 f1f3 	udiv	r1, r2, r3
 8007704:	fb01 f303 	mul.w	r3, r1, r3
 8007708:	1ad3      	subs	r3, r2, r3
  if ((pdev->ep_in[epnum & 0xFU].total_length > 0U) &&
 800770a:	2b00      	cmp	r3, #0
 800770c:	d112      	bne.n	8007734 <USBD_CDC_DataIn+0xb4>
  {
    /* Update the packet total length */
    pdev->ep_in[epnum & 0xFU].total_length = 0U;
 800770e:	78fb      	ldrb	r3, [r7, #3]
 8007710:	f003 020f 	and.w	r2, r3, #15
 8007714:	6879      	ldr	r1, [r7, #4]
 8007716:	4613      	mov	r3, r2
 8007718:	009b      	lsls	r3, r3, #2
 800771a:	4413      	add	r3, r2
 800771c:	009b      	lsls	r3, r3, #2
 800771e:	440b      	add	r3, r1
 8007720:	3314      	adds	r3, #20
 8007722:	2200      	movs	r2, #0
 8007724:	601a      	str	r2, [r3, #0]

    /* Send ZLP */
    (void)USBD_LL_Transmit(pdev, epnum, NULL, 0U);
 8007726:	78f9      	ldrb	r1, [r7, #3]
 8007728:	2300      	movs	r3, #0
 800772a:	2200      	movs	r2, #0
 800772c:	6878      	ldr	r0, [r7, #4]
 800772e:	f002 f9ec 	bl	8009b0a <USBD_LL_Transmit>
 8007732:	e01f      	b.n	8007774 <USBD_CDC_DataIn+0xf4>
  }
  else
  {
    hcdc->TxState = 0U;
 8007734:	68bb      	ldr	r3, [r7, #8]
 8007736:	2200      	movs	r2, #0
 8007738:	f8c3 2214 	str.w	r2, [r3, #532]	@ 0x214

    if (((USBD_CDC_ItfTypeDef *)pdev->pUserData[pdev->classId])->TransmitCplt != NULL)
 800773c:	687b      	ldr	r3, [r7, #4]
 800773e:	f8d3 32d4 	ldr.w	r3, [r3, #724]	@ 0x2d4
 8007742:	687a      	ldr	r2, [r7, #4]
 8007744:	33b0      	adds	r3, #176	@ 0xb0
 8007746:	009b      	lsls	r3, r3, #2
 8007748:	4413      	add	r3, r2
 800774a:	685b      	ldr	r3, [r3, #4]
 800774c:	691b      	ldr	r3, [r3, #16]
 800774e:	2b00      	cmp	r3, #0
 8007750:	d010      	beq.n	8007774 <USBD_CDC_DataIn+0xf4>
    {
      ((USBD_CDC_ItfTypeDef *)pdev->pUserData[pdev->classId])->TransmitCplt(hcdc->TxBuffer, &hcdc->TxLength, epnum);
 8007752:	687b      	ldr	r3, [r7, #4]
 8007754:	f8d3 32d4 	ldr.w	r3, [r3, #724]	@ 0x2d4
 8007758:	687a      	ldr	r2, [r7, #4]
 800775a:	33b0      	adds	r3, #176	@ 0xb0
 800775c:	009b      	lsls	r3, r3, #2
 800775e:	4413      	add	r3, r2
 8007760:	685b      	ldr	r3, [r3, #4]
 8007762:	691b      	ldr	r3, [r3, #16]
 8007764:	68ba      	ldr	r2, [r7, #8]
 8007766:	f8d2 0208 	ldr.w	r0, [r2, #520]	@ 0x208
 800776a:	68ba      	ldr	r2, [r7, #8]
 800776c:	f502 7104 	add.w	r1, r2, #528	@ 0x210
 8007770:	78fa      	ldrb	r2, [r7, #3]
 8007772:	4798      	blx	r3
    }
  }

  return (uint8_t)USBD_OK;
 8007774:	2300      	movs	r3, #0
}
 8007776:	4618      	mov	r0, r3
 8007778:	3710      	adds	r7, #16
 800777a:	46bd      	mov	sp, r7
 800777c:	bd80      	pop	{r7, pc}

0800777e <USBD_CDC_DataOut>:
  * @param  pdev: device instance
  * @param  epnum: endpoint number
  * @retval status
  */
static uint8_t USBD_CDC_DataOut(USBD_HandleTypeDef *pdev, uint8_t epnum)
{
 800777e:	b580      	push	{r7, lr}
 8007780:	b084      	sub	sp, #16
 8007782:	af00      	add	r7, sp, #0
 8007784:	6078      	str	r0, [r7, #4]
 8007786:	460b      	mov	r3, r1
 8007788:	70fb      	strb	r3, [r7, #3]
  USBD_CDC_HandleTypeDef *hcdc = (USBD_CDC_HandleTypeDef *)pdev->pClassDataCmsit[pdev->classId];
 800778a:	687b      	ldr	r3, [r7, #4]
 800778c:	f8d3 22d4 	ldr.w	r2, [r3, #724]	@ 0x2d4
 8007790:	687b      	ldr	r3, [r7, #4]
 8007792:	32b0      	adds	r2, #176	@ 0xb0
 8007794:	f853 3022 	ldr.w	r3, [r3, r2, lsl #2]
 8007798:	60fb      	str	r3, [r7, #12]

  if (pdev->pClassDataCmsit[pdev->classId] == NULL)
 800779a:	687b      	ldr	r3, [r7, #4]
 800779c:	f8d3 22d4 	ldr.w	r2, [r3, #724]	@ 0x2d4
 80077a0:	687b      	ldr	r3, [r7, #4]
 80077a2:	32b0      	adds	r2, #176	@ 0xb0
 80077a4:	f853 3022 	ldr.w	r3, [r3, r2, lsl #2]
 80077a8:	2b00      	cmp	r3, #0
 80077aa:	d101      	bne.n	80077b0 <USBD_CDC_DataOut+0x32>
  {
    return (uint8_t)USBD_FAIL;
 80077ac:	2303      	movs	r3, #3
 80077ae:	e01a      	b.n	80077e6 <USBD_CDC_DataOut+0x68>
  }

  /* Get the received data length */
  hcdc->RxLength = USBD_LL_GetRxDataSize(pdev, epnum);
 80077b0:	78fb      	ldrb	r3, [r7, #3]
 80077b2:	4619      	mov	r1, r3
 80077b4:	6878      	ldr	r0, [r7, #4]
 80077b6:	f002 f9ea 	bl	8009b8e <USBD_LL_GetRxDataSize>
 80077ba:	4602      	mov	r2, r0
 80077bc:	68fb      	ldr	r3, [r7, #12]
 80077be:	f8c3 220c 	str.w	r2, [r3, #524]	@ 0x20c

  /* USB data will be immediately processed, this allow next USB traffic being
  NAKed till the end of the application Xfer */

  ((USBD_CDC_ItfTypeDef *)pdev->pUserData[pdev->classId])->Receive(hcdc->RxBuffer, &hcdc->RxLength);
 80077c2:	687b      	ldr	r3, [r7, #4]
 80077c4:	f8d3 32d4 	ldr.w	r3, [r3, #724]	@ 0x2d4
 80077c8:	687a      	ldr	r2, [r7, #4]
 80077ca:	33b0      	adds	r3, #176	@ 0xb0
 80077cc:	009b      	lsls	r3, r3, #2
 80077ce:	4413      	add	r3, r2
 80077d0:	685b      	ldr	r3, [r3, #4]
 80077d2:	68db      	ldr	r3, [r3, #12]
 80077d4:	68fa      	ldr	r2, [r7, #12]
 80077d6:	f8d2 0204 	ldr.w	r0, [r2, #516]	@ 0x204
 80077da:	68fa      	ldr	r2, [r7, #12]
 80077dc:	f502 7203 	add.w	r2, r2, #524	@ 0x20c
 80077e0:	4611      	mov	r1, r2
 80077e2:	4798      	blx	r3

  return (uint8_t)USBD_OK;
 80077e4:	2300      	movs	r3, #0
}
 80077e6:	4618      	mov	r0, r3
 80077e8:	3710      	adds	r7, #16
 80077ea:	46bd      	mov	sp, r7
 80077ec:	bd80      	pop	{r7, pc}

080077ee <USBD_CDC_EP0_RxReady>:
  *         Handle EP0 Rx Ready event
  * @param  pdev: device instance
  * @retval status
  */
static uint8_t USBD_CDC_EP0_RxReady(USBD_HandleTypeDef *pdev)
{
 80077ee:	b580      	push	{r7, lr}
 80077f0:	b084      	sub	sp, #16
 80077f2:	af00      	add	r7, sp, #0
 80077f4:	6078      	str	r0, [r7, #4]
  USBD_CDC_HandleTypeDef *hcdc = (USBD_CDC_HandleTypeDef *)pdev->pClassDataCmsit[pdev->classId];
 80077f6:	687b      	ldr	r3, [r7, #4]
 80077f8:	f8d3 22d4 	ldr.w	r2, [r3, #724]	@ 0x2d4
 80077fc:	687b      	ldr	r3, [r7, #4]
 80077fe:	32b0      	adds	r2, #176	@ 0xb0
 8007800:	f853 3022 	ldr.w	r3, [r3, r2, lsl #2]
 8007804:	60fb      	str	r3, [r7, #12]

  if (hcdc == NULL)
 8007806:	68fb      	ldr	r3, [r7, #12]
 8007808:	2b00      	cmp	r3, #0
 800780a:	d101      	bne.n	8007810 <USBD_CDC_EP0_RxReady+0x22>
  {
    return (uint8_t)USBD_FAIL;
 800780c:	2303      	movs	r3, #3
 800780e:	e024      	b.n	800785a <USBD_CDC_EP0_RxReady+0x6c>
  }

  if ((pdev->pUserData[pdev->classId] != NULL) && (hcdc->CmdOpCode != 0xFFU))
 8007810:	687b      	ldr	r3, [r7, #4]
 8007812:	f8d3 32d4 	ldr.w	r3, [r3, #724]	@ 0x2d4
 8007816:	687a      	ldr	r2, [r7, #4]
 8007818:	33b0      	adds	r3, #176	@ 0xb0
 800781a:	009b      	lsls	r3, r3, #2
 800781c:	4413      	add	r3, r2
 800781e:	685b      	ldr	r3, [r3, #4]
 8007820:	2b00      	cmp	r3, #0
 8007822:	d019      	beq.n	8007858 <USBD_CDC_EP0_RxReady+0x6a>
 8007824:	68fb      	ldr	r3, [r7, #12]
 8007826:	f893 3200 	ldrb.w	r3, [r3, #512]	@ 0x200
 800782a:	2bff      	cmp	r3, #255	@ 0xff
 800782c:	d014      	beq.n	8007858 <USBD_CDC_EP0_RxReady+0x6a>
  {
    ((USBD_CDC_ItfTypeDef *)pdev->pUserData[pdev->classId])->Control(hcdc->CmdOpCode,
 800782e:	687b      	ldr	r3, [r7, #4]
 8007830:	f8d3 32d4 	ldr.w	r3, [r3, #724]	@ 0x2d4
 8007834:	687a      	ldr	r2, [r7, #4]
 8007836:	33b0      	adds	r3, #176	@ 0xb0
 8007838:	009b      	lsls	r3, r3, #2
 800783a:	4413      	add	r3, r2
 800783c:	685b      	ldr	r3, [r3, #4]
 800783e:	689b      	ldr	r3, [r3, #8]
 8007840:	68fa      	ldr	r2, [r7, #12]
 8007842:	f892 0200 	ldrb.w	r0, [r2, #512]	@ 0x200
                                                                     (uint8_t *)hcdc->data,
 8007846:	68f9      	ldr	r1, [r7, #12]
                                                                     (uint16_t)hcdc->CmdLength);
 8007848:	68fa      	ldr	r2, [r7, #12]
 800784a:	f892 2201 	ldrb.w	r2, [r2, #513]	@ 0x201
    ((USBD_CDC_ItfTypeDef *)pdev->pUserData[pdev->classId])->Control(hcdc->CmdOpCode,
 800784e:	4798      	blx	r3
    hcdc->CmdOpCode = 0xFFU;
 8007850:	68fb      	ldr	r3, [r7, #12]
 8007852:	22ff      	movs	r2, #255	@ 0xff
 8007854:	f883 2200 	strb.w	r2, [r3, #512]	@ 0x200
  }

  return (uint8_t)USBD_OK;
 8007858:	2300      	movs	r3, #0
}
 800785a:	4618      	mov	r0, r3
 800785c:	3710      	adds	r7, #16
 800785e:	46bd      	mov	sp, r7
 8007860:	bd80      	pop	{r7, pc}
	...

08007864 <USBD_CDC_GetFSCfgDesc>:
  *         Return configuration descriptor
  * @param  length : pointer data length
  * @retval pointer to descriptor buffer
  */
static uint8_t *USBD_CDC_GetFSCfgDesc(uint16_t *length)
{
 8007864:	b580      	push	{r7, lr}
 8007866:	b086      	sub	sp, #24
 8007868:	af00      	add	r7, sp, #0
 800786a:	6078      	str	r0, [r7, #4]
  USBD_EpDescTypeDef *pEpCmdDesc = USBD_GetEpDesc(USBD_CDC_CfgDesc, CDC_CMD_EP);
 800786c:	2182      	movs	r1, #130	@ 0x82
 800786e:	4818      	ldr	r0, [pc, #96]	@ (80078d0 <USBD_CDC_GetFSCfgDesc+0x6c>)
 8007870:	f000 fd62 	bl	8008338 <USBD_GetEpDesc>
 8007874:	6178      	str	r0, [r7, #20]
  USBD_EpDescTypeDef *pEpOutDesc = USBD_GetEpDesc(USBD_CDC_CfgDesc, CDC_OUT_EP);
 8007876:	2101      	movs	r1, #1
 8007878:	4815      	ldr	r0, [pc, #84]	@ (80078d0 <USBD_CDC_GetFSCfgDesc+0x6c>)
 800787a:	f000 fd5d 	bl	8008338 <USBD_GetEpDesc>
 800787e:	6138      	str	r0, [r7, #16]
  USBD_EpDescTypeDef *pEpInDesc = USBD_GetEpDesc(USBD_CDC_CfgDesc, CDC_IN_EP);
 8007880:	2181      	movs	r1, #129	@ 0x81
 8007882:	4813      	ldr	r0, [pc, #76]	@ (80078d0 <USBD_CDC_GetFSCfgDesc+0x6c>)
 8007884:	f000 fd58 	bl	8008338 <USBD_GetEpDesc>
 8007888:	60f8      	str	r0, [r7, #12]

  if (pEpCmdDesc != NULL)
 800788a:	697b      	ldr	r3, [r7, #20]
 800788c:	2b00      	cmp	r3, #0
 800788e:	d002      	beq.n	8007896 <USBD_CDC_GetFSCfgDesc+0x32>
  {
    pEpCmdDesc->bInterval = CDC_FS_BINTERVAL;
 8007890:	697b      	ldr	r3, [r7, #20]
 8007892:	2210      	movs	r2, #16
 8007894:	719a      	strb	r2, [r3, #6]
  }

  if (pEpOutDesc != NULL)
 8007896:	693b      	ldr	r3, [r7, #16]
 8007898:	2b00      	cmp	r3, #0
 800789a:	d006      	beq.n	80078aa <USBD_CDC_GetFSCfgDesc+0x46>
  {
    pEpOutDesc->wMaxPacketSize = CDC_DATA_FS_MAX_PACKET_SIZE;
 800789c:	693b      	ldr	r3, [r7, #16]
 800789e:	2200      	movs	r2, #0
 80078a0:	f042 0240 	orr.w	r2, r2, #64	@ 0x40
 80078a4:	711a      	strb	r2, [r3, #4]
 80078a6:	2200      	movs	r2, #0
 80078a8:	715a      	strb	r2, [r3, #5]
  }

  if (pEpInDesc != NULL)
 80078aa:	68fb      	ldr	r3, [r7, #12]
 80078ac:	2b00      	cmp	r3, #0
 80078ae:	d006      	beq.n	80078be <USBD_CDC_GetFSCfgDesc+0x5a>
  {
    pEpInDesc->wMaxPacketSize = CDC_DATA_FS_MAX_PACKET_SIZE;
 80078b0:	68fb      	ldr	r3, [r7, #12]
 80078b2:	2200      	movs	r2, #0
 80078b4:	f042 0240 	orr.w	r2, r2, #64	@ 0x40
 80078b8:	711a      	strb	r2, [r3, #4]
 80078ba:	2200      	movs	r2, #0
 80078bc:	715a      	strb	r2, [r3, #5]
  }

  *length = (uint16_t)sizeof(USBD_CDC_CfgDesc);
 80078be:	687b      	ldr	r3, [r7, #4]
 80078c0:	2243      	movs	r2, #67	@ 0x43
 80078c2:	801a      	strh	r2, [r3, #0]
  return USBD_CDC_CfgDesc;
 80078c4:	4b02      	ldr	r3, [pc, #8]	@ (80078d0 <USBD_CDC_GetFSCfgDesc+0x6c>)
}
 80078c6:	4618      	mov	r0, r3
 80078c8:	3718      	adds	r7, #24
 80078ca:	46bd      	mov	sp, r7
 80078cc:	bd80      	pop	{r7, pc}
 80078ce:	bf00      	nop
 80078d0:	24000054 	.word	0x24000054

080078d4 <USBD_CDC_GetHSCfgDesc>:
  *         Return configuration descriptor
  * @param  length : pointer data length
  * @retval pointer to descriptor buffer
  */
static uint8_t *USBD_CDC_GetHSCfgDesc(uint16_t *length)
{
 80078d4:	b580      	push	{r7, lr}
 80078d6:	b086      	sub	sp, #24
 80078d8:	af00      	add	r7, sp, #0
 80078da:	6078      	str	r0, [r7, #4]
  USBD_EpDescTypeDef *pEpCmdDesc = USBD_GetEpDesc(USBD_CDC_CfgDesc, CDC_CMD_EP);
 80078dc:	2182      	movs	r1, #130	@ 0x82
 80078de:	4818      	ldr	r0, [pc, #96]	@ (8007940 <USBD_CDC_GetHSCfgDesc+0x6c>)
 80078e0:	f000 fd2a 	bl	8008338 <USBD_GetEpDesc>
 80078e4:	6178      	str	r0, [r7, #20]
  USBD_EpDescTypeDef *pEpOutDesc = USBD_GetEpDesc(USBD_CDC_CfgDesc, CDC_OUT_EP);
 80078e6:	2101      	movs	r1, #1
 80078e8:	4815      	ldr	r0, [pc, #84]	@ (8007940 <USBD_CDC_GetHSCfgDesc+0x6c>)
 80078ea:	f000 fd25 	bl	8008338 <USBD_GetEpDesc>
 80078ee:	6138      	str	r0, [r7, #16]
  USBD_EpDescTypeDef *pEpInDesc = USBD_GetEpDesc(USBD_CDC_CfgDesc, CDC_IN_EP);
 80078f0:	2181      	movs	r1, #129	@ 0x81
 80078f2:	4813      	ldr	r0, [pc, #76]	@ (8007940 <USBD_CDC_GetHSCfgDesc+0x6c>)
 80078f4:	f000 fd20 	bl	8008338 <USBD_GetEpDesc>
 80078f8:	60f8      	str	r0, [r7, #12]

  if (pEpCmdDesc != NULL)
 80078fa:	697b      	ldr	r3, [r7, #20]
 80078fc:	2b00      	cmp	r3, #0
 80078fe:	d002      	beq.n	8007906 <USBD_CDC_GetHSCfgDesc+0x32>
  {
    pEpCmdDesc->bInterval = CDC_HS_BINTERVAL;
 8007900:	697b      	ldr	r3, [r7, #20]
 8007902:	2210      	movs	r2, #16
 8007904:	719a      	strb	r2, [r3, #6]
  }

  if (pEpOutDesc != NULL)
 8007906:	693b      	ldr	r3, [r7, #16]
 8007908:	2b00      	cmp	r3, #0
 800790a:	d006      	beq.n	800791a <USBD_CDC_GetHSCfgDesc+0x46>
  {
    pEpOutDesc->wMaxPacketSize = CDC_DATA_HS_MAX_PACKET_SIZE;
 800790c:	693b      	ldr	r3, [r7, #16]
 800790e:	2200      	movs	r2, #0
 8007910:	711a      	strb	r2, [r3, #4]
 8007912:	2200      	movs	r2, #0
 8007914:	f042 0202 	orr.w	r2, r2, #2
 8007918:	715a      	strb	r2, [r3, #5]
  }

  if (pEpInDesc != NULL)
 800791a:	68fb      	ldr	r3, [r7, #12]
 800791c:	2b00      	cmp	r3, #0
 800791e:	d006      	beq.n	800792e <USBD_CDC_GetHSCfgDesc+0x5a>
  {
    pEpInDesc->wMaxPacketSize = CDC_DATA_HS_MAX_PACKET_SIZE;
 8007920:	68fb      	ldr	r3, [r7, #12]
 8007922:	2200      	movs	r2, #0
 8007924:	711a      	strb	r2, [r3, #4]
 8007926:	2200      	movs	r2, #0
 8007928:	f042 0202 	orr.w	r2, r2, #2
 800792c:	715a      	strb	r2, [r3, #5]
  }

  *length = (uint16_t)sizeof(USBD_CDC_CfgDesc);
 800792e:	687b      	ldr	r3, [r7, #4]
 8007930:	2243      	movs	r2, #67	@ 0x43
 8007932:	801a      	strh	r2, [r3, #0]
  return USBD_CDC_CfgDesc;
 8007934:	4b02      	ldr	r3, [pc, #8]	@ (8007940 <USBD_CDC_GetHSCfgDesc+0x6c>)
}
 8007936:	4618      	mov	r0, r3
 8007938:	3718      	adds	r7, #24
 800793a:	46bd      	mov	sp, r7
 800793c:	bd80      	pop	{r7, pc}
 800793e:	bf00      	nop
 8007940:	24000054 	.word	0x24000054

08007944 <USBD_CDC_GetOtherSpeedCfgDesc>:
  *         Return configuration descriptor
  * @param  length : pointer data length
  * @retval pointer to descriptor buffer
  */
static uint8_t *USBD_CDC_GetOtherSpeedCfgDesc(uint16_t *length)
{
 8007944:	b580      	push	{r7, lr}
 8007946:	b086      	sub	sp, #24
 8007948:	af00      	add	r7, sp, #0
 800794a:	6078      	str	r0, [r7, #4]
  USBD_EpDescTypeDef *pEpCmdDesc = USBD_GetEpDesc(USBD_CDC_CfgDesc, CDC_CMD_EP);
 800794c:	2182      	movs	r1, #130	@ 0x82
 800794e:	4818      	ldr	r0, [pc, #96]	@ (80079b0 <USBD_CDC_GetOtherSpeedCfgDesc+0x6c>)
 8007950:	f000 fcf2 	bl	8008338 <USBD_GetEpDesc>
 8007954:	6178      	str	r0, [r7, #20]
  USBD_EpDescTypeDef *pEpOutDesc = USBD_GetEpDesc(USBD_CDC_CfgDesc, CDC_OUT_EP);
 8007956:	2101      	movs	r1, #1
 8007958:	4815      	ldr	r0, [pc, #84]	@ (80079b0 <USBD_CDC_GetOtherSpeedCfgDesc+0x6c>)
 800795a:	f000 fced 	bl	8008338 <USBD_GetEpDesc>
 800795e:	6138      	str	r0, [r7, #16]
  USBD_EpDescTypeDef *pEpInDesc = USBD_GetEpDesc(USBD_CDC_CfgDesc, CDC_IN_EP);
 8007960:	2181      	movs	r1, #129	@ 0x81
 8007962:	4813      	ldr	r0, [pc, #76]	@ (80079b0 <USBD_CDC_GetOtherSpeedCfgDesc+0x6c>)
 8007964:	f000 fce8 	bl	8008338 <USBD_GetEpDesc>
 8007968:	60f8      	str	r0, [r7, #12]

  if (pEpCmdDesc != NULL)
 800796a:	697b      	ldr	r3, [r7, #20]
 800796c:	2b00      	cmp	r3, #0
 800796e:	d002      	beq.n	8007976 <USBD_CDC_GetOtherSpeedCfgDesc+0x32>
  {
    pEpCmdDesc->bInterval = CDC_FS_BINTERVAL;
 8007970:	697b      	ldr	r3, [r7, #20]
 8007972:	2210      	movs	r2, #16
 8007974:	719a      	strb	r2, [r3, #6]
  }

  if (pEpOutDesc != NULL)
 8007976:	693b      	ldr	r3, [r7, #16]
 8007978:	2b00      	cmp	r3, #0
 800797a:	d006      	beq.n	800798a <USBD_CDC_GetOtherSpeedCfgDesc+0x46>
  {
    pEpOutDesc->wMaxPacketSize = CDC_DATA_FS_MAX_PACKET_SIZE;
 800797c:	693b      	ldr	r3, [r7, #16]
 800797e:	2200      	movs	r2, #0
 8007980:	f042 0240 	orr.w	r2, r2, #64	@ 0x40
 8007984:	711a      	strb	r2, [r3, #4]
 8007986:	2200      	movs	r2, #0
 8007988:	715a      	strb	r2, [r3, #5]
  }

  if (pEpInDesc != NULL)
 800798a:	68fb      	ldr	r3, [r7, #12]
 800798c:	2b00      	cmp	r3, #0
 800798e:	d006      	beq.n	800799e <USBD_CDC_GetOtherSpeedCfgDesc+0x5a>
  {
    pEpInDesc->wMaxPacketSize = CDC_DATA_FS_MAX_PACKET_SIZE;
 8007990:	68fb      	ldr	r3, [r7, #12]
 8007992:	2200      	movs	r2, #0
 8007994:	f042 0240 	orr.w	r2, r2, #64	@ 0x40
 8007998:	711a      	strb	r2, [r3, #4]
 800799a:	2200      	movs	r2, #0
 800799c:	715a      	strb	r2, [r3, #5]
  }

  *length = (uint16_t)sizeof(USBD_CDC_CfgDesc);
 800799e:	687b      	ldr	r3, [r7, #4]
 80079a0:	2243      	movs	r2, #67	@ 0x43
 80079a2:	801a      	strh	r2, [r3, #0]
  return USBD_CDC_CfgDesc;
 80079a4:	4b02      	ldr	r3, [pc, #8]	@ (80079b0 <USBD_CDC_GetOtherSpeedCfgDesc+0x6c>)
}
 80079a6:	4618      	mov	r0, r3
 80079a8:	3718      	adds	r7, #24
 80079aa:	46bd      	mov	sp, r7
 80079ac:	bd80      	pop	{r7, pc}
 80079ae:	bf00      	nop
 80079b0:	24000054 	.word	0x24000054

080079b4 <USBD_CDC_GetDeviceQualifierDescriptor>:
  *         return Device Qualifier descriptor
  * @param  length : pointer data length
  * @retval pointer to descriptor buffer
  */
uint8_t *USBD_CDC_GetDeviceQualifierDescriptor(uint16_t *length)
{
 80079b4:	b480      	push	{r7}
 80079b6:	b083      	sub	sp, #12
 80079b8:	af00      	add	r7, sp, #0
 80079ba:	6078      	str	r0, [r7, #4]
  *length = (uint16_t)sizeof(USBD_CDC_DeviceQualifierDesc);
 80079bc:	687b      	ldr	r3, [r7, #4]
 80079be:	220a      	movs	r2, #10
 80079c0:	801a      	strh	r2, [r3, #0]

  return USBD_CDC_DeviceQualifierDesc;
 80079c2:	4b03      	ldr	r3, [pc, #12]	@ (80079d0 <USBD_CDC_GetDeviceQualifierDescriptor+0x1c>)
}
 80079c4:	4618      	mov	r0, r3
 80079c6:	370c      	adds	r7, #12
 80079c8:	46bd      	mov	sp, r7
 80079ca:	f85d 7b04 	ldr.w	r7, [sp], #4
 80079ce:	4770      	bx	lr
 80079d0:	24000010 	.word	0x24000010

080079d4 <USBD_CDC_RegisterInterface>:
  * @param  fops: CD  Interface callback
  * @retval status
  */
uint8_t USBD_CDC_RegisterInterface(USBD_HandleTypeDef *pdev,
                                   USBD_CDC_ItfTypeDef *fops)
{
 80079d4:	b480      	push	{r7}
 80079d6:	b083      	sub	sp, #12
 80079d8:	af00      	add	r7, sp, #0
 80079da:	6078      	str	r0, [r7, #4]
 80079dc:	6039      	str	r1, [r7, #0]
  if (fops == NULL)
 80079de:	683b      	ldr	r3, [r7, #0]
 80079e0:	2b00      	cmp	r3, #0
 80079e2:	d101      	bne.n	80079e8 <USBD_CDC_RegisterInterface+0x14>
  {
    return (uint8_t)USBD_FAIL;
 80079e4:	2303      	movs	r3, #3
 80079e6:	e009      	b.n	80079fc <USBD_CDC_RegisterInterface+0x28>
  }

  pdev->pUserData[pdev->classId] = fops;
 80079e8:	687b      	ldr	r3, [r7, #4]
 80079ea:	f8d3 32d4 	ldr.w	r3, [r3, #724]	@ 0x2d4
 80079ee:	687a      	ldr	r2, [r7, #4]
 80079f0:	33b0      	adds	r3, #176	@ 0xb0
 80079f2:	009b      	lsls	r3, r3, #2
 80079f4:	4413      	add	r3, r2
 80079f6:	683a      	ldr	r2, [r7, #0]
 80079f8:	605a      	str	r2, [r3, #4]

  return (uint8_t)USBD_OK;
 80079fa:	2300      	movs	r3, #0
}
 80079fc:	4618      	mov	r0, r3
 80079fe:	370c      	adds	r7, #12
 8007a00:	46bd      	mov	sp, r7
 8007a02:	f85d 7b04 	ldr.w	r7, [sp], #4
 8007a06:	4770      	bx	lr

08007a08 <USBD_CDC_SetTxBuffer>:
{
  USBD_CDC_HandleTypeDef *hcdc = (USBD_CDC_HandleTypeDef *)pdev->pClassDataCmsit[ClassId];
#else
uint8_t USBD_CDC_SetTxBuffer(USBD_HandleTypeDef *pdev,
                             uint8_t *pbuff, uint32_t length)
{
 8007a08:	b480      	push	{r7}
 8007a0a:	b087      	sub	sp, #28
 8007a0c:	af00      	add	r7, sp, #0
 8007a0e:	60f8      	str	r0, [r7, #12]
 8007a10:	60b9      	str	r1, [r7, #8]
 8007a12:	607a      	str	r2, [r7, #4]
  USBD_CDC_HandleTypeDef *hcdc = (USBD_CDC_HandleTypeDef *)pdev->pClassDataCmsit[pdev->classId];
 8007a14:	68fb      	ldr	r3, [r7, #12]
 8007a16:	f8d3 22d4 	ldr.w	r2, [r3, #724]	@ 0x2d4
 8007a1a:	68fb      	ldr	r3, [r7, #12]
 8007a1c:	32b0      	adds	r2, #176	@ 0xb0
 8007a1e:	f853 3022 	ldr.w	r3, [r3, r2, lsl #2]
 8007a22:	617b      	str	r3, [r7, #20]
#endif /* USE_USBD_COMPOSITE */

  if (hcdc == NULL)
 8007a24:	697b      	ldr	r3, [r7, #20]
 8007a26:	2b00      	cmp	r3, #0
 8007a28:	d101      	bne.n	8007a2e <USBD_CDC_SetTxBuffer+0x26>
  {
    return (uint8_t)USBD_FAIL;
 8007a2a:	2303      	movs	r3, #3
 8007a2c:	e008      	b.n	8007a40 <USBD_CDC_SetTxBuffer+0x38>
  }

  hcdc->TxBuffer = pbuff;
 8007a2e:	697b      	ldr	r3, [r7, #20]
 8007a30:	68ba      	ldr	r2, [r7, #8]
 8007a32:	f8c3 2208 	str.w	r2, [r3, #520]	@ 0x208
  hcdc->TxLength = length;
 8007a36:	697b      	ldr	r3, [r7, #20]
 8007a38:	687a      	ldr	r2, [r7, #4]
 8007a3a:	f8c3 2210 	str.w	r2, [r3, #528]	@ 0x210

  return (uint8_t)USBD_OK;
 8007a3e:	2300      	movs	r3, #0
}
 8007a40:	4618      	mov	r0, r3
 8007a42:	371c      	adds	r7, #28
 8007a44:	46bd      	mov	sp, r7
 8007a46:	f85d 7b04 	ldr.w	r7, [sp], #4
 8007a4a:	4770      	bx	lr

08007a4c <USBD_CDC_SetRxBuffer>:
  * @param  pdev: device instance
  * @param  pbuff: Rx Buffer
  * @retval status
  */
uint8_t USBD_CDC_SetRxBuffer(USBD_HandleTypeDef *pdev, uint8_t *pbuff)
{
 8007a4c:	b480      	push	{r7}
 8007a4e:	b085      	sub	sp, #20
 8007a50:	af00      	add	r7, sp, #0
 8007a52:	6078      	str	r0, [r7, #4]
 8007a54:	6039      	str	r1, [r7, #0]
  USBD_CDC_HandleTypeDef *hcdc = (USBD_CDC_HandleTypeDef *)pdev->pClassDataCmsit[pdev->classId];
 8007a56:	687b      	ldr	r3, [r7, #4]
 8007a58:	f8d3 22d4 	ldr.w	r2, [r3, #724]	@ 0x2d4
 8007a5c:	687b      	ldr	r3, [r7, #4]
 8007a5e:	32b0      	adds	r2, #176	@ 0xb0
 8007a60:	f853 3022 	ldr.w	r3, [r3, r2, lsl #2]
 8007a64:	60fb      	str	r3, [r7, #12]

  if (hcdc == NULL)
 8007a66:	68fb      	ldr	r3, [r7, #12]
 8007a68:	2b00      	cmp	r3, #0
 8007a6a:	d101      	bne.n	8007a70 <USBD_CDC_SetRxBuffer+0x24>
  {
    return (uint8_t)USBD_FAIL;
 8007a6c:	2303      	movs	r3, #3
 8007a6e:	e004      	b.n	8007a7a <USBD_CDC_SetRxBuffer+0x2e>
  }

  hcdc->RxBuffer = pbuff;
 8007a70:	68fb      	ldr	r3, [r7, #12]
 8007a72:	683a      	ldr	r2, [r7, #0]
 8007a74:	f8c3 2204 	str.w	r2, [r3, #516]	@ 0x204

  return (uint8_t)USBD_OK;
 8007a78:	2300      	movs	r3, #0
}
 8007a7a:	4618      	mov	r0, r3
 8007a7c:	3714      	adds	r7, #20
 8007a7e:	46bd      	mov	sp, r7
 8007a80:	f85d 7b04 	ldr.w	r7, [sp], #4
 8007a84:	4770      	bx	lr
	...

08007a88 <USBD_CDC_TransmitPacket>:
uint8_t USBD_CDC_TransmitPacket(USBD_HandleTypeDef *pdev, uint8_t ClassId)
{
  USBD_CDC_HandleTypeDef *hcdc = (USBD_CDC_HandleTypeDef *)pdev->pClassDataCmsit[ClassId];
#else
uint8_t USBD_CDC_TransmitPacket(USBD_HandleTypeDef *pdev)
{
 8007a88:	b580      	push	{r7, lr}
 8007a8a:	b084      	sub	sp, #16
 8007a8c:	af00      	add	r7, sp, #0
 8007a8e:	6078      	str	r0, [r7, #4]
  USBD_CDC_HandleTypeDef *hcdc = (USBD_CDC_HandleTypeDef *)pdev->pClassDataCmsit[pdev->classId];
 8007a90:	687b      	ldr	r3, [r7, #4]
 8007a92:	f8d3 22d4 	ldr.w	r2, [r3, #724]	@ 0x2d4
 8007a96:	687b      	ldr	r3, [r7, #4]
 8007a98:	32b0      	adds	r2, #176	@ 0xb0
 8007a9a:	f853 3022 	ldr.w	r3, [r3, r2, lsl #2]
 8007a9e:	60bb      	str	r3, [r7, #8]
#endif  /* USE_USBD_COMPOSITE */

  USBD_StatusTypeDef ret = USBD_BUSY;
 8007aa0:	2301      	movs	r3, #1
 8007aa2:	73fb      	strb	r3, [r7, #15]
#ifdef USE_USBD_COMPOSITE
  /* Get the Endpoints addresses allocated for this class instance */
  CDCInEpAdd  = USBD_CoreGetEPAdd(pdev, USBD_EP_IN, USBD_EP_TYPE_BULK, ClassId);
#endif  /* USE_USBD_COMPOSITE */

  if (hcdc == NULL)
 8007aa4:	68bb      	ldr	r3, [r7, #8]
 8007aa6:	2b00      	cmp	r3, #0
 8007aa8:	d101      	bne.n	8007aae <USBD_CDC_TransmitPacket+0x26>
  {
    return (uint8_t)USBD_FAIL;
 8007aaa:	2303      	movs	r3, #3
 8007aac:	e025      	b.n	8007afa <USBD_CDC_TransmitPacket+0x72>
  }

  if (hcdc->TxState == 0U)
 8007aae:	68bb      	ldr	r3, [r7, #8]
 8007ab0:	f8d3 3214 	ldr.w	r3, [r3, #532]	@ 0x214
 8007ab4:	2b00      	cmp	r3, #0
 8007ab6:	d11f      	bne.n	8007af8 <USBD_CDC_TransmitPacket+0x70>
  {
    /* Tx Transfer in progress */
    hcdc->TxState = 1U;
 8007ab8:	68bb      	ldr	r3, [r7, #8]
 8007aba:	2201      	movs	r2, #1
 8007abc:	f8c3 2214 	str.w	r2, [r3, #532]	@ 0x214

    /* Update the packet total length */
    pdev->ep_in[CDCInEpAdd & 0xFU].total_length = hcdc->TxLength;
 8007ac0:	4b10      	ldr	r3, [pc, #64]	@ (8007b04 <USBD_CDC_TransmitPacket+0x7c>)
 8007ac2:	781b      	ldrb	r3, [r3, #0]
 8007ac4:	f003 020f 	and.w	r2, r3, #15
 8007ac8:	68bb      	ldr	r3, [r7, #8]
 8007aca:	f8d3 1210 	ldr.w	r1, [r3, #528]	@ 0x210
 8007ace:	6878      	ldr	r0, [r7, #4]
 8007ad0:	4613      	mov	r3, r2
 8007ad2:	009b      	lsls	r3, r3, #2
 8007ad4:	4413      	add	r3, r2
 8007ad6:	009b      	lsls	r3, r3, #2
 8007ad8:	4403      	add	r3, r0
 8007ada:	3314      	adds	r3, #20
 8007adc:	6019      	str	r1, [r3, #0]

    /* Transmit next packet */
    (void)USBD_LL_Transmit(pdev, CDCInEpAdd, hcdc->TxBuffer, hcdc->TxLength);
 8007ade:	4b09      	ldr	r3, [pc, #36]	@ (8007b04 <USBD_CDC_TransmitPacket+0x7c>)
 8007ae0:	7819      	ldrb	r1, [r3, #0]
 8007ae2:	68bb      	ldr	r3, [r7, #8]
 8007ae4:	f8d3 2208 	ldr.w	r2, [r3, #520]	@ 0x208
 8007ae8:	68bb      	ldr	r3, [r7, #8]
 8007aea:	f8d3 3210 	ldr.w	r3, [r3, #528]	@ 0x210
 8007aee:	6878      	ldr	r0, [r7, #4]
 8007af0:	f002 f80b 	bl	8009b0a <USBD_LL_Transmit>

    ret = USBD_OK;
 8007af4:	2300      	movs	r3, #0
 8007af6:	73fb      	strb	r3, [r7, #15]
  }

  return (uint8_t)ret;
 8007af8:	7bfb      	ldrb	r3, [r7, #15]
}
 8007afa:	4618      	mov	r0, r3
 8007afc:	3710      	adds	r7, #16
 8007afe:	46bd      	mov	sp, r7
 8007b00:	bd80      	pop	{r7, pc}
 8007b02:	bf00      	nop
 8007b04:	24000097 	.word	0x24000097

08007b08 <USBD_CDC_ReceivePacket>:
  *         prepare OUT Endpoint for reception
  * @param  pdev: device instance
  * @retval status
  */
uint8_t USBD_CDC_ReceivePacket(USBD_HandleTypeDef *pdev)
{
 8007b08:	b580      	push	{r7, lr}
 8007b0a:	b084      	sub	sp, #16
 8007b0c:	af00      	add	r7, sp, #0
 8007b0e:	6078      	str	r0, [r7, #4]
  USBD_CDC_HandleTypeDef *hcdc = (USBD_CDC_HandleTypeDef *)pdev->pClassDataCmsit[pdev->classId];
 8007b10:	687b      	ldr	r3, [r7, #4]
 8007b12:	f8d3 22d4 	ldr.w	r2, [r3, #724]	@ 0x2d4
 8007b16:	687b      	ldr	r3, [r7, #4]
 8007b18:	32b0      	adds	r2, #176	@ 0xb0
 8007b1a:	f853 3022 	ldr.w	r3, [r3, r2, lsl #2]
 8007b1e:	60fb      	str	r3, [r7, #12]
#ifdef USE_USBD_COMPOSITE
  /* Get the Endpoints addresses allocated for this class instance */
  CDCOutEpAdd = USBD_CoreGetEPAdd(pdev, USBD_EP_OUT, USBD_EP_TYPE_BULK, (uint8_t)pdev->classId);
#endif /* USE_USBD_COMPOSITE */

  if (pdev->pClassDataCmsit[pdev->classId] == NULL)
 8007b20:	687b      	ldr	r3, [r7, #4]
 8007b22:	f8d3 22d4 	ldr.w	r2, [r3, #724]	@ 0x2d4
 8007b26:	687b      	ldr	r3, [r7, #4]
 8007b28:	32b0      	adds	r2, #176	@ 0xb0
 8007b2a:	f853 3022 	ldr.w	r3, [r3, r2, lsl #2]
 8007b2e:	2b00      	cmp	r3, #0
 8007b30:	d101      	bne.n	8007b36 <USBD_CDC_ReceivePacket+0x2e>
  {
    return (uint8_t)USBD_FAIL;
 8007b32:	2303      	movs	r3, #3
 8007b34:	e018      	b.n	8007b68 <USBD_CDC_ReceivePacket+0x60>
  }

  if (pdev->dev_speed == USBD_SPEED_HIGH)
 8007b36:	687b      	ldr	r3, [r7, #4]
 8007b38:	7c1b      	ldrb	r3, [r3, #16]
 8007b3a:	2b00      	cmp	r3, #0
 8007b3c:	d10a      	bne.n	8007b54 <USBD_CDC_ReceivePacket+0x4c>
  {
    /* Prepare Out endpoint to receive next packet */
    (void)USBD_LL_PrepareReceive(pdev, CDCOutEpAdd, hcdc->RxBuffer,
 8007b3e:	4b0c      	ldr	r3, [pc, #48]	@ (8007b70 <USBD_CDC_ReceivePacket+0x68>)
 8007b40:	7819      	ldrb	r1, [r3, #0]
 8007b42:	68fb      	ldr	r3, [r7, #12]
 8007b44:	f8d3 2204 	ldr.w	r2, [r3, #516]	@ 0x204
 8007b48:	f44f 7300 	mov.w	r3, #512	@ 0x200
 8007b4c:	6878      	ldr	r0, [r7, #4]
 8007b4e:	f001 fffd 	bl	8009b4c <USBD_LL_PrepareReceive>
 8007b52:	e008      	b.n	8007b66 <USBD_CDC_ReceivePacket+0x5e>
                                 CDC_DATA_HS_OUT_PACKET_SIZE);
  }
  else
  {
    /* Prepare Out endpoint to receive next packet */
    (void)USBD_LL_PrepareReceive(pdev, CDCOutEpAdd, hcdc->RxBuffer,
 8007b54:	4b06      	ldr	r3, [pc, #24]	@ (8007b70 <USBD_CDC_ReceivePacket+0x68>)
 8007b56:	7819      	ldrb	r1, [r3, #0]
 8007b58:	68fb      	ldr	r3, [r7, #12]
 8007b5a:	f8d3 2204 	ldr.w	r2, [r3, #516]	@ 0x204
 8007b5e:	2340      	movs	r3, #64	@ 0x40
 8007b60:	6878      	ldr	r0, [r7, #4]
 8007b62:	f001 fff3 	bl	8009b4c <USBD_LL_PrepareReceive>
                                 CDC_DATA_FS_OUT_PACKET_SIZE);
  }

  return (uint8_t)USBD_OK;
 8007b66:	2300      	movs	r3, #0
}
 8007b68:	4618      	mov	r0, r3
 8007b6a:	3710      	adds	r7, #16
 8007b6c:	46bd      	mov	sp, r7
 8007b6e:	bd80      	pop	{r7, pc}
 8007b70:	24000098 	.word	0x24000098

08007b74 <USBD_Init>:
  * @param  id: Low level core index
  * @retval status: USBD Status
  */
USBD_StatusTypeDef USBD_Init(USBD_HandleTypeDef *pdev,
                             USBD_DescriptorsTypeDef *pdesc, uint8_t id)
{
 8007b74:	b580      	push	{r7, lr}
 8007b76:	b086      	sub	sp, #24
 8007b78:	af00      	add	r7, sp, #0
 8007b7a:	60f8      	str	r0, [r7, #12]
 8007b7c:	60b9      	str	r1, [r7, #8]
 8007b7e:	4613      	mov	r3, r2
 8007b80:	71fb      	strb	r3, [r7, #7]
  USBD_StatusTypeDef ret;

  /* Check whether the USB Host handle is valid */
  if (pdev == NULL)
 8007b82:	68fb      	ldr	r3, [r7, #12]
 8007b84:	2b00      	cmp	r3, #0
 8007b86:	d101      	bne.n	8007b8c <USBD_Init+0x18>
  {
#if (USBD_DEBUG_LEVEL > 1U)
    USBD_ErrLog("Invalid Device handle");
#endif /* (USBD_DEBUG_LEVEL > 1U) */
    return USBD_FAIL;
 8007b88:	2303      	movs	r3, #3
 8007b8a:	e01f      	b.n	8007bcc <USBD_Init+0x58>
    pdev->NumClasses = 0;
    pdev->classId = 0;
  }
#else
  /* Unlink previous class*/
  pdev->pClass[0] = NULL;
 8007b8c:	68fb      	ldr	r3, [r7, #12]
 8007b8e:	2200      	movs	r2, #0
 8007b90:	f8c3 22b8 	str.w	r2, [r3, #696]	@ 0x2b8
  pdev->pUserData[0] = NULL;
 8007b94:	68fb      	ldr	r3, [r7, #12]
 8007b96:	2200      	movs	r2, #0
 8007b98:	f8c3 22c4 	str.w	r2, [r3, #708]	@ 0x2c4
#endif /* USE_USBD_COMPOSITE */

  pdev->pConfDesc = NULL;
 8007b9c:	68fb      	ldr	r3, [r7, #12]
 8007b9e:	2200      	movs	r2, #0
 8007ba0:	f8c3 22d0 	str.w	r2, [r3, #720]	@ 0x2d0

  /* Assign USBD Descriptors */
  if (pdesc != NULL)
 8007ba4:	68bb      	ldr	r3, [r7, #8]
 8007ba6:	2b00      	cmp	r3, #0
 8007ba8:	d003      	beq.n	8007bb2 <USBD_Init+0x3e>
  {
    pdev->pDesc = pdesc;
 8007baa:	68fb      	ldr	r3, [r7, #12]
 8007bac:	68ba      	ldr	r2, [r7, #8]
 8007bae:	f8c3 22b4 	str.w	r2, [r3, #692]	@ 0x2b4
  }

  /* Set Device initial State */
  pdev->dev_state = USBD_STATE_DEFAULT;
 8007bb2:	68fb      	ldr	r3, [r7, #12]
 8007bb4:	2201      	movs	r2, #1
 8007bb6:	f883 229c 	strb.w	r2, [r3, #668]	@ 0x29c
  pdev->id = id;
 8007bba:	68fb      	ldr	r3, [r7, #12]
 8007bbc:	79fa      	ldrb	r2, [r7, #7]
 8007bbe:	701a      	strb	r2, [r3, #0]

  /* Initialize low level driver */
  ret = USBD_LL_Init(pdev);
 8007bc0:	68f8      	ldr	r0, [r7, #12]
 8007bc2:	f001 fe67 	bl	8009894 <USBD_LL_Init>
 8007bc6:	4603      	mov	r3, r0
 8007bc8:	75fb      	strb	r3, [r7, #23]

  return ret;
 8007bca:	7dfb      	ldrb	r3, [r7, #23]
}
 8007bcc:	4618      	mov	r0, r3
 8007bce:	3718      	adds	r7, #24
 8007bd0:	46bd      	mov	sp, r7
 8007bd2:	bd80      	pop	{r7, pc}

08007bd4 <USBD_RegisterClass>:
  * @param  pdev: Device Handle
  * @param  pclass: Class handle
  * @retval USBD Status
  */
USBD_StatusTypeDef USBD_RegisterClass(USBD_HandleTypeDef *pdev, USBD_ClassTypeDef *pclass)
{
 8007bd4:	b580      	push	{r7, lr}
 8007bd6:	b084      	sub	sp, #16
 8007bd8:	af00      	add	r7, sp, #0
 8007bda:	6078      	str	r0, [r7, #4]
 8007bdc:	6039      	str	r1, [r7, #0]
  uint16_t len = 0U;
 8007bde:	2300      	movs	r3, #0
 8007be0:	81fb      	strh	r3, [r7, #14]

  if (pclass == NULL)
 8007be2:	683b      	ldr	r3, [r7, #0]
 8007be4:	2b00      	cmp	r3, #0
 8007be6:	d101      	bne.n	8007bec <USBD_RegisterClass+0x18>
  {
#if (USBD_DEBUG_LEVEL > 1U)
    USBD_ErrLog("Invalid Class handle");
#endif /* (USBD_DEBUG_LEVEL > 1U) */
    return USBD_FAIL;
 8007be8:	2303      	movs	r3, #3
 8007bea:	e025      	b.n	8007c38 <USBD_RegisterClass+0x64>
  }

  /* link the class to the USB Device handle */
  pdev->pClass[0] = pclass;
 8007bec:	687b      	ldr	r3, [r7, #4]
 8007bee:	683a      	ldr	r2, [r7, #0]
 8007bf0:	f8c3 22b8 	str.w	r2, [r3, #696]	@ 0x2b8
  if (pdev->pClass[pdev->classId]->GetHSConfigDescriptor != NULL)
  {
    pdev->pConfDesc = (void *)pdev->pClass[pdev->classId]->GetHSConfigDescriptor(&len);
  }
#else /* Default USE_USB_FS */
  if (pdev->pClass[pdev->classId]->GetFSConfigDescriptor != NULL)
 8007bf4:	687b      	ldr	r3, [r7, #4]
 8007bf6:	f8d3 22d4 	ldr.w	r2, [r3, #724]	@ 0x2d4
 8007bfa:	687b      	ldr	r3, [r7, #4]
 8007bfc:	32ae      	adds	r2, #174	@ 0xae
 8007bfe:	f853 3022 	ldr.w	r3, [r3, r2, lsl #2]
 8007c02:	6adb      	ldr	r3, [r3, #44]	@ 0x2c
 8007c04:	2b00      	cmp	r3, #0
 8007c06:	d00f      	beq.n	8007c28 <USBD_RegisterClass+0x54>
  {
    pdev->pConfDesc = (void *)pdev->pClass[pdev->classId]->GetFSConfigDescriptor(&len);
 8007c08:	687b      	ldr	r3, [r7, #4]
 8007c0a:	f8d3 22d4 	ldr.w	r2, [r3, #724]	@ 0x2d4
 8007c0e:	687b      	ldr	r3, [r7, #4]
 8007c10:	32ae      	adds	r2, #174	@ 0xae
 8007c12:	f853 3022 	ldr.w	r3, [r3, r2, lsl #2]
 8007c16:	6adb      	ldr	r3, [r3, #44]	@ 0x2c
 8007c18:	f107 020e 	add.w	r2, r7, #14
 8007c1c:	4610      	mov	r0, r2
 8007c1e:	4798      	blx	r3
 8007c20:	4602      	mov	r2, r0
 8007c22:	687b      	ldr	r3, [r7, #4]
 8007c24:	f8c3 22d0 	str.w	r2, [r3, #720]	@ 0x2d0
  }
#endif /* USE_USB_FS */

  /* Increment the NumClasses */
  pdev->NumClasses++;
 8007c28:	687b      	ldr	r3, [r7, #4]
 8007c2a:	f8d3 32d8 	ldr.w	r3, [r3, #728]	@ 0x2d8
 8007c2e:	1c5a      	adds	r2, r3, #1
 8007c30:	687b      	ldr	r3, [r7, #4]
 8007c32:	f8c3 22d8 	str.w	r2, [r3, #728]	@ 0x2d8

  return USBD_OK;
 8007c36:	2300      	movs	r3, #0
}
 8007c38:	4618      	mov	r0, r3
 8007c3a:	3710      	adds	r7, #16
 8007c3c:	46bd      	mov	sp, r7
 8007c3e:	bd80      	pop	{r7, pc}

08007c40 <USBD_Start>:
  *         Start the USB Device Core.
  * @param  pdev: Device Handle
  * @retval USBD Status
  */
USBD_StatusTypeDef USBD_Start(USBD_HandleTypeDef *pdev)
{
 8007c40:	b580      	push	{r7, lr}
 8007c42:	b082      	sub	sp, #8
 8007c44:	af00      	add	r7, sp, #0
 8007c46:	6078      	str	r0, [r7, #4]
#ifdef USE_USBD_COMPOSITE
  pdev->classId = 0U;
#endif /* USE_USBD_COMPOSITE */

  /* Start the low level driver  */
  return USBD_LL_Start(pdev);
 8007c48:	6878      	ldr	r0, [r7, #4]
 8007c4a:	f001 fe75 	bl	8009938 <USBD_LL_Start>
 8007c4e:	4603      	mov	r3, r0
}
 8007c50:	4618      	mov	r0, r3
 8007c52:	3708      	adds	r7, #8
 8007c54:	46bd      	mov	sp, r7
 8007c56:	bd80      	pop	{r7, pc}

08007c58 <USBD_RunTestMode>:
  *         Launch test mode process
  * @param  pdev: device instance
  * @retval status
  */
USBD_StatusTypeDef USBD_RunTestMode(USBD_HandleTypeDef *pdev)
{
 8007c58:	b480      	push	{r7}
 8007c5a:	b083      	sub	sp, #12
 8007c5c:	af00      	add	r7, sp, #0
 8007c5e:	6078      	str	r0, [r7, #4]
  return ret;
#else
  /* Prevent unused argument compilation warning */
  UNUSED(pdev);

  return USBD_OK;
 8007c60:	2300      	movs	r3, #0
#endif /* USBD_HS_TESTMODE_ENABLE */
}
 8007c62:	4618      	mov	r0, r3
 8007c64:	370c      	adds	r7, #12
 8007c66:	46bd      	mov	sp, r7
 8007c68:	f85d 7b04 	ldr.w	r7, [sp], #4
 8007c6c:	4770      	bx	lr

08007c6e <USBD_SetClassConfig>:
  * @param  cfgidx: configuration index
  * @retval status
  */

USBD_StatusTypeDef USBD_SetClassConfig(USBD_HandleTypeDef *pdev, uint8_t cfgidx)
{
 8007c6e:	b580      	push	{r7, lr}
 8007c70:	b084      	sub	sp, #16
 8007c72:	af00      	add	r7, sp, #0
 8007c74:	6078      	str	r0, [r7, #4]
 8007c76:	460b      	mov	r3, r1
 8007c78:	70fb      	strb	r3, [r7, #3]
  USBD_StatusTypeDef ret = USBD_OK;
 8007c7a:	2300      	movs	r3, #0
 8007c7c:	73fb      	strb	r3, [r7, #15]
        }
      }
    }
  }
#else
  if (pdev->pClass[0] != NULL)
 8007c7e:	687b      	ldr	r3, [r7, #4]
 8007c80:	f8d3 32b8 	ldr.w	r3, [r3, #696]	@ 0x2b8
 8007c84:	2b00      	cmp	r3, #0
 8007c86:	d009      	beq.n	8007c9c <USBD_SetClassConfig+0x2e>
  {
    /* Set configuration and Start the Class */
    ret = (USBD_StatusTypeDef)pdev->pClass[0]->Init(pdev, cfgidx);
 8007c88:	687b      	ldr	r3, [r7, #4]
 8007c8a:	f8d3 32b8 	ldr.w	r3, [r3, #696]	@ 0x2b8
 8007c8e:	681b      	ldr	r3, [r3, #0]
 8007c90:	78fa      	ldrb	r2, [r7, #3]
 8007c92:	4611      	mov	r1, r2
 8007c94:	6878      	ldr	r0, [r7, #4]
 8007c96:	4798      	blx	r3
 8007c98:	4603      	mov	r3, r0
 8007c9a:	73fb      	strb	r3, [r7, #15]
  }
#endif /* USE_USBD_COMPOSITE */

  return ret;
 8007c9c:	7bfb      	ldrb	r3, [r7, #15]
}
 8007c9e:	4618      	mov	r0, r3
 8007ca0:	3710      	adds	r7, #16
 8007ca2:	46bd      	mov	sp, r7
 8007ca4:	bd80      	pop	{r7, pc}

08007ca6 <USBD_ClrClassConfig>:
  * @param  pdev: device instance
  * @param  cfgidx: configuration index
  * @retval status
  */
USBD_StatusTypeDef USBD_ClrClassConfig(USBD_HandleTypeDef *pdev, uint8_t cfgidx)
{
 8007ca6:	b580      	push	{r7, lr}
 8007ca8:	b084      	sub	sp, #16
 8007caa:	af00      	add	r7, sp, #0
 8007cac:	6078      	str	r0, [r7, #4]
 8007cae:	460b      	mov	r3, r1
 8007cb0:	70fb      	strb	r3, [r7, #3]
  USBD_StatusTypeDef ret = USBD_OK;
 8007cb2:	2300      	movs	r3, #0
 8007cb4:	73fb      	strb	r3, [r7, #15]
      }
    }
  }
#else
  /* Clear configuration  and De-initialize the Class process */
  if (pdev->pClass[0]->DeInit(pdev, cfgidx) != 0U)
 8007cb6:	687b      	ldr	r3, [r7, #4]
 8007cb8:	f8d3 32b8 	ldr.w	r3, [r3, #696]	@ 0x2b8
 8007cbc:	685b      	ldr	r3, [r3, #4]
 8007cbe:	78fa      	ldrb	r2, [r7, #3]
 8007cc0:	4611      	mov	r1, r2
 8007cc2:	6878      	ldr	r0, [r7, #4]
 8007cc4:	4798      	blx	r3
 8007cc6:	4603      	mov	r3, r0
 8007cc8:	2b00      	cmp	r3, #0
 8007cca:	d001      	beq.n	8007cd0 <USBD_ClrClassConfig+0x2a>
  {
    ret = USBD_FAIL;
 8007ccc:	2303      	movs	r3, #3
 8007cce:	73fb      	strb	r3, [r7, #15]
  }
#endif /* USE_USBD_COMPOSITE */

  return ret;
 8007cd0:	7bfb      	ldrb	r3, [r7, #15]
}
 8007cd2:	4618      	mov	r0, r3
 8007cd4:	3710      	adds	r7, #16
 8007cd6:	46bd      	mov	sp, r7
 8007cd8:	bd80      	pop	{r7, pc}

08007cda <USBD_LL_SetupStage>:
  * @param  pdev: device instance
  * @param  psetup: setup packet buffer pointer
  * @retval status
  */
USBD_StatusTypeDef USBD_LL_SetupStage(USBD_HandleTypeDef *pdev, uint8_t *psetup)
{
 8007cda:	b580      	push	{r7, lr}
 8007cdc:	b084      	sub	sp, #16
 8007cde:	af00      	add	r7, sp, #0
 8007ce0:	6078      	str	r0, [r7, #4]
 8007ce2:	6039      	str	r1, [r7, #0]
  USBD_StatusTypeDef ret;

  USBD_ParseSetupRequest(&pdev->request, psetup);
 8007ce4:	687b      	ldr	r3, [r7, #4]
 8007ce6:	f203 23aa 	addw	r3, r3, #682	@ 0x2aa
 8007cea:	6839      	ldr	r1, [r7, #0]
 8007cec:	4618      	mov	r0, r3
 8007cee:	f001 f94c 	bl	8008f8a <USBD_ParseSetupRequest>

  pdev->ep0_state = USBD_EP0_SETUP;
 8007cf2:	687b      	ldr	r3, [r7, #4]
 8007cf4:	2201      	movs	r2, #1
 8007cf6:	f8c3 2294 	str.w	r2, [r3, #660]	@ 0x294

  pdev->ep0_data_len = pdev->request.wLength;
 8007cfa:	687b      	ldr	r3, [r7, #4]
 8007cfc:	f8b3 32b0 	ldrh.w	r3, [r3, #688]	@ 0x2b0
 8007d00:	461a      	mov	r2, r3
 8007d02:	687b      	ldr	r3, [r7, #4]
 8007d04:	f8c3 2298 	str.w	r2, [r3, #664]	@ 0x298

  switch (pdev->request.bmRequest & 0x1FU)
 8007d08:	687b      	ldr	r3, [r7, #4]
 8007d0a:	f893 32aa 	ldrb.w	r3, [r3, #682]	@ 0x2aa
 8007d0e:	f003 031f 	and.w	r3, r3, #31
 8007d12:	2b02      	cmp	r3, #2
 8007d14:	d01a      	beq.n	8007d4c <USBD_LL_SetupStage+0x72>
 8007d16:	2b02      	cmp	r3, #2
 8007d18:	d822      	bhi.n	8007d60 <USBD_LL_SetupStage+0x86>
 8007d1a:	2b00      	cmp	r3, #0
 8007d1c:	d002      	beq.n	8007d24 <USBD_LL_SetupStage+0x4a>
 8007d1e:	2b01      	cmp	r3, #1
 8007d20:	d00a      	beq.n	8007d38 <USBD_LL_SetupStage+0x5e>
 8007d22:	e01d      	b.n	8007d60 <USBD_LL_SetupStage+0x86>
  {
    case USB_REQ_RECIPIENT_DEVICE:
      ret = USBD_StdDevReq(pdev, &pdev->request);
 8007d24:	687b      	ldr	r3, [r7, #4]
 8007d26:	f203 23aa 	addw	r3, r3, #682	@ 0x2aa
 8007d2a:	4619      	mov	r1, r3
 8007d2c:	6878      	ldr	r0, [r7, #4]
 8007d2e:	f000 fb77 	bl	8008420 <USBD_StdDevReq>
 8007d32:	4603      	mov	r3, r0
 8007d34:	73fb      	strb	r3, [r7, #15]
      break;
 8007d36:	e020      	b.n	8007d7a <USBD_LL_SetupStage+0xa0>

    case USB_REQ_RECIPIENT_INTERFACE:
      ret = USBD_StdItfReq(pdev, &pdev->request);
 8007d38:	687b      	ldr	r3, [r7, #4]
 8007d3a:	f203 23aa 	addw	r3, r3, #682	@ 0x2aa
 8007d3e:	4619      	mov	r1, r3
 8007d40:	6878      	ldr	r0, [r7, #4]
 8007d42:	f000 fbdf 	bl	8008504 <USBD_StdItfReq>
 8007d46:	4603      	mov	r3, r0
 8007d48:	73fb      	strb	r3, [r7, #15]
      break;
 8007d4a:	e016      	b.n	8007d7a <USBD_LL_SetupStage+0xa0>

    case USB_REQ_RECIPIENT_ENDPOINT:
      ret = USBD_StdEPReq(pdev, &pdev->request);
 8007d4c:	687b      	ldr	r3, [r7, #4]
 8007d4e:	f203 23aa 	addw	r3, r3, #682	@ 0x2aa
 8007d52:	4619      	mov	r1, r3
 8007d54:	6878      	ldr	r0, [r7, #4]
 8007d56:	f000 fc41 	bl	80085dc <USBD_StdEPReq>
 8007d5a:	4603      	mov	r3, r0
 8007d5c:	73fb      	strb	r3, [r7, #15]
      break;
 8007d5e:	e00c      	b.n	8007d7a <USBD_LL_SetupStage+0xa0>

    default:
      ret = USBD_LL_StallEP(pdev, (pdev->request.bmRequest & 0x80U));
 8007d60:	687b      	ldr	r3, [r7, #4]
 8007d62:	f893 32aa 	ldrb.w	r3, [r3, #682]	@ 0x2aa
 8007d66:	f023 037f 	bic.w	r3, r3, #127	@ 0x7f
 8007d6a:	b2db      	uxtb	r3, r3
 8007d6c:	4619      	mov	r1, r3
 8007d6e:	6878      	ldr	r0, [r7, #4]
 8007d70:	f001 fe42 	bl	80099f8 <USBD_LL_StallEP>
 8007d74:	4603      	mov	r3, r0
 8007d76:	73fb      	strb	r3, [r7, #15]
      break;
 8007d78:	bf00      	nop
  }

  return ret;
 8007d7a:	7bfb      	ldrb	r3, [r7, #15]
}
 8007d7c:	4618      	mov	r0, r3
 8007d7e:	3710      	adds	r7, #16
 8007d80:	46bd      	mov	sp, r7
 8007d82:	bd80      	pop	{r7, pc}

08007d84 <USBD_LL_DataOutStage>:
  * @param  pdata: data pointer
  * @retval status
  */
USBD_StatusTypeDef USBD_LL_DataOutStage(USBD_HandleTypeDef *pdev,
                                        uint8_t epnum, uint8_t *pdata)
{
 8007d84:	b580      	push	{r7, lr}
 8007d86:	b086      	sub	sp, #24
 8007d88:	af00      	add	r7, sp, #0
 8007d8a:	60f8      	str	r0, [r7, #12]
 8007d8c:	460b      	mov	r3, r1
 8007d8e:	607a      	str	r2, [r7, #4]
 8007d90:	72fb      	strb	r3, [r7, #11]
  USBD_EndpointTypeDef *pep;
  USBD_StatusTypeDef ret = USBD_OK;
 8007d92:	2300      	movs	r3, #0
 8007d94:	75fb      	strb	r3, [r7, #23]
  uint8_t idx;

  UNUSED(pdata);

  if (epnum == 0U)
 8007d96:	7afb      	ldrb	r3, [r7, #11]
 8007d98:	2b00      	cmp	r3, #0
 8007d9a:	d177      	bne.n	8007e8c <USBD_LL_DataOutStage+0x108>
  {
    pep = &pdev->ep_out[0];
 8007d9c:	68fb      	ldr	r3, [r7, #12]
 8007d9e:	f503 73aa 	add.w	r3, r3, #340	@ 0x154
 8007da2:	613b      	str	r3, [r7, #16]

    if (pdev->ep0_state == USBD_EP0_DATA_OUT)
 8007da4:	68fb      	ldr	r3, [r7, #12]
 8007da6:	f8d3 3294 	ldr.w	r3, [r3, #660]	@ 0x294
 8007daa:	2b03      	cmp	r3, #3
 8007dac:	f040 80a1 	bne.w	8007ef2 <USBD_LL_DataOutStage+0x16e>
    {
      if (pep->rem_length > pep->maxpacket)
 8007db0:	693b      	ldr	r3, [r7, #16]
 8007db2:	685b      	ldr	r3, [r3, #4]
 8007db4:	693a      	ldr	r2, [r7, #16]
 8007db6:	8992      	ldrh	r2, [r2, #12]
 8007db8:	4293      	cmp	r3, r2
 8007dba:	d91c      	bls.n	8007df6 <USBD_LL_DataOutStage+0x72>
      {
        pep->rem_length -= pep->maxpacket;
 8007dbc:	693b      	ldr	r3, [r7, #16]
 8007dbe:	685b      	ldr	r3, [r3, #4]
 8007dc0:	693a      	ldr	r2, [r7, #16]
 8007dc2:	8992      	ldrh	r2, [r2, #12]
 8007dc4:	1a9a      	subs	r2, r3, r2
 8007dc6:	693b      	ldr	r3, [r7, #16]
 8007dc8:	605a      	str	r2, [r3, #4]
        pep->pbuffer += pep->maxpacket;
 8007dca:	693b      	ldr	r3, [r7, #16]
 8007dcc:	691b      	ldr	r3, [r3, #16]
 8007dce:	693a      	ldr	r2, [r7, #16]
 8007dd0:	8992      	ldrh	r2, [r2, #12]
 8007dd2:	441a      	add	r2, r3
 8007dd4:	693b      	ldr	r3, [r7, #16]
 8007dd6:	611a      	str	r2, [r3, #16]

        (void)USBD_CtlContinueRx(pdev, pep->pbuffer, MAX(pep->rem_length, pep->maxpacket));
 8007dd8:	693b      	ldr	r3, [r7, #16]
 8007dda:	6919      	ldr	r1, [r3, #16]
 8007ddc:	693b      	ldr	r3, [r7, #16]
 8007dde:	899b      	ldrh	r3, [r3, #12]
 8007de0:	461a      	mov	r2, r3
 8007de2:	693b      	ldr	r3, [r7, #16]
 8007de4:	685b      	ldr	r3, [r3, #4]
 8007de6:	4293      	cmp	r3, r2
 8007de8:	bf38      	it	cc
 8007dea:	4613      	movcc	r3, r2
 8007dec:	461a      	mov	r2, r3
 8007dee:	68f8      	ldr	r0, [r7, #12]
 8007df0:	f001 f9d2 	bl	8009198 <USBD_CtlContinueRx>
 8007df4:	e07d      	b.n	8007ef2 <USBD_LL_DataOutStage+0x16e>
      }
      else
      {
        /* Find the class ID relative to the current request */
        switch (pdev->request.bmRequest & 0x1FU)
 8007df6:	68fb      	ldr	r3, [r7, #12]
 8007df8:	f893 32aa 	ldrb.w	r3, [r3, #682]	@ 0x2aa
 8007dfc:	f003 031f 	and.w	r3, r3, #31
 8007e00:	2b02      	cmp	r3, #2
 8007e02:	d014      	beq.n	8007e2e <USBD_LL_DataOutStage+0xaa>
 8007e04:	2b02      	cmp	r3, #2
 8007e06:	d81d      	bhi.n	8007e44 <USBD_LL_DataOutStage+0xc0>
 8007e08:	2b00      	cmp	r3, #0
 8007e0a:	d002      	beq.n	8007e12 <USBD_LL_DataOutStage+0x8e>
 8007e0c:	2b01      	cmp	r3, #1
 8007e0e:	d003      	beq.n	8007e18 <USBD_LL_DataOutStage+0x94>
 8007e10:	e018      	b.n	8007e44 <USBD_LL_DataOutStage+0xc0>
        {
          case USB_REQ_RECIPIENT_DEVICE:
            /* Device requests must be managed by the first instantiated class
               (or duplicated by all classes for simplicity) */
            idx = 0U;
 8007e12:	2300      	movs	r3, #0
 8007e14:	75bb      	strb	r3, [r7, #22]
            break;
 8007e16:	e018      	b.n	8007e4a <USBD_LL_DataOutStage+0xc6>

          case USB_REQ_RECIPIENT_INTERFACE:
            idx = USBD_CoreFindIF(pdev, LOBYTE(pdev->request.wIndex));
 8007e18:	68fb      	ldr	r3, [r7, #12]
 8007e1a:	f8b3 32ae 	ldrh.w	r3, [r3, #686]	@ 0x2ae
 8007e1e:	b2db      	uxtb	r3, r3
 8007e20:	4619      	mov	r1, r3
 8007e22:	68f8      	ldr	r0, [r7, #12]
 8007e24:	f000 fa6e 	bl	8008304 <USBD_CoreFindIF>
 8007e28:	4603      	mov	r3, r0
 8007e2a:	75bb      	strb	r3, [r7, #22]
            break;
 8007e2c:	e00d      	b.n	8007e4a <USBD_LL_DataOutStage+0xc6>

          case USB_REQ_RECIPIENT_ENDPOINT:
            idx = USBD_CoreFindEP(pdev, LOBYTE(pdev->request.wIndex));
 8007e2e:	68fb      	ldr	r3, [r7, #12]
 8007e30:	f8b3 32ae 	ldrh.w	r3, [r3, #686]	@ 0x2ae
 8007e34:	b2db      	uxtb	r3, r3
 8007e36:	4619      	mov	r1, r3
 8007e38:	68f8      	ldr	r0, [r7, #12]
 8007e3a:	f000 fa70 	bl	800831e <USBD_CoreFindEP>
 8007e3e:	4603      	mov	r3, r0
 8007e40:	75bb      	strb	r3, [r7, #22]
            break;
 8007e42:	e002      	b.n	8007e4a <USBD_LL_DataOutStage+0xc6>

          default:
            /* Back to the first class in case of doubt */
            idx = 0U;
 8007e44:	2300      	movs	r3, #0
 8007e46:	75bb      	strb	r3, [r7, #22]
            break;
 8007e48:	bf00      	nop
        }

        if (idx < USBD_MAX_SUPPORTED_CLASS)
 8007e4a:	7dbb      	ldrb	r3, [r7, #22]
 8007e4c:	2b00      	cmp	r3, #0
 8007e4e:	d119      	bne.n	8007e84 <USBD_LL_DataOutStage+0x100>
        {
          /* Setup the class ID and route the request to the relative class function */
          if (pdev->dev_state == USBD_STATE_CONFIGURED)
 8007e50:	68fb      	ldr	r3, [r7, #12]
 8007e52:	f893 329c 	ldrb.w	r3, [r3, #668]	@ 0x29c
 8007e56:	b2db      	uxtb	r3, r3
 8007e58:	2b03      	cmp	r3, #3
 8007e5a:	d113      	bne.n	8007e84 <USBD_LL_DataOutStage+0x100>
          {
            if (pdev->pClass[idx]->EP0_RxReady != NULL)
 8007e5c:	7dba      	ldrb	r2, [r7, #22]
 8007e5e:	68fb      	ldr	r3, [r7, #12]
 8007e60:	32ae      	adds	r2, #174	@ 0xae
 8007e62:	f853 3022 	ldr.w	r3, [r3, r2, lsl #2]
 8007e66:	691b      	ldr	r3, [r3, #16]
 8007e68:	2b00      	cmp	r3, #0
 8007e6a:	d00b      	beq.n	8007e84 <USBD_LL_DataOutStage+0x100>
            {
              pdev->classId = idx;
 8007e6c:	7dba      	ldrb	r2, [r7, #22]
 8007e6e:	68fb      	ldr	r3, [r7, #12]
 8007e70:	f8c3 22d4 	str.w	r2, [r3, #724]	@ 0x2d4
              pdev->pClass[idx]->EP0_RxReady(pdev);
 8007e74:	7dba      	ldrb	r2, [r7, #22]
 8007e76:	68fb      	ldr	r3, [r7, #12]
 8007e78:	32ae      	adds	r2, #174	@ 0xae
 8007e7a:	f853 3022 	ldr.w	r3, [r3, r2, lsl #2]
 8007e7e:	691b      	ldr	r3, [r3, #16]
 8007e80:	68f8      	ldr	r0, [r7, #12]
 8007e82:	4798      	blx	r3
            }
          }
        }

        (void)USBD_CtlSendStatus(pdev);
 8007e84:	68f8      	ldr	r0, [r7, #12]
 8007e86:	f001 f998 	bl	80091ba <USBD_CtlSendStatus>
 8007e8a:	e032      	b.n	8007ef2 <USBD_LL_DataOutStage+0x16e>
    }
  }
  else
  {
    /* Get the class index relative to this interface */
    idx = USBD_CoreFindEP(pdev, (epnum & 0x7FU));
 8007e8c:	7afb      	ldrb	r3, [r7, #11]
 8007e8e:	f003 037f 	and.w	r3, r3, #127	@ 0x7f
 8007e92:	b2db      	uxtb	r3, r3
 8007e94:	4619      	mov	r1, r3
 8007e96:	68f8      	ldr	r0, [r7, #12]
 8007e98:	f000 fa41 	bl	800831e <USBD_CoreFindEP>
 8007e9c:	4603      	mov	r3, r0
 8007e9e:	75bb      	strb	r3, [r7, #22]

    if (((uint16_t)idx != 0xFFU) && (idx < USBD_MAX_SUPPORTED_CLASS))
 8007ea0:	7dbb      	ldrb	r3, [r7, #22]
 8007ea2:	2bff      	cmp	r3, #255	@ 0xff
 8007ea4:	d025      	beq.n	8007ef2 <USBD_LL_DataOutStage+0x16e>
 8007ea6:	7dbb      	ldrb	r3, [r7, #22]
 8007ea8:	2b00      	cmp	r3, #0
 8007eaa:	d122      	bne.n	8007ef2 <USBD_LL_DataOutStage+0x16e>
    {
      /* Call the class data out function to manage the request */
      if (pdev->dev_state == USBD_STATE_CONFIGURED)
 8007eac:	68fb      	ldr	r3, [r7, #12]
 8007eae:	f893 329c 	ldrb.w	r3, [r3, #668]	@ 0x29c
 8007eb2:	b2db      	uxtb	r3, r3
 8007eb4:	2b03      	cmp	r3, #3
 8007eb6:	d117      	bne.n	8007ee8 <USBD_LL_DataOutStage+0x164>
      {
        if (pdev->pClass[idx]->DataOut != NULL)
 8007eb8:	7dba      	ldrb	r2, [r7, #22]
 8007eba:	68fb      	ldr	r3, [r7, #12]
 8007ebc:	32ae      	adds	r2, #174	@ 0xae
 8007ebe:	f853 3022 	ldr.w	r3, [r3, r2, lsl #2]
 8007ec2:	699b      	ldr	r3, [r3, #24]
 8007ec4:	2b00      	cmp	r3, #0
 8007ec6:	d00f      	beq.n	8007ee8 <USBD_LL_DataOutStage+0x164>
        {
          pdev->classId = idx;
 8007ec8:	7dba      	ldrb	r2, [r7, #22]
 8007eca:	68fb      	ldr	r3, [r7, #12]
 8007ecc:	f8c3 22d4 	str.w	r2, [r3, #724]	@ 0x2d4
          ret = (USBD_StatusTypeDef)pdev->pClass[idx]->DataOut(pdev, epnum);
 8007ed0:	7dba      	ldrb	r2, [r7, #22]
 8007ed2:	68fb      	ldr	r3, [r7, #12]
 8007ed4:	32ae      	adds	r2, #174	@ 0xae
 8007ed6:	f853 3022 	ldr.w	r3, [r3, r2, lsl #2]
 8007eda:	699b      	ldr	r3, [r3, #24]
 8007edc:	7afa      	ldrb	r2, [r7, #11]
 8007ede:	4611      	mov	r1, r2
 8007ee0:	68f8      	ldr	r0, [r7, #12]
 8007ee2:	4798      	blx	r3
 8007ee4:	4603      	mov	r3, r0
 8007ee6:	75fb      	strb	r3, [r7, #23]
        }
      }
      if (ret != USBD_OK)
 8007ee8:	7dfb      	ldrb	r3, [r7, #23]
 8007eea:	2b00      	cmp	r3, #0
 8007eec:	d001      	beq.n	8007ef2 <USBD_LL_DataOutStage+0x16e>
      {
        return ret;
 8007eee:	7dfb      	ldrb	r3, [r7, #23]
 8007ef0:	e000      	b.n	8007ef4 <USBD_LL_DataOutStage+0x170>
      }
    }
  }

  return USBD_OK;
 8007ef2:	2300      	movs	r3, #0
}
 8007ef4:	4618      	mov	r0, r3
 8007ef6:	3718      	adds	r7, #24
 8007ef8:	46bd      	mov	sp, r7
 8007efa:	bd80      	pop	{r7, pc}

08007efc <USBD_LL_DataInStage>:
  * @param  pdata: data pointer
  * @retval status
  */
USBD_StatusTypeDef USBD_LL_DataInStage(USBD_HandleTypeDef *pdev,
                                       uint8_t epnum, uint8_t *pdata)
{
 8007efc:	b580      	push	{r7, lr}
 8007efe:	b086      	sub	sp, #24
 8007f00:	af00      	add	r7, sp, #0
 8007f02:	60f8      	str	r0, [r7, #12]
 8007f04:	460b      	mov	r3, r1
 8007f06:	607a      	str	r2, [r7, #4]
 8007f08:	72fb      	strb	r3, [r7, #11]
  USBD_StatusTypeDef ret;
  uint8_t idx;

  UNUSED(pdata);

  if (epnum == 0U)
 8007f0a:	7afb      	ldrb	r3, [r7, #11]
 8007f0c:	2b00      	cmp	r3, #0
 8007f0e:	d178      	bne.n	8008002 <USBD_LL_DataInStage+0x106>
  {
    pep = &pdev->ep_in[0];
 8007f10:	68fb      	ldr	r3, [r7, #12]
 8007f12:	3314      	adds	r3, #20
 8007f14:	613b      	str	r3, [r7, #16]

    if (pdev->ep0_state == USBD_EP0_DATA_IN)
 8007f16:	68fb      	ldr	r3, [r7, #12]
 8007f18:	f8d3 3294 	ldr.w	r3, [r3, #660]	@ 0x294
 8007f1c:	2b02      	cmp	r3, #2
 8007f1e:	d163      	bne.n	8007fe8 <USBD_LL_DataInStage+0xec>
    {
      if (pep->rem_length > pep->maxpacket)
 8007f20:	693b      	ldr	r3, [r7, #16]
 8007f22:	685b      	ldr	r3, [r3, #4]
 8007f24:	693a      	ldr	r2, [r7, #16]
 8007f26:	8992      	ldrh	r2, [r2, #12]
 8007f28:	4293      	cmp	r3, r2
 8007f2a:	d91c      	bls.n	8007f66 <USBD_LL_DataInStage+0x6a>
      {
        pep->rem_length -= pep->maxpacket;
 8007f2c:	693b      	ldr	r3, [r7, #16]
 8007f2e:	685b      	ldr	r3, [r3, #4]
 8007f30:	693a      	ldr	r2, [r7, #16]
 8007f32:	8992      	ldrh	r2, [r2, #12]
 8007f34:	1a9a      	subs	r2, r3, r2
 8007f36:	693b      	ldr	r3, [r7, #16]
 8007f38:	605a      	str	r2, [r3, #4]
        pep->pbuffer += pep->maxpacket;
 8007f3a:	693b      	ldr	r3, [r7, #16]
 8007f3c:	691b      	ldr	r3, [r3, #16]
 8007f3e:	693a      	ldr	r2, [r7, #16]
 8007f40:	8992      	ldrh	r2, [r2, #12]
 8007f42:	441a      	add	r2, r3
 8007f44:	693b      	ldr	r3, [r7, #16]
 8007f46:	611a      	str	r2, [r3, #16]

        (void)USBD_CtlContinueSendData(pdev, pep->pbuffer, pep->rem_length);
 8007f48:	693b      	ldr	r3, [r7, #16]
 8007f4a:	6919      	ldr	r1, [r3, #16]
 8007f4c:	693b      	ldr	r3, [r7, #16]
 8007f4e:	685b      	ldr	r3, [r3, #4]
 8007f50:	461a      	mov	r2, r3
 8007f52:	68f8      	ldr	r0, [r7, #12]
 8007f54:	f001 f8ee 	bl	8009134 <USBD_CtlContinueSendData>

        /* Prepare endpoint for premature end of transfer */
        (void)USBD_LL_PrepareReceive(pdev, 0U, NULL, 0U);
 8007f58:	2300      	movs	r3, #0
 8007f5a:	2200      	movs	r2, #0
 8007f5c:	2100      	movs	r1, #0
 8007f5e:	68f8      	ldr	r0, [r7, #12]
 8007f60:	f001 fdf4 	bl	8009b4c <USBD_LL_PrepareReceive>
 8007f64:	e040      	b.n	8007fe8 <USBD_LL_DataInStage+0xec>
      }
      else
      {
        /* last packet is MPS multiple, so send ZLP packet */
        if ((pep->maxpacket == pep->rem_length) &&
 8007f66:	693b      	ldr	r3, [r7, #16]
 8007f68:	899b      	ldrh	r3, [r3, #12]
 8007f6a:	461a      	mov	r2, r3
 8007f6c:	693b      	ldr	r3, [r7, #16]
 8007f6e:	685b      	ldr	r3, [r3, #4]
 8007f70:	429a      	cmp	r2, r3
 8007f72:	d11c      	bne.n	8007fae <USBD_LL_DataInStage+0xb2>
            (pep->total_length >= pep->maxpacket) &&
 8007f74:	693b      	ldr	r3, [r7, #16]
 8007f76:	681b      	ldr	r3, [r3, #0]
 8007f78:	693a      	ldr	r2, [r7, #16]
 8007f7a:	8992      	ldrh	r2, [r2, #12]
        if ((pep->maxpacket == pep->rem_length) &&
 8007f7c:	4293      	cmp	r3, r2
 8007f7e:	d316      	bcc.n	8007fae <USBD_LL_DataInStage+0xb2>
            (pep->total_length < pdev->ep0_data_len))
 8007f80:	693b      	ldr	r3, [r7, #16]
 8007f82:	681a      	ldr	r2, [r3, #0]
 8007f84:	68fb      	ldr	r3, [r7, #12]
 8007f86:	f8d3 3298 	ldr.w	r3, [r3, #664]	@ 0x298
            (pep->total_length >= pep->maxpacket) &&
 8007f8a:	429a      	cmp	r2, r3
 8007f8c:	d20f      	bcs.n	8007fae <USBD_LL_DataInStage+0xb2>
        {
          (void)USBD_CtlContinueSendData(pdev, NULL, 0U);
 8007f8e:	2200      	movs	r2, #0
 8007f90:	2100      	movs	r1, #0
 8007f92:	68f8      	ldr	r0, [r7, #12]
 8007f94:	f001 f8ce 	bl	8009134 <USBD_CtlContinueSendData>
          pdev->ep0_data_len = 0U;
 8007f98:	68fb      	ldr	r3, [r7, #12]
 8007f9a:	2200      	movs	r2, #0
 8007f9c:	f8c3 2298 	str.w	r2, [r3, #664]	@ 0x298

          /* Prepare endpoint for premature end of transfer */
          (void)USBD_LL_PrepareReceive(pdev, 0U, NULL, 0U);
 8007fa0:	2300      	movs	r3, #0
 8007fa2:	2200      	movs	r2, #0
 8007fa4:	2100      	movs	r1, #0
 8007fa6:	68f8      	ldr	r0, [r7, #12]
 8007fa8:	f001 fdd0 	bl	8009b4c <USBD_LL_PrepareReceive>
 8007fac:	e01c      	b.n	8007fe8 <USBD_LL_DataInStage+0xec>
        }
        else
        {
          if (pdev->dev_state == USBD_STATE_CONFIGURED)
 8007fae:	68fb      	ldr	r3, [r7, #12]
 8007fb0:	f893 329c 	ldrb.w	r3, [r3, #668]	@ 0x29c
 8007fb4:	b2db      	uxtb	r3, r3
 8007fb6:	2b03      	cmp	r3, #3
 8007fb8:	d10f      	bne.n	8007fda <USBD_LL_DataInStage+0xde>
          {
            if (pdev->pClass[0]->EP0_TxSent != NULL)
 8007fba:	68fb      	ldr	r3, [r7, #12]
 8007fbc:	f8d3 32b8 	ldr.w	r3, [r3, #696]	@ 0x2b8
 8007fc0:	68db      	ldr	r3, [r3, #12]
 8007fc2:	2b00      	cmp	r3, #0
 8007fc4:	d009      	beq.n	8007fda <USBD_LL_DataInStage+0xde>
            {
              pdev->classId = 0U;
 8007fc6:	68fb      	ldr	r3, [r7, #12]
 8007fc8:	2200      	movs	r2, #0
 8007fca:	f8c3 22d4 	str.w	r2, [r3, #724]	@ 0x2d4
              pdev->pClass[0]->EP0_TxSent(pdev);
 8007fce:	68fb      	ldr	r3, [r7, #12]
 8007fd0:	f8d3 32b8 	ldr.w	r3, [r3, #696]	@ 0x2b8
 8007fd4:	68db      	ldr	r3, [r3, #12]
 8007fd6:	68f8      	ldr	r0, [r7, #12]
 8007fd8:	4798      	blx	r3
            }
          }
          (void)USBD_LL_StallEP(pdev, 0x80U);
 8007fda:	2180      	movs	r1, #128	@ 0x80
 8007fdc:	68f8      	ldr	r0, [r7, #12]
 8007fde:	f001 fd0b 	bl	80099f8 <USBD_LL_StallEP>
          (void)USBD_CtlReceiveStatus(pdev);
 8007fe2:	68f8      	ldr	r0, [r7, #12]
 8007fe4:	f001 f8fc 	bl	80091e0 <USBD_CtlReceiveStatus>
        }
      }
    }

    if (pdev->dev_test_mode != 0U)
 8007fe8:	68fb      	ldr	r3, [r7, #12]
 8007fea:	f893 32a0 	ldrb.w	r3, [r3, #672]	@ 0x2a0
 8007fee:	2b00      	cmp	r3, #0
 8007ff0:	d03a      	beq.n	8008068 <USBD_LL_DataInStage+0x16c>
    {
      (void)USBD_RunTestMode(pdev);
 8007ff2:	68f8      	ldr	r0, [r7, #12]
 8007ff4:	f7ff fe30 	bl	8007c58 <USBD_RunTestMode>
      pdev->dev_test_mode = 0U;
 8007ff8:	68fb      	ldr	r3, [r7, #12]
 8007ffa:	2200      	movs	r2, #0
 8007ffc:	f883 22a0 	strb.w	r2, [r3, #672]	@ 0x2a0
 8008000:	e032      	b.n	8008068 <USBD_LL_DataInStage+0x16c>
    }
  }
  else
  {
    /* Get the class index relative to this interface */
    idx = USBD_CoreFindEP(pdev, ((uint8_t)epnum | 0x80U));
 8008002:	7afb      	ldrb	r3, [r7, #11]
 8008004:	f063 037f 	orn	r3, r3, #127	@ 0x7f
 8008008:	b2db      	uxtb	r3, r3
 800800a:	4619      	mov	r1, r3
 800800c:	68f8      	ldr	r0, [r7, #12]
 800800e:	f000 f986 	bl	800831e <USBD_CoreFindEP>
 8008012:	4603      	mov	r3, r0
 8008014:	75fb      	strb	r3, [r7, #23]

    if (((uint16_t)idx != 0xFFU) && (idx < USBD_MAX_SUPPORTED_CLASS))
 8008016:	7dfb      	ldrb	r3, [r7, #23]
 8008018:	2bff      	cmp	r3, #255	@ 0xff
 800801a:	d025      	beq.n	8008068 <USBD_LL_DataInStage+0x16c>
 800801c:	7dfb      	ldrb	r3, [r7, #23]
 800801e:	2b00      	cmp	r3, #0
 8008020:	d122      	bne.n	8008068 <USBD_LL_DataInStage+0x16c>
    {
      /* Call the class data out function to manage the request */
      if (pdev->dev_state == USBD_STATE_CONFIGURED)
 8008022:	68fb      	ldr	r3, [r7, #12]
 8008024:	f893 329c 	ldrb.w	r3, [r3, #668]	@ 0x29c
 8008028:	b2db      	uxtb	r3, r3
 800802a:	2b03      	cmp	r3, #3
 800802c:	d11c      	bne.n	8008068 <USBD_LL_DataInStage+0x16c>
      {
        if (pdev->pClass[idx]->DataIn != NULL)
 800802e:	7dfa      	ldrb	r2, [r7, #23]
 8008030:	68fb      	ldr	r3, [r7, #12]
 8008032:	32ae      	adds	r2, #174	@ 0xae
 8008034:	f853 3022 	ldr.w	r3, [r3, r2, lsl #2]
 8008038:	695b      	ldr	r3, [r3, #20]
 800803a:	2b00      	cmp	r3, #0
 800803c:	d014      	beq.n	8008068 <USBD_LL_DataInStage+0x16c>
        {
          pdev->classId = idx;
 800803e:	7dfa      	ldrb	r2, [r7, #23]
 8008040:	68fb      	ldr	r3, [r7, #12]
 8008042:	f8c3 22d4 	str.w	r2, [r3, #724]	@ 0x2d4
          ret = (USBD_StatusTypeDef)pdev->pClass[idx]->DataIn(pdev, epnum);
 8008046:	7dfa      	ldrb	r2, [r7, #23]
 8008048:	68fb      	ldr	r3, [r7, #12]
 800804a:	32ae      	adds	r2, #174	@ 0xae
 800804c:	f853 3022 	ldr.w	r3, [r3, r2, lsl #2]
 8008050:	695b      	ldr	r3, [r3, #20]
 8008052:	7afa      	ldrb	r2, [r7, #11]
 8008054:	4611      	mov	r1, r2
 8008056:	68f8      	ldr	r0, [r7, #12]
 8008058:	4798      	blx	r3
 800805a:	4603      	mov	r3, r0
 800805c:	75bb      	strb	r3, [r7, #22]

          if (ret != USBD_OK)
 800805e:	7dbb      	ldrb	r3, [r7, #22]
 8008060:	2b00      	cmp	r3, #0
 8008062:	d001      	beq.n	8008068 <USBD_LL_DataInStage+0x16c>
          {
            return ret;
 8008064:	7dbb      	ldrb	r3, [r7, #22]
 8008066:	e000      	b.n	800806a <USBD_LL_DataInStage+0x16e>
        }
      }
    }
  }

  return USBD_OK;
 8008068:	2300      	movs	r3, #0
}
 800806a:	4618      	mov	r0, r3
 800806c:	3718      	adds	r7, #24
 800806e:	46bd      	mov	sp, r7
 8008070:	bd80      	pop	{r7, pc}

08008072 <USBD_LL_Reset>:
  *         Handle Reset event
  * @param  pdev: device instance
  * @retval status
  */
USBD_StatusTypeDef USBD_LL_Reset(USBD_HandleTypeDef *pdev)
{
 8008072:	b580      	push	{r7, lr}
 8008074:	b084      	sub	sp, #16
 8008076:	af00      	add	r7, sp, #0
 8008078:	6078      	str	r0, [r7, #4]
  USBD_StatusTypeDef ret = USBD_OK;
 800807a:	2300      	movs	r3, #0
 800807c:	73fb      	strb	r3, [r7, #15]

  /* Upon Reset call user call back */
  pdev->dev_state = USBD_STATE_DEFAULT;
 800807e:	687b      	ldr	r3, [r7, #4]
 8008080:	2201      	movs	r2, #1
 8008082:	f883 229c 	strb.w	r2, [r3, #668]	@ 0x29c
  pdev->ep0_state = USBD_EP0_IDLE;
 8008086:	687b      	ldr	r3, [r7, #4]
 8008088:	2200      	movs	r2, #0
 800808a:	f8c3 2294 	str.w	r2, [r3, #660]	@ 0x294
  pdev->dev_config = 0U;
 800808e:	687b      	ldr	r3, [r7, #4]
 8008090:	2200      	movs	r2, #0
 8008092:	605a      	str	r2, [r3, #4]
  pdev->dev_remote_wakeup = 0U;
 8008094:	687b      	ldr	r3, [r7, #4]
 8008096:	2200      	movs	r2, #0
 8008098:	f8c3 22a4 	str.w	r2, [r3, #676]	@ 0x2a4
  pdev->dev_test_mode = 0U;
 800809c:	687b      	ldr	r3, [r7, #4]
 800809e:	2200      	movs	r2, #0
 80080a0:	f883 22a0 	strb.w	r2, [r3, #672]	@ 0x2a0
      }
    }
  }
#else

  if (pdev->pClass[0] != NULL)
 80080a4:	687b      	ldr	r3, [r7, #4]
 80080a6:	f8d3 32b8 	ldr.w	r3, [r3, #696]	@ 0x2b8
 80080aa:	2b00      	cmp	r3, #0
 80080ac:	d014      	beq.n	80080d8 <USBD_LL_Reset+0x66>
  {
    if (pdev->pClass[0]->DeInit != NULL)
 80080ae:	687b      	ldr	r3, [r7, #4]
 80080b0:	f8d3 32b8 	ldr.w	r3, [r3, #696]	@ 0x2b8
 80080b4:	685b      	ldr	r3, [r3, #4]
 80080b6:	2b00      	cmp	r3, #0
 80080b8:	d00e      	beq.n	80080d8 <USBD_LL_Reset+0x66>
    {
      if (pdev->pClass[0]->DeInit(pdev, (uint8_t)pdev->dev_config) != USBD_OK)
 80080ba:	687b      	ldr	r3, [r7, #4]
 80080bc:	f8d3 32b8 	ldr.w	r3, [r3, #696]	@ 0x2b8
 80080c0:	685b      	ldr	r3, [r3, #4]
 80080c2:	687a      	ldr	r2, [r7, #4]
 80080c4:	6852      	ldr	r2, [r2, #4]
 80080c6:	b2d2      	uxtb	r2, r2
 80080c8:	4611      	mov	r1, r2
 80080ca:	6878      	ldr	r0, [r7, #4]
 80080cc:	4798      	blx	r3
 80080ce:	4603      	mov	r3, r0
 80080d0:	2b00      	cmp	r3, #0
 80080d2:	d001      	beq.n	80080d8 <USBD_LL_Reset+0x66>
      {
        ret = USBD_FAIL;
 80080d4:	2303      	movs	r3, #3
 80080d6:	73fb      	strb	r3, [r7, #15]
    }
  }
#endif /* USE_USBD_COMPOSITE */

  /* Open EP0 OUT */
  (void)USBD_LL_OpenEP(pdev, 0x00U, USBD_EP_TYPE_CTRL, USB_MAX_EP0_SIZE);
 80080d8:	2340      	movs	r3, #64	@ 0x40
 80080da:	2200      	movs	r2, #0
 80080dc:	2100      	movs	r1, #0
 80080de:	6878      	ldr	r0, [r7, #4]
 80080e0:	f001 fc45 	bl	800996e <USBD_LL_OpenEP>
  pdev->ep_out[0x00U & 0xFU].is_used = 1U;
 80080e4:	687b      	ldr	r3, [r7, #4]
 80080e6:	2201      	movs	r2, #1
 80080e8:	f883 2163 	strb.w	r2, [r3, #355]	@ 0x163

  pdev->ep_out[0].maxpacket = USB_MAX_EP0_SIZE;
 80080ec:	687b      	ldr	r3, [r7, #4]
 80080ee:	2240      	movs	r2, #64	@ 0x40
 80080f0:	f8a3 2160 	strh.w	r2, [r3, #352]	@ 0x160

  /* Open EP0 IN */
  (void)USBD_LL_OpenEP(pdev, 0x80U, USBD_EP_TYPE_CTRL, USB_MAX_EP0_SIZE);
 80080f4:	2340      	movs	r3, #64	@ 0x40
 80080f6:	2200      	movs	r2, #0
 80080f8:	2180      	movs	r1, #128	@ 0x80
 80080fa:	6878      	ldr	r0, [r7, #4]
 80080fc:	f001 fc37 	bl	800996e <USBD_LL_OpenEP>
  pdev->ep_in[0x80U & 0xFU].is_used = 1U;
 8008100:	687b      	ldr	r3, [r7, #4]
 8008102:	2201      	movs	r2, #1
 8008104:	f883 2023 	strb.w	r2, [r3, #35]	@ 0x23

  pdev->ep_in[0].maxpacket = USB_MAX_EP0_SIZE;
 8008108:	687b      	ldr	r3, [r7, #4]
 800810a:	2240      	movs	r2, #64	@ 0x40
 800810c:	841a      	strh	r2, [r3, #32]

  return ret;
 800810e:	7bfb      	ldrb	r3, [r7, #15]
}
 8008110:	4618      	mov	r0, r3
 8008112:	3710      	adds	r7, #16
 8008114:	46bd      	mov	sp, r7
 8008116:	bd80      	pop	{r7, pc}

08008118 <USBD_LL_SetSpeed>:
  * @param  pdev: device instance
  * @retval status
  */
USBD_StatusTypeDef USBD_LL_SetSpeed(USBD_HandleTypeDef *pdev,
                                    USBD_SpeedTypeDef speed)
{
 8008118:	b480      	push	{r7}
 800811a:	b083      	sub	sp, #12
 800811c:	af00      	add	r7, sp, #0
 800811e:	6078      	str	r0, [r7, #4]
 8008120:	460b      	mov	r3, r1
 8008122:	70fb      	strb	r3, [r7, #3]
  pdev->dev_speed = speed;
 8008124:	687b      	ldr	r3, [r7, #4]
 8008126:	78fa      	ldrb	r2, [r7, #3]
 8008128:	741a      	strb	r2, [r3, #16]

  return USBD_OK;
 800812a:	2300      	movs	r3, #0
}
 800812c:	4618      	mov	r0, r3
 800812e:	370c      	adds	r7, #12
 8008130:	46bd      	mov	sp, r7
 8008132:	f85d 7b04 	ldr.w	r7, [sp], #4
 8008136:	4770      	bx	lr

08008138 <USBD_LL_Suspend>:
  *         Handle Suspend event
  * @param  pdev: device instance
  * @retval status
  */
USBD_StatusTypeDef USBD_LL_Suspend(USBD_HandleTypeDef *pdev)
{
 8008138:	b480      	push	{r7}
 800813a:	b083      	sub	sp, #12
 800813c:	af00      	add	r7, sp, #0
 800813e:	6078      	str	r0, [r7, #4]
  if (pdev->dev_state != USBD_STATE_SUSPENDED)
 8008140:	687b      	ldr	r3, [r7, #4]
 8008142:	f893 329c 	ldrb.w	r3, [r3, #668]	@ 0x29c
 8008146:	b2db      	uxtb	r3, r3
 8008148:	2b04      	cmp	r3, #4
 800814a:	d006      	beq.n	800815a <USBD_LL_Suspend+0x22>
  {
    pdev->dev_old_state = pdev->dev_state;
 800814c:	687b      	ldr	r3, [r7, #4]
 800814e:	f893 329c 	ldrb.w	r3, [r3, #668]	@ 0x29c
 8008152:	b2da      	uxtb	r2, r3
 8008154:	687b      	ldr	r3, [r7, #4]
 8008156:	f883 229d 	strb.w	r2, [r3, #669]	@ 0x29d
  }

  pdev->dev_state = USBD_STATE_SUSPENDED;
 800815a:	687b      	ldr	r3, [r7, #4]
 800815c:	2204      	movs	r2, #4
 800815e:	f883 229c 	strb.w	r2, [r3, #668]	@ 0x29c

  return USBD_OK;
 8008162:	2300      	movs	r3, #0
}
 8008164:	4618      	mov	r0, r3
 8008166:	370c      	adds	r7, #12
 8008168:	46bd      	mov	sp, r7
 800816a:	f85d 7b04 	ldr.w	r7, [sp], #4
 800816e:	4770      	bx	lr

08008170 <USBD_LL_Resume>:
  *         Handle Resume event
  * @param  pdev: device instance
  * @retval status
  */
USBD_StatusTypeDef USBD_LL_Resume(USBD_HandleTypeDef *pdev)
{
 8008170:	b480      	push	{r7}
 8008172:	b083      	sub	sp, #12
 8008174:	af00      	add	r7, sp, #0
 8008176:	6078      	str	r0, [r7, #4]
  if (pdev->dev_state == USBD_STATE_SUSPENDED)
 8008178:	687b      	ldr	r3, [r7, #4]
 800817a:	f893 329c 	ldrb.w	r3, [r3, #668]	@ 0x29c
 800817e:	b2db      	uxtb	r3, r3
 8008180:	2b04      	cmp	r3, #4
 8008182:	d106      	bne.n	8008192 <USBD_LL_Resume+0x22>
  {
    pdev->dev_state = pdev->dev_old_state;
 8008184:	687b      	ldr	r3, [r7, #4]
 8008186:	f893 329d 	ldrb.w	r3, [r3, #669]	@ 0x29d
 800818a:	b2da      	uxtb	r2, r3
 800818c:	687b      	ldr	r3, [r7, #4]
 800818e:	f883 229c 	strb.w	r2, [r3, #668]	@ 0x29c
  }

  return USBD_OK;
 8008192:	2300      	movs	r3, #0
}
 8008194:	4618      	mov	r0, r3
 8008196:	370c      	adds	r7, #12
 8008198:	46bd      	mov	sp, r7
 800819a:	f85d 7b04 	ldr.w	r7, [sp], #4
 800819e:	4770      	bx	lr

080081a0 <USBD_LL_SOF>:
  *         Handle SOF event
  * @param  pdev: device instance
  * @retval status
  */
USBD_StatusTypeDef USBD_LL_SOF(USBD_HandleTypeDef *pdev)
{
 80081a0:	b580      	push	{r7, lr}
 80081a2:	b082      	sub	sp, #8
 80081a4:	af00      	add	r7, sp, #0
 80081a6:	6078      	str	r0, [r7, #4]
  /* The SOF event can be distributed for all classes that support it */
  if (pdev->dev_state == USBD_STATE_CONFIGURED)
 80081a8:	687b      	ldr	r3, [r7, #4]
 80081aa:	f893 329c 	ldrb.w	r3, [r3, #668]	@ 0x29c
 80081ae:	b2db      	uxtb	r3, r3
 80081b0:	2b03      	cmp	r3, #3
 80081b2:	d110      	bne.n	80081d6 <USBD_LL_SOF+0x36>
          }
        }
      }
    }
#else
    if (pdev->pClass[0] != NULL)
 80081b4:	687b      	ldr	r3, [r7, #4]
 80081b6:	f8d3 32b8 	ldr.w	r3, [r3, #696]	@ 0x2b8
 80081ba:	2b00      	cmp	r3, #0
 80081bc:	d00b      	beq.n	80081d6 <USBD_LL_SOF+0x36>
    {
      if (pdev->pClass[0]->SOF != NULL)
 80081be:	687b      	ldr	r3, [r7, #4]
 80081c0:	f8d3 32b8 	ldr.w	r3, [r3, #696]	@ 0x2b8
 80081c4:	69db      	ldr	r3, [r3, #28]
 80081c6:	2b00      	cmp	r3, #0
 80081c8:	d005      	beq.n	80081d6 <USBD_LL_SOF+0x36>
      {
        (void)pdev->pClass[0]->SOF(pdev);
 80081ca:	687b      	ldr	r3, [r7, #4]
 80081cc:	f8d3 32b8 	ldr.w	r3, [r3, #696]	@ 0x2b8
 80081d0:	69db      	ldr	r3, [r3, #28]
 80081d2:	6878      	ldr	r0, [r7, #4]
 80081d4:	4798      	blx	r3
      }
    }
#endif /* USE_USBD_COMPOSITE */
  }

  return USBD_OK;
 80081d6:	2300      	movs	r3, #0
}
 80081d8:	4618      	mov	r0, r3
 80081da:	3708      	adds	r7, #8
 80081dc:	46bd      	mov	sp, r7
 80081de:	bd80      	pop	{r7, pc}

080081e0 <USBD_LL_IsoINIncomplete>:
  * @param  epnum: Endpoint number
  * @retval status
  */
USBD_StatusTypeDef USBD_LL_IsoINIncomplete(USBD_HandleTypeDef *pdev,
                                           uint8_t epnum)
{
 80081e0:	b580      	push	{r7, lr}
 80081e2:	b082      	sub	sp, #8
 80081e4:	af00      	add	r7, sp, #0
 80081e6:	6078      	str	r0, [r7, #4]
 80081e8:	460b      	mov	r3, r1
 80081ea:	70fb      	strb	r3, [r7, #3]
  if (pdev->pClass[pdev->classId] == NULL)
 80081ec:	687b      	ldr	r3, [r7, #4]
 80081ee:	f8d3 22d4 	ldr.w	r2, [r3, #724]	@ 0x2d4
 80081f2:	687b      	ldr	r3, [r7, #4]
 80081f4:	32ae      	adds	r2, #174	@ 0xae
 80081f6:	f853 3022 	ldr.w	r3, [r3, r2, lsl #2]
 80081fa:	2b00      	cmp	r3, #0
 80081fc:	d101      	bne.n	8008202 <USBD_LL_IsoINIncomplete+0x22>
  {
    return USBD_FAIL;
 80081fe:	2303      	movs	r3, #3
 8008200:	e01c      	b.n	800823c <USBD_LL_IsoINIncomplete+0x5c>
  }

  if (pdev->dev_state == USBD_STATE_CONFIGURED)
 8008202:	687b      	ldr	r3, [r7, #4]
 8008204:	f893 329c 	ldrb.w	r3, [r3, #668]	@ 0x29c
 8008208:	b2db      	uxtb	r3, r3
 800820a:	2b03      	cmp	r3, #3
 800820c:	d115      	bne.n	800823a <USBD_LL_IsoINIncomplete+0x5a>
  {
    if (pdev->pClass[pdev->classId]->IsoINIncomplete != NULL)
 800820e:	687b      	ldr	r3, [r7, #4]
 8008210:	f8d3 22d4 	ldr.w	r2, [r3, #724]	@ 0x2d4
 8008214:	687b      	ldr	r3, [r7, #4]
 8008216:	32ae      	adds	r2, #174	@ 0xae
 8008218:	f853 3022 	ldr.w	r3, [r3, r2, lsl #2]
 800821c:	6a1b      	ldr	r3, [r3, #32]
 800821e:	2b00      	cmp	r3, #0
 8008220:	d00b      	beq.n	800823a <USBD_LL_IsoINIncomplete+0x5a>
    {
      (void)pdev->pClass[pdev->classId]->IsoINIncomplete(pdev, epnum);
 8008222:	687b      	ldr	r3, [r7, #4]
 8008224:	f8d3 22d4 	ldr.w	r2, [r3, #724]	@ 0x2d4
 8008228:	687b      	ldr	r3, [r7, #4]
 800822a:	32ae      	adds	r2, #174	@ 0xae
 800822c:	f853 3022 	ldr.w	r3, [r3, r2, lsl #2]
 8008230:	6a1b      	ldr	r3, [r3, #32]
 8008232:	78fa      	ldrb	r2, [r7, #3]
 8008234:	4611      	mov	r1, r2
 8008236:	6878      	ldr	r0, [r7, #4]
 8008238:	4798      	blx	r3
    }
  }

  return USBD_OK;
 800823a:	2300      	movs	r3, #0
}
 800823c:	4618      	mov	r0, r3
 800823e:	3708      	adds	r7, #8
 8008240:	46bd      	mov	sp, r7
 8008242:	bd80      	pop	{r7, pc}

08008244 <USBD_LL_IsoOUTIncomplete>:
  * @param  epnum: Endpoint number
  * @retval status
  */
USBD_StatusTypeDef USBD_LL_IsoOUTIncomplete(USBD_HandleTypeDef *pdev,
                                            uint8_t epnum)
{
 8008244:	b580      	push	{r7, lr}
 8008246:	b082      	sub	sp, #8
 8008248:	af00      	add	r7, sp, #0
 800824a:	6078      	str	r0, [r7, #4]
 800824c:	460b      	mov	r3, r1
 800824e:	70fb      	strb	r3, [r7, #3]
  if (pdev->pClass[pdev->classId] == NULL)
 8008250:	687b      	ldr	r3, [r7, #4]
 8008252:	f8d3 22d4 	ldr.w	r2, [r3, #724]	@ 0x2d4
 8008256:	687b      	ldr	r3, [r7, #4]
 8008258:	32ae      	adds	r2, #174	@ 0xae
 800825a:	f853 3022 	ldr.w	r3, [r3, r2, lsl #2]
 800825e:	2b00      	cmp	r3, #0
 8008260:	d101      	bne.n	8008266 <USBD_LL_IsoOUTIncomplete+0x22>
  {
    return USBD_FAIL;
 8008262:	2303      	movs	r3, #3
 8008264:	e01c      	b.n	80082a0 <USBD_LL_IsoOUTIncomplete+0x5c>
  }

  if (pdev->dev_state == USBD_STATE_CONFIGURED)
 8008266:	687b      	ldr	r3, [r7, #4]
 8008268:	f893 329c 	ldrb.w	r3, [r3, #668]	@ 0x29c
 800826c:	b2db      	uxtb	r3, r3
 800826e:	2b03      	cmp	r3, #3
 8008270:	d115      	bne.n	800829e <USBD_LL_IsoOUTIncomplete+0x5a>
  {
    if (pdev->pClass[pdev->classId]->IsoOUTIncomplete != NULL)
 8008272:	687b      	ldr	r3, [r7, #4]
 8008274:	f8d3 22d4 	ldr.w	r2, [r3, #724]	@ 0x2d4
 8008278:	687b      	ldr	r3, [r7, #4]
 800827a:	32ae      	adds	r2, #174	@ 0xae
 800827c:	f853 3022 	ldr.w	r3, [r3, r2, lsl #2]
 8008280:	6a5b      	ldr	r3, [r3, #36]	@ 0x24
 8008282:	2b00      	cmp	r3, #0
 8008284:	d00b      	beq.n	800829e <USBD_LL_IsoOUTIncomplete+0x5a>
    {
      (void)pdev->pClass[pdev->classId]->IsoOUTIncomplete(pdev, epnum);
 8008286:	687b      	ldr	r3, [r7, #4]
 8008288:	f8d3 22d4 	ldr.w	r2, [r3, #724]	@ 0x2d4
 800828c:	687b      	ldr	r3, [r7, #4]
 800828e:	32ae      	adds	r2, #174	@ 0xae
 8008290:	f853 3022 	ldr.w	r3, [r3, r2, lsl #2]
 8008294:	6a5b      	ldr	r3, [r3, #36]	@ 0x24
 8008296:	78fa      	ldrb	r2, [r7, #3]
 8008298:	4611      	mov	r1, r2
 800829a:	6878      	ldr	r0, [r7, #4]
 800829c:	4798      	blx	r3
    }
  }

  return USBD_OK;
 800829e:	2300      	movs	r3, #0
}
 80082a0:	4618      	mov	r0, r3
 80082a2:	3708      	adds	r7, #8
 80082a4:	46bd      	mov	sp, r7
 80082a6:	bd80      	pop	{r7, pc}

080082a8 <USBD_LL_DevConnected>:
  *         Handle device connection event
  * @param  pdev: device instance
  * @retval status
  */
USBD_StatusTypeDef USBD_LL_DevConnected(USBD_HandleTypeDef *pdev)
{
 80082a8:	b480      	push	{r7}
 80082aa:	b083      	sub	sp, #12
 80082ac:	af00      	add	r7, sp, #0
 80082ae:	6078      	str	r0, [r7, #4]
  /* Prevent unused argument compilation warning */
  UNUSED(pdev);

  return USBD_OK;
 80082b0:	2300      	movs	r3, #0
}
 80082b2:	4618      	mov	r0, r3
 80082b4:	370c      	adds	r7, #12
 80082b6:	46bd      	mov	sp, r7
 80082b8:	f85d 7b04 	ldr.w	r7, [sp], #4
 80082bc:	4770      	bx	lr

080082be <USBD_LL_DevDisconnected>:
  *         Handle device disconnection event
  * @param  pdev: device instance
  * @retval status
  */
USBD_StatusTypeDef USBD_LL_DevDisconnected(USBD_HandleTypeDef *pdev)
{
 80082be:	b580      	push	{r7, lr}
 80082c0:	b084      	sub	sp, #16
 80082c2:	af00      	add	r7, sp, #0
 80082c4:	6078      	str	r0, [r7, #4]
  USBD_StatusTypeDef   ret = USBD_OK;
 80082c6:	2300      	movs	r3, #0
 80082c8:	73fb      	strb	r3, [r7, #15]

  /* Free Class Resources */
  pdev->dev_state = USBD_STATE_DEFAULT;
 80082ca:	687b      	ldr	r3, [r7, #4]
 80082cc:	2201      	movs	r2, #1
 80082ce:	f883 229c 	strb.w	r2, [r3, #668]	@ 0x29c
        }
      }
    }
  }
#else
  if (pdev->pClass[0] != NULL)
 80082d2:	687b      	ldr	r3, [r7, #4]
 80082d4:	f8d3 32b8 	ldr.w	r3, [r3, #696]	@ 0x2b8
 80082d8:	2b00      	cmp	r3, #0
 80082da:	d00e      	beq.n	80082fa <USBD_LL_DevDisconnected+0x3c>
  {
    if (pdev->pClass[0]->DeInit(pdev, (uint8_t)pdev->dev_config) != 0U)
 80082dc:	687b      	ldr	r3, [r7, #4]
 80082de:	f8d3 32b8 	ldr.w	r3, [r3, #696]	@ 0x2b8
 80082e2:	685b      	ldr	r3, [r3, #4]
 80082e4:	687a      	ldr	r2, [r7, #4]
 80082e6:	6852      	ldr	r2, [r2, #4]
 80082e8:	b2d2      	uxtb	r2, r2
 80082ea:	4611      	mov	r1, r2
 80082ec:	6878      	ldr	r0, [r7, #4]
 80082ee:	4798      	blx	r3
 80082f0:	4603      	mov	r3, r0
 80082f2:	2b00      	cmp	r3, #0
 80082f4:	d001      	beq.n	80082fa <USBD_LL_DevDisconnected+0x3c>
    {
      ret = USBD_FAIL;
 80082f6:	2303      	movs	r3, #3
 80082f8:	73fb      	strb	r3, [r7, #15]
    }
  }
#endif /* USE_USBD_COMPOSITE */

  return ret;
 80082fa:	7bfb      	ldrb	r3, [r7, #15]
}
 80082fc:	4618      	mov	r0, r3
 80082fe:	3710      	adds	r7, #16
 8008300:	46bd      	mov	sp, r7
 8008302:	bd80      	pop	{r7, pc}

08008304 <USBD_CoreFindIF>:
  * @param  pdev: device instance
  * @param  index : selected interface number
  * @retval index of the class using the selected interface number. OxFF if no class found.
  */
uint8_t USBD_CoreFindIF(USBD_HandleTypeDef *pdev, uint8_t index)
{
 8008304:	b480      	push	{r7}
 8008306:	b083      	sub	sp, #12
 8008308:	af00      	add	r7, sp, #0
 800830a:	6078      	str	r0, [r7, #4]
 800830c:	460b      	mov	r3, r1
 800830e:	70fb      	strb	r3, [r7, #3]
  return 0xFFU;
#else
  UNUSED(pdev);
  UNUSED(index);

  return 0x00U;
 8008310:	2300      	movs	r3, #0
#endif /* USE_USBD_COMPOSITE */
}
 8008312:	4618      	mov	r0, r3
 8008314:	370c      	adds	r7, #12
 8008316:	46bd      	mov	sp, r7
 8008318:	f85d 7b04 	ldr.w	r7, [sp], #4
 800831c:	4770      	bx	lr

0800831e <USBD_CoreFindEP>:
  * @param  pdev: device instance
  * @param  index : selected endpoint number
  * @retval index of the class using the selected endpoint number. 0xFF if no class found.
  */
uint8_t USBD_CoreFindEP(USBD_HandleTypeDef *pdev, uint8_t index)
{
 800831e:	b480      	push	{r7}
 8008320:	b083      	sub	sp, #12
 8008322:	af00      	add	r7, sp, #0
 8008324:	6078      	str	r0, [r7, #4]
 8008326:	460b      	mov	r3, r1
 8008328:	70fb      	strb	r3, [r7, #3]
  return 0xFFU;
#else
  UNUSED(pdev);
  UNUSED(index);

  return 0x00U;
 800832a:	2300      	movs	r3, #0
#endif /* USE_USBD_COMPOSITE */
}
 800832c:	4618      	mov	r0, r3
 800832e:	370c      	adds	r7, #12
 8008330:	46bd      	mov	sp, r7
 8008332:	f85d 7b04 	ldr.w	r7, [sp], #4
 8008336:	4770      	bx	lr

08008338 <USBD_GetEpDesc>:
  * @param  pConfDesc:  pointer to Bos descriptor
  * @param  EpAddr:  endpoint address
  * @retval pointer to video endpoint descriptor
  */
void *USBD_GetEpDesc(uint8_t *pConfDesc, uint8_t EpAddr)
{
 8008338:	b580      	push	{r7, lr}
 800833a:	b086      	sub	sp, #24
 800833c:	af00      	add	r7, sp, #0
 800833e:	6078      	str	r0, [r7, #4]
 8008340:	460b      	mov	r3, r1
 8008342:	70fb      	strb	r3, [r7, #3]
  USBD_DescHeaderTypeDef *pdesc = (USBD_DescHeaderTypeDef *)(void *)pConfDesc;
 8008344:	687b      	ldr	r3, [r7, #4]
 8008346:	617b      	str	r3, [r7, #20]
  USBD_ConfigDescTypeDef *desc = (USBD_ConfigDescTypeDef *)(void *)pConfDesc;
 8008348:	687b      	ldr	r3, [r7, #4]
 800834a:	60fb      	str	r3, [r7, #12]
  USBD_EpDescTypeDef *pEpDesc = NULL;
 800834c:	2300      	movs	r3, #0
 800834e:	613b      	str	r3, [r7, #16]
  uint16_t ptr;

  if (desc->wTotalLength > desc->bLength)
 8008350:	68fb      	ldr	r3, [r7, #12]
 8008352:	885b      	ldrh	r3, [r3, #2]
 8008354:	b29b      	uxth	r3, r3
 8008356:	68fa      	ldr	r2, [r7, #12]
 8008358:	7812      	ldrb	r2, [r2, #0]
 800835a:	4293      	cmp	r3, r2
 800835c:	d91f      	bls.n	800839e <USBD_GetEpDesc+0x66>
  {
    ptr = desc->bLength;
 800835e:	68fb      	ldr	r3, [r7, #12]
 8008360:	781b      	ldrb	r3, [r3, #0]
 8008362:	817b      	strh	r3, [r7, #10]

    while (ptr < desc->wTotalLength)
 8008364:	e013      	b.n	800838e <USBD_GetEpDesc+0x56>
    {
      pdesc = USBD_GetNextDesc((uint8_t *)pdesc, &ptr);
 8008366:	f107 030a 	add.w	r3, r7, #10
 800836a:	4619      	mov	r1, r3
 800836c:	6978      	ldr	r0, [r7, #20]
 800836e:	f000 f81b 	bl	80083a8 <USBD_GetNextDesc>
 8008372:	6178      	str	r0, [r7, #20]

      if (pdesc->bDescriptorType == USB_DESC_TYPE_ENDPOINT)
 8008374:	697b      	ldr	r3, [r7, #20]
 8008376:	785b      	ldrb	r3, [r3, #1]
 8008378:	2b05      	cmp	r3, #5
 800837a:	d108      	bne.n	800838e <USBD_GetEpDesc+0x56>
      {
        pEpDesc = (USBD_EpDescTypeDef *)(void *)pdesc;
 800837c:	697b      	ldr	r3, [r7, #20]
 800837e:	613b      	str	r3, [r7, #16]

        if (pEpDesc->bEndpointAddress == EpAddr)
 8008380:	693b      	ldr	r3, [r7, #16]
 8008382:	789b      	ldrb	r3, [r3, #2]
 8008384:	78fa      	ldrb	r2, [r7, #3]
 8008386:	429a      	cmp	r2, r3
 8008388:	d008      	beq.n	800839c <USBD_GetEpDesc+0x64>
        {
          break;
        }
        else
        {
          pEpDesc = NULL;
 800838a:	2300      	movs	r3, #0
 800838c:	613b      	str	r3, [r7, #16]
    while (ptr < desc->wTotalLength)
 800838e:	68fb      	ldr	r3, [r7, #12]
 8008390:	885b      	ldrh	r3, [r3, #2]
 8008392:	b29a      	uxth	r2, r3
 8008394:	897b      	ldrh	r3, [r7, #10]
 8008396:	429a      	cmp	r2, r3
 8008398:	d8e5      	bhi.n	8008366 <USBD_GetEpDesc+0x2e>
 800839a:	e000      	b.n	800839e <USBD_GetEpDesc+0x66>
          break;
 800839c:	bf00      	nop
        }
      }
    }
  }

  return (void *)pEpDesc;
 800839e:	693b      	ldr	r3, [r7, #16]
}
 80083a0:	4618      	mov	r0, r3
 80083a2:	3718      	adds	r7, #24
 80083a4:	46bd      	mov	sp, r7
 80083a6:	bd80      	pop	{r7, pc}

080083a8 <USBD_GetNextDesc>:
  * @param  buf: Buffer where the descriptor is available
  * @param  ptr: data pointer inside the descriptor
  * @retval next header
  */
USBD_DescHeaderTypeDef *USBD_GetNextDesc(uint8_t *pbuf, uint16_t *ptr)
{
 80083a8:	b480      	push	{r7}
 80083aa:	b085      	sub	sp, #20
 80083ac:	af00      	add	r7, sp, #0
 80083ae:	6078      	str	r0, [r7, #4]
 80083b0:	6039      	str	r1, [r7, #0]
  USBD_DescHeaderTypeDef *pnext = (USBD_DescHeaderTypeDef *)(void *)pbuf;
 80083b2:	687b      	ldr	r3, [r7, #4]
 80083b4:	60fb      	str	r3, [r7, #12]

  *ptr += pnext->bLength;
 80083b6:	683b      	ldr	r3, [r7, #0]
 80083b8:	881b      	ldrh	r3, [r3, #0]
 80083ba:	68fa      	ldr	r2, [r7, #12]
 80083bc:	7812      	ldrb	r2, [r2, #0]
 80083be:	4413      	add	r3, r2
 80083c0:	b29a      	uxth	r2, r3
 80083c2:	683b      	ldr	r3, [r7, #0]
 80083c4:	801a      	strh	r2, [r3, #0]
  pnext = (USBD_DescHeaderTypeDef *)(void *)(pbuf + pnext->bLength);
 80083c6:	68fb      	ldr	r3, [r7, #12]
 80083c8:	781b      	ldrb	r3, [r3, #0]
 80083ca:	461a      	mov	r2, r3
 80083cc:	687b      	ldr	r3, [r7, #4]
 80083ce:	4413      	add	r3, r2
 80083d0:	60fb      	str	r3, [r7, #12]

  return (pnext);
 80083d2:	68fb      	ldr	r3, [r7, #12]
}
 80083d4:	4618      	mov	r0, r3
 80083d6:	3714      	adds	r7, #20
 80083d8:	46bd      	mov	sp, r7
 80083da:	f85d 7b04 	ldr.w	r7, [sp], #4
 80083de:	4770      	bx	lr

080083e0 <SWAPBYTE>:

/** @defgroup USBD_DEF_Exported_Macros
  * @{
  */
__STATIC_INLINE uint16_t SWAPBYTE(uint8_t *addr)
{
 80083e0:	b480      	push	{r7}
 80083e2:	b087      	sub	sp, #28
 80083e4:	af00      	add	r7, sp, #0
 80083e6:	6078      	str	r0, [r7, #4]
  uint16_t _SwapVal;
  uint16_t _Byte1;
  uint16_t _Byte2;
  uint8_t *_pbuff = addr;
 80083e8:	687b      	ldr	r3, [r7, #4]
 80083ea:	617b      	str	r3, [r7, #20]

  _Byte1 = *(uint8_t *)_pbuff;
 80083ec:	697b      	ldr	r3, [r7, #20]
 80083ee:	781b      	ldrb	r3, [r3, #0]
 80083f0:	827b      	strh	r3, [r7, #18]
  _pbuff++;
 80083f2:	697b      	ldr	r3, [r7, #20]
 80083f4:	3301      	adds	r3, #1
 80083f6:	617b      	str	r3, [r7, #20]
  _Byte2 = *(uint8_t *)_pbuff;
 80083f8:	697b      	ldr	r3, [r7, #20]
 80083fa:	781b      	ldrb	r3, [r3, #0]
 80083fc:	823b      	strh	r3, [r7, #16]

  _SwapVal = (_Byte2 << 8) | _Byte1;
 80083fe:	f9b7 3010 	ldrsh.w	r3, [r7, #16]
 8008402:	021b      	lsls	r3, r3, #8
 8008404:	b21a      	sxth	r2, r3
 8008406:	f9b7 3012 	ldrsh.w	r3, [r7, #18]
 800840a:	4313      	orrs	r3, r2
 800840c:	b21b      	sxth	r3, r3
 800840e:	81fb      	strh	r3, [r7, #14]

  return _SwapVal;
 8008410:	89fb      	ldrh	r3, [r7, #14]
}
 8008412:	4618      	mov	r0, r3
 8008414:	371c      	adds	r7, #28
 8008416:	46bd      	mov	sp, r7
 8008418:	f85d 7b04 	ldr.w	r7, [sp], #4
 800841c:	4770      	bx	lr
	...

08008420 <USBD_StdDevReq>:
  * @param  pdev: device instance
  * @param  req: usb request
  * @retval status
  */
USBD_StatusTypeDef USBD_StdDevReq(USBD_HandleTypeDef *pdev, USBD_SetupReqTypedef *req)
{
 8008420:	b580      	push	{r7, lr}
 8008422:	b084      	sub	sp, #16
 8008424:	af00      	add	r7, sp, #0
 8008426:	6078      	str	r0, [r7, #4]
 8008428:	6039      	str	r1, [r7, #0]
  USBD_StatusTypeDef ret = USBD_OK;
 800842a:	2300      	movs	r3, #0
 800842c:	73fb      	strb	r3, [r7, #15]

  switch (req->bmRequest & USB_REQ_TYPE_MASK)
 800842e:	683b      	ldr	r3, [r7, #0]
 8008430:	781b      	ldrb	r3, [r3, #0]
 8008432:	f003 0360 	and.w	r3, r3, #96	@ 0x60
 8008436:	2b40      	cmp	r3, #64	@ 0x40
 8008438:	d005      	beq.n	8008446 <USBD_StdDevReq+0x26>
 800843a:	2b40      	cmp	r3, #64	@ 0x40
 800843c:	d857      	bhi.n	80084ee <USBD_StdDevReq+0xce>
 800843e:	2b00      	cmp	r3, #0
 8008440:	d00f      	beq.n	8008462 <USBD_StdDevReq+0x42>
 8008442:	2b20      	cmp	r3, #32
 8008444:	d153      	bne.n	80084ee <USBD_StdDevReq+0xce>
  {
    case USB_REQ_TYPE_CLASS:
    case USB_REQ_TYPE_VENDOR:
      ret = (USBD_StatusTypeDef)pdev->pClass[pdev->classId]->Setup(pdev, req);
 8008446:	687b      	ldr	r3, [r7, #4]
 8008448:	f8d3 22d4 	ldr.w	r2, [r3, #724]	@ 0x2d4
 800844c:	687b      	ldr	r3, [r7, #4]
 800844e:	32ae      	adds	r2, #174	@ 0xae
 8008450:	f853 3022 	ldr.w	r3, [r3, r2, lsl #2]
 8008454:	689b      	ldr	r3, [r3, #8]
 8008456:	6839      	ldr	r1, [r7, #0]
 8008458:	6878      	ldr	r0, [r7, #4]
 800845a:	4798      	blx	r3
 800845c:	4603      	mov	r3, r0
 800845e:	73fb      	strb	r3, [r7, #15]
      break;
 8008460:	e04a      	b.n	80084f8 <USBD_StdDevReq+0xd8>

    case USB_REQ_TYPE_STANDARD:
      switch (req->bRequest)
 8008462:	683b      	ldr	r3, [r7, #0]
 8008464:	785b      	ldrb	r3, [r3, #1]
 8008466:	2b09      	cmp	r3, #9
 8008468:	d83b      	bhi.n	80084e2 <USBD_StdDevReq+0xc2>
 800846a:	a201      	add	r2, pc, #4	@ (adr r2, 8008470 <USBD_StdDevReq+0x50>)
 800846c:	f852 f023 	ldr.w	pc, [r2, r3, lsl #2]
 8008470:	080084c5 	.word	0x080084c5
 8008474:	080084d9 	.word	0x080084d9
 8008478:	080084e3 	.word	0x080084e3
 800847c:	080084cf 	.word	0x080084cf
 8008480:	080084e3 	.word	0x080084e3
 8008484:	080084a3 	.word	0x080084a3
 8008488:	08008499 	.word	0x08008499
 800848c:	080084e3 	.word	0x080084e3
 8008490:	080084bb 	.word	0x080084bb
 8008494:	080084ad 	.word	0x080084ad
      {
        case USB_REQ_GET_DESCRIPTOR:
          USBD_GetDescriptor(pdev, req);
 8008498:	6839      	ldr	r1, [r7, #0]
 800849a:	6878      	ldr	r0, [r7, #4]
 800849c:	f000 fa3e 	bl	800891c <USBD_GetDescriptor>
          break;
 80084a0:	e024      	b.n	80084ec <USBD_StdDevReq+0xcc>

        case USB_REQ_SET_ADDRESS:
          USBD_SetAddress(pdev, req);
 80084a2:	6839      	ldr	r1, [r7, #0]
 80084a4:	6878      	ldr	r0, [r7, #4]
 80084a6:	f000 fbcd 	bl	8008c44 <USBD_SetAddress>
          break;
 80084aa:	e01f      	b.n	80084ec <USBD_StdDevReq+0xcc>

        case USB_REQ_SET_CONFIGURATION:
          ret = USBD_SetConfig(pdev, req);
 80084ac:	6839      	ldr	r1, [r7, #0]
 80084ae:	6878      	ldr	r0, [r7, #4]
 80084b0:	f000 fc0c 	bl	8008ccc <USBD_SetConfig>
 80084b4:	4603      	mov	r3, r0
 80084b6:	73fb      	strb	r3, [r7, #15]
          break;
 80084b8:	e018      	b.n	80084ec <USBD_StdDevReq+0xcc>

        case USB_REQ_GET_CONFIGURATION:
          USBD_GetConfig(pdev, req);
 80084ba:	6839      	ldr	r1, [r7, #0]
 80084bc:	6878      	ldr	r0, [r7, #4]
 80084be:	f000 fcaf 	bl	8008e20 <USBD_GetConfig>
          break;
 80084c2:	e013      	b.n	80084ec <USBD_StdDevReq+0xcc>

        case USB_REQ_GET_STATUS:
          USBD_GetStatus(pdev, req);
 80084c4:	6839      	ldr	r1, [r7, #0]
 80084c6:	6878      	ldr	r0, [r7, #4]
 80084c8:	f000 fce0 	bl	8008e8c <USBD_GetStatus>
          break;
 80084cc:	e00e      	b.n	80084ec <USBD_StdDevReq+0xcc>

        case USB_REQ_SET_FEATURE:
          USBD_SetFeature(pdev, req);
 80084ce:	6839      	ldr	r1, [r7, #0]
 80084d0:	6878      	ldr	r0, [r7, #4]
 80084d2:	f000 fd0f 	bl	8008ef4 <USBD_SetFeature>
          break;
 80084d6:	e009      	b.n	80084ec <USBD_StdDevReq+0xcc>

        case USB_REQ_CLEAR_FEATURE:
          USBD_ClrFeature(pdev, req);
 80084d8:	6839      	ldr	r1, [r7, #0]
 80084da:	6878      	ldr	r0, [r7, #4]
 80084dc:	f000 fd33 	bl	8008f46 <USBD_ClrFeature>
          break;
 80084e0:	e004      	b.n	80084ec <USBD_StdDevReq+0xcc>

        default:
          USBD_CtlError(pdev, req);
 80084e2:	6839      	ldr	r1, [r7, #0]
 80084e4:	6878      	ldr	r0, [r7, #4]
 80084e6:	f000 fd8a 	bl	8008ffe <USBD_CtlError>
          break;
 80084ea:	bf00      	nop
      }
      break;
 80084ec:	e004      	b.n	80084f8 <USBD_StdDevReq+0xd8>

    default:
      USBD_CtlError(pdev, req);
 80084ee:	6839      	ldr	r1, [r7, #0]
 80084f0:	6878      	ldr	r0, [r7, #4]
 80084f2:	f000 fd84 	bl	8008ffe <USBD_CtlError>
      break;
 80084f6:	bf00      	nop
  }

  return ret;
 80084f8:	7bfb      	ldrb	r3, [r7, #15]
}
 80084fa:	4618      	mov	r0, r3
 80084fc:	3710      	adds	r7, #16
 80084fe:	46bd      	mov	sp, r7
 8008500:	bd80      	pop	{r7, pc}
 8008502:	bf00      	nop

08008504 <USBD_StdItfReq>:
  * @param  pdev: device instance
  * @param  req: usb request
  * @retval status
  */
USBD_StatusTypeDef USBD_StdItfReq(USBD_HandleTypeDef *pdev, USBD_SetupReqTypedef *req)
{
 8008504:	b580      	push	{r7, lr}
 8008506:	b084      	sub	sp, #16
 8008508:	af00      	add	r7, sp, #0
 800850a:	6078      	str	r0, [r7, #4]
 800850c:	6039      	str	r1, [r7, #0]
  USBD_StatusTypeDef ret = USBD_OK;
 800850e:	2300      	movs	r3, #0
 8008510:	73fb      	strb	r3, [r7, #15]
  uint8_t idx;

  switch (req->bmRequest & USB_REQ_TYPE_MASK)
 8008512:	683b      	ldr	r3, [r7, #0]
 8008514:	781b      	ldrb	r3, [r3, #0]
 8008516:	f003 0360 	and.w	r3, r3, #96	@ 0x60
 800851a:	2b40      	cmp	r3, #64	@ 0x40
 800851c:	d005      	beq.n	800852a <USBD_StdItfReq+0x26>
 800851e:	2b40      	cmp	r3, #64	@ 0x40
 8008520:	d852      	bhi.n	80085c8 <USBD_StdItfReq+0xc4>
 8008522:	2b00      	cmp	r3, #0
 8008524:	d001      	beq.n	800852a <USBD_StdItfReq+0x26>
 8008526:	2b20      	cmp	r3, #32
 8008528:	d14e      	bne.n	80085c8 <USBD_StdItfReq+0xc4>
  {
    case USB_REQ_TYPE_CLASS:
    case USB_REQ_TYPE_VENDOR:
    case USB_REQ_TYPE_STANDARD:
      switch (pdev->dev_state)
 800852a:	687b      	ldr	r3, [r7, #4]
 800852c:	f893 329c 	ldrb.w	r3, [r3, #668]	@ 0x29c
 8008530:	b2db      	uxtb	r3, r3
 8008532:	3b01      	subs	r3, #1
 8008534:	2b02      	cmp	r3, #2
 8008536:	d840      	bhi.n	80085ba <USBD_StdItfReq+0xb6>
      {
        case USBD_STATE_DEFAULT:
        case USBD_STATE_ADDRESSED:
        case USBD_STATE_CONFIGURED:

          if (LOBYTE(req->wIndex) <= USBD_MAX_NUM_INTERFACES)
 8008538:	683b      	ldr	r3, [r7, #0]
 800853a:	889b      	ldrh	r3, [r3, #4]
 800853c:	b2db      	uxtb	r3, r3
 800853e:	2b01      	cmp	r3, #1
 8008540:	d836      	bhi.n	80085b0 <USBD_StdItfReq+0xac>
          {
            /* Get the class index relative to this interface */
            idx = USBD_CoreFindIF(pdev, LOBYTE(req->wIndex));
 8008542:	683b      	ldr	r3, [r7, #0]
 8008544:	889b      	ldrh	r3, [r3, #4]
 8008546:	b2db      	uxtb	r3, r3
 8008548:	4619      	mov	r1, r3
 800854a:	6878      	ldr	r0, [r7, #4]
 800854c:	f7ff feda 	bl	8008304 <USBD_CoreFindIF>
 8008550:	4603      	mov	r3, r0
 8008552:	73bb      	strb	r3, [r7, #14]
            if (((uint8_t)idx != 0xFFU) && (idx < USBD_MAX_SUPPORTED_CLASS))
 8008554:	7bbb      	ldrb	r3, [r7, #14]
 8008556:	2bff      	cmp	r3, #255	@ 0xff
 8008558:	d01d      	beq.n	8008596 <USBD_StdItfReq+0x92>
 800855a:	7bbb      	ldrb	r3, [r7, #14]
 800855c:	2b00      	cmp	r3, #0
 800855e:	d11a      	bne.n	8008596 <USBD_StdItfReq+0x92>
            {
              /* Call the class data out function to manage the request */
              if (pdev->pClass[idx]->Setup != NULL)
 8008560:	7bba      	ldrb	r2, [r7, #14]
 8008562:	687b      	ldr	r3, [r7, #4]
 8008564:	32ae      	adds	r2, #174	@ 0xae
 8008566:	f853 3022 	ldr.w	r3, [r3, r2, lsl #2]
 800856a:	689b      	ldr	r3, [r3, #8]
 800856c:	2b00      	cmp	r3, #0
 800856e:	d00f      	beq.n	8008590 <USBD_StdItfReq+0x8c>
              {
                pdev->classId = idx;
 8008570:	7bba      	ldrb	r2, [r7, #14]
 8008572:	687b      	ldr	r3, [r7, #4]
 8008574:	f8c3 22d4 	str.w	r2, [r3, #724]	@ 0x2d4
                ret = (USBD_StatusTypeDef)(pdev->pClass[idx]->Setup(pdev, req));
 8008578:	7bba      	ldrb	r2, [r7, #14]
 800857a:	687b      	ldr	r3, [r7, #4]
 800857c:	32ae      	adds	r2, #174	@ 0xae
 800857e:	f853 3022 	ldr.w	r3, [r3, r2, lsl #2]
 8008582:	689b      	ldr	r3, [r3, #8]
 8008584:	6839      	ldr	r1, [r7, #0]
 8008586:	6878      	ldr	r0, [r7, #4]
 8008588:	4798      	blx	r3
 800858a:	4603      	mov	r3, r0
 800858c:	73fb      	strb	r3, [r7, #15]
              if (pdev->pClass[idx]->Setup != NULL)
 800858e:	e004      	b.n	800859a <USBD_StdItfReq+0x96>
              }
              else
              {
                /* should never reach this condition */
                ret = USBD_FAIL;
 8008590:	2303      	movs	r3, #3
 8008592:	73fb      	strb	r3, [r7, #15]
              if (pdev->pClass[idx]->Setup != NULL)
 8008594:	e001      	b.n	800859a <USBD_StdItfReq+0x96>
              }
            }
            else
            {
              /* No relative interface found */
              ret = USBD_FAIL;
 8008596:	2303      	movs	r3, #3
 8008598:	73fb      	strb	r3, [r7, #15]
            }

            if ((req->wLength == 0U) && (ret == USBD_OK))
 800859a:	683b      	ldr	r3, [r7, #0]
 800859c:	88db      	ldrh	r3, [r3, #6]
 800859e:	2b00      	cmp	r3, #0
 80085a0:	d110      	bne.n	80085c4 <USBD_StdItfReq+0xc0>
 80085a2:	7bfb      	ldrb	r3, [r7, #15]
 80085a4:	2b00      	cmp	r3, #0
 80085a6:	d10d      	bne.n	80085c4 <USBD_StdItfReq+0xc0>
            {
              (void)USBD_CtlSendStatus(pdev);
 80085a8:	6878      	ldr	r0, [r7, #4]
 80085aa:	f000 fe06 	bl	80091ba <USBD_CtlSendStatus>
          }
          else
          {
            USBD_CtlError(pdev, req);
          }
          break;
 80085ae:	e009      	b.n	80085c4 <USBD_StdItfReq+0xc0>
            USBD_CtlError(pdev, req);
 80085b0:	6839      	ldr	r1, [r7, #0]
 80085b2:	6878      	ldr	r0, [r7, #4]
 80085b4:	f000 fd23 	bl	8008ffe <USBD_CtlError>
          break;
 80085b8:	e004      	b.n	80085c4 <USBD_StdItfReq+0xc0>

        default:
          USBD_CtlError(pdev, req);
 80085ba:	6839      	ldr	r1, [r7, #0]
 80085bc:	6878      	ldr	r0, [r7, #4]
 80085be:	f000 fd1e 	bl	8008ffe <USBD_CtlError>
          break;
 80085c2:	e000      	b.n	80085c6 <USBD_StdItfReq+0xc2>
          break;
 80085c4:	bf00      	nop
      }
      break;
 80085c6:	e004      	b.n	80085d2 <USBD_StdItfReq+0xce>

    default:
      USBD_CtlError(pdev, req);
 80085c8:	6839      	ldr	r1, [r7, #0]
 80085ca:	6878      	ldr	r0, [r7, #4]
 80085cc:	f000 fd17 	bl	8008ffe <USBD_CtlError>
      break;
 80085d0:	bf00      	nop
  }

  return ret;
 80085d2:	7bfb      	ldrb	r3, [r7, #15]
}
 80085d4:	4618      	mov	r0, r3
 80085d6:	3710      	adds	r7, #16
 80085d8:	46bd      	mov	sp, r7
 80085da:	bd80      	pop	{r7, pc}

080085dc <USBD_StdEPReq>:
  * @param  pdev: device instance
  * @param  req: usb request
  * @retval status
  */
USBD_StatusTypeDef USBD_StdEPReq(USBD_HandleTypeDef *pdev, USBD_SetupReqTypedef *req)
{
 80085dc:	b580      	push	{r7, lr}
 80085de:	b084      	sub	sp, #16
 80085e0:	af00      	add	r7, sp, #0
 80085e2:	6078      	str	r0, [r7, #4]
 80085e4:	6039      	str	r1, [r7, #0]
  USBD_EndpointTypeDef *pep;
  uint8_t ep_addr;
  uint8_t idx;
  USBD_StatusTypeDef ret = USBD_OK;
 80085e6:	2300      	movs	r3, #0
 80085e8:	73fb      	strb	r3, [r7, #15]

  ep_addr = LOBYTE(req->wIndex);
 80085ea:	683b      	ldr	r3, [r7, #0]
 80085ec:	889b      	ldrh	r3, [r3, #4]
 80085ee:	73bb      	strb	r3, [r7, #14]

  switch (req->bmRequest & USB_REQ_TYPE_MASK)
 80085f0:	683b      	ldr	r3, [r7, #0]
 80085f2:	781b      	ldrb	r3, [r3, #0]
 80085f4:	f003 0360 	and.w	r3, r3, #96	@ 0x60
 80085f8:	2b40      	cmp	r3, #64	@ 0x40
 80085fa:	d007      	beq.n	800860c <USBD_StdEPReq+0x30>
 80085fc:	2b40      	cmp	r3, #64	@ 0x40
 80085fe:	f200 8181 	bhi.w	8008904 <USBD_StdEPReq+0x328>
 8008602:	2b00      	cmp	r3, #0
 8008604:	d02a      	beq.n	800865c <USBD_StdEPReq+0x80>
 8008606:	2b20      	cmp	r3, #32
 8008608:	f040 817c 	bne.w	8008904 <USBD_StdEPReq+0x328>
  {
    case USB_REQ_TYPE_CLASS:
    case USB_REQ_TYPE_VENDOR:
      /* Get the class index relative to this endpoint */
      idx = USBD_CoreFindEP(pdev, ep_addr);
 800860c:	7bbb      	ldrb	r3, [r7, #14]
 800860e:	4619      	mov	r1, r3
 8008610:	6878      	ldr	r0, [r7, #4]
 8008612:	f7ff fe84 	bl	800831e <USBD_CoreFindEP>
 8008616:	4603      	mov	r3, r0
 8008618:	737b      	strb	r3, [r7, #13]
      if (((uint8_t)idx != 0xFFU) && (idx < USBD_MAX_SUPPORTED_CLASS))
 800861a:	7b7b      	ldrb	r3, [r7, #13]
 800861c:	2bff      	cmp	r3, #255	@ 0xff
 800861e:	f000 8176 	beq.w	800890e <USBD_StdEPReq+0x332>
 8008622:	7b7b      	ldrb	r3, [r7, #13]
 8008624:	2b00      	cmp	r3, #0
 8008626:	f040 8172 	bne.w	800890e <USBD_StdEPReq+0x332>
      {
        pdev->classId = idx;
 800862a:	7b7a      	ldrb	r2, [r7, #13]
 800862c:	687b      	ldr	r3, [r7, #4]
 800862e:	f8c3 22d4 	str.w	r2, [r3, #724]	@ 0x2d4
        /* Call the class data out function to manage the request */
        if (pdev->pClass[idx]->Setup != NULL)
 8008632:	7b7a      	ldrb	r2, [r7, #13]
 8008634:	687b      	ldr	r3, [r7, #4]
 8008636:	32ae      	adds	r2, #174	@ 0xae
 8008638:	f853 3022 	ldr.w	r3, [r3, r2, lsl #2]
 800863c:	689b      	ldr	r3, [r3, #8]
 800863e:	2b00      	cmp	r3, #0
 8008640:	f000 8165 	beq.w	800890e <USBD_StdEPReq+0x332>
        {
          ret = (USBD_StatusTypeDef)pdev->pClass[idx]->Setup(pdev, req);
 8008644:	7b7a      	ldrb	r2, [r7, #13]
 8008646:	687b      	ldr	r3, [r7, #4]
 8008648:	32ae      	adds	r2, #174	@ 0xae
 800864a:	f853 3022 	ldr.w	r3, [r3, r2, lsl #2]
 800864e:	689b      	ldr	r3, [r3, #8]
 8008650:	6839      	ldr	r1, [r7, #0]
 8008652:	6878      	ldr	r0, [r7, #4]
 8008654:	4798      	blx	r3
 8008656:	4603      	mov	r3, r0
 8008658:	73fb      	strb	r3, [r7, #15]
        }
      }
      break;
 800865a:	e158      	b.n	800890e <USBD_StdEPReq+0x332>

    case USB_REQ_TYPE_STANDARD:
      switch (req->bRequest)
 800865c:	683b      	ldr	r3, [r7, #0]
 800865e:	785b      	ldrb	r3, [r3, #1]
 8008660:	2b03      	cmp	r3, #3
 8008662:	d008      	beq.n	8008676 <USBD_StdEPReq+0x9a>
 8008664:	2b03      	cmp	r3, #3
 8008666:	f300 8147 	bgt.w	80088f8 <USBD_StdEPReq+0x31c>
 800866a:	2b00      	cmp	r3, #0
 800866c:	f000 809b 	beq.w	80087a6 <USBD_StdEPReq+0x1ca>
 8008670:	2b01      	cmp	r3, #1
 8008672:	d03c      	beq.n	80086ee <USBD_StdEPReq+0x112>
 8008674:	e140      	b.n	80088f8 <USBD_StdEPReq+0x31c>
      {
        case USB_REQ_SET_FEATURE:
          switch (pdev->dev_state)
 8008676:	687b      	ldr	r3, [r7, #4]
 8008678:	f893 329c 	ldrb.w	r3, [r3, #668]	@ 0x29c
 800867c:	b2db      	uxtb	r3, r3
 800867e:	2b02      	cmp	r3, #2
 8008680:	d002      	beq.n	8008688 <USBD_StdEPReq+0xac>
 8008682:	2b03      	cmp	r3, #3
 8008684:	d016      	beq.n	80086b4 <USBD_StdEPReq+0xd8>
 8008686:	e02c      	b.n	80086e2 <USBD_StdEPReq+0x106>
          {
            case USBD_STATE_ADDRESSED:
              if ((ep_addr != 0x00U) && (ep_addr != 0x80U))
 8008688:	7bbb      	ldrb	r3, [r7, #14]
 800868a:	2b00      	cmp	r3, #0
 800868c:	d00d      	beq.n	80086aa <USBD_StdEPReq+0xce>
 800868e:	7bbb      	ldrb	r3, [r7, #14]
 8008690:	2b80      	cmp	r3, #128	@ 0x80
 8008692:	d00a      	beq.n	80086aa <USBD_StdEPReq+0xce>
              {
                (void)USBD_LL_StallEP(pdev, ep_addr);
 8008694:	7bbb      	ldrb	r3, [r7, #14]
 8008696:	4619      	mov	r1, r3
 8008698:	6878      	ldr	r0, [r7, #4]
 800869a:	f001 f9ad 	bl	80099f8 <USBD_LL_StallEP>
                (void)USBD_LL_StallEP(pdev, 0x80U);
 800869e:	2180      	movs	r1, #128	@ 0x80
 80086a0:	6878      	ldr	r0, [r7, #4]
 80086a2:	f001 f9a9 	bl	80099f8 <USBD_LL_StallEP>
 80086a6:	bf00      	nop
              }
              else
              {
                USBD_CtlError(pdev, req);
              }
              break;
 80086a8:	e020      	b.n	80086ec <USBD_StdEPReq+0x110>
                USBD_CtlError(pdev, req);
 80086aa:	6839      	ldr	r1, [r7, #0]
 80086ac:	6878      	ldr	r0, [r7, #4]
 80086ae:	f000 fca6 	bl	8008ffe <USBD_CtlError>
              break;
 80086b2:	e01b      	b.n	80086ec <USBD_StdEPReq+0x110>

            case USBD_STATE_CONFIGURED:
              if (req->wValue == USB_FEATURE_EP_HALT)
 80086b4:	683b      	ldr	r3, [r7, #0]
 80086b6:	885b      	ldrh	r3, [r3, #2]
 80086b8:	2b00      	cmp	r3, #0
 80086ba:	d10e      	bne.n	80086da <USBD_StdEPReq+0xfe>
              {
                if ((ep_addr != 0x00U) && (ep_addr != 0x80U) && (req->wLength == 0x00U))
 80086bc:	7bbb      	ldrb	r3, [r7, #14]
 80086be:	2b00      	cmp	r3, #0
 80086c0:	d00b      	beq.n	80086da <USBD_StdEPReq+0xfe>
 80086c2:	7bbb      	ldrb	r3, [r7, #14]
 80086c4:	2b80      	cmp	r3, #128	@ 0x80
 80086c6:	d008      	beq.n	80086da <USBD_StdEPReq+0xfe>
 80086c8:	683b      	ldr	r3, [r7, #0]
 80086ca:	88db      	ldrh	r3, [r3, #6]
 80086cc:	2b00      	cmp	r3, #0
 80086ce:	d104      	bne.n	80086da <USBD_StdEPReq+0xfe>
                {
                  (void)USBD_LL_StallEP(pdev, ep_addr);
 80086d0:	7bbb      	ldrb	r3, [r7, #14]
 80086d2:	4619      	mov	r1, r3
 80086d4:	6878      	ldr	r0, [r7, #4]
 80086d6:	f001 f98f 	bl	80099f8 <USBD_LL_StallEP>
                }
              }
              (void)USBD_CtlSendStatus(pdev);
 80086da:	6878      	ldr	r0, [r7, #4]
 80086dc:	f000 fd6d 	bl	80091ba <USBD_CtlSendStatus>

              break;
 80086e0:	e004      	b.n	80086ec <USBD_StdEPReq+0x110>

            default:
              USBD_CtlError(pdev, req);
 80086e2:	6839      	ldr	r1, [r7, #0]
 80086e4:	6878      	ldr	r0, [r7, #4]
 80086e6:	f000 fc8a 	bl	8008ffe <USBD_CtlError>
              break;
 80086ea:	bf00      	nop
          }
          break;
 80086ec:	e109      	b.n	8008902 <USBD_StdEPReq+0x326>

        case USB_REQ_CLEAR_FEATURE:

          switch (pdev->dev_state)
 80086ee:	687b      	ldr	r3, [r7, #4]
 80086f0:	f893 329c 	ldrb.w	r3, [r3, #668]	@ 0x29c
 80086f4:	b2db      	uxtb	r3, r3
 80086f6:	2b02      	cmp	r3, #2
 80086f8:	d002      	beq.n	8008700 <USBD_StdEPReq+0x124>
 80086fa:	2b03      	cmp	r3, #3
 80086fc:	d016      	beq.n	800872c <USBD_StdEPReq+0x150>
 80086fe:	e04b      	b.n	8008798 <USBD_StdEPReq+0x1bc>
          {
            case USBD_STATE_ADDRESSED:
              if ((ep_addr != 0x00U) && (ep_addr != 0x80U))
 8008700:	7bbb      	ldrb	r3, [r7, #14]
 8008702:	2b00      	cmp	r3, #0
 8008704:	d00d      	beq.n	8008722 <USBD_StdEPReq+0x146>
 8008706:	7bbb      	ldrb	r3, [r7, #14]
 8008708:	2b80      	cmp	r3, #128	@ 0x80
 800870a:	d00a      	beq.n	8008722 <USBD_StdEPReq+0x146>
              {
                (void)USBD_LL_StallEP(pdev, ep_addr);
 800870c:	7bbb      	ldrb	r3, [r7, #14]
 800870e:	4619      	mov	r1, r3
 8008710:	6878      	ldr	r0, [r7, #4]
 8008712:	f001 f971 	bl	80099f8 <USBD_LL_StallEP>
                (void)USBD_LL_StallEP(pdev, 0x80U);
 8008716:	2180      	movs	r1, #128	@ 0x80
 8008718:	6878      	ldr	r0, [r7, #4]
 800871a:	f001 f96d 	bl	80099f8 <USBD_LL_StallEP>
 800871e:	bf00      	nop
              }
              else
              {
                USBD_CtlError(pdev, req);
              }
              break;
 8008720:	e040      	b.n	80087a4 <USBD_StdEPReq+0x1c8>
                USBD_CtlError(pdev, req);
 8008722:	6839      	ldr	r1, [r7, #0]
 8008724:	6878      	ldr	r0, [r7, #4]
 8008726:	f000 fc6a 	bl	8008ffe <USBD_CtlError>
              break;
 800872a:	e03b      	b.n	80087a4 <USBD_StdEPReq+0x1c8>

            case USBD_STATE_CONFIGURED:
              if (req->wValue == USB_FEATURE_EP_HALT)
 800872c:	683b      	ldr	r3, [r7, #0]
 800872e:	885b      	ldrh	r3, [r3, #2]
 8008730:	2b00      	cmp	r3, #0
 8008732:	d136      	bne.n	80087a2 <USBD_StdEPReq+0x1c6>
              {
                if ((ep_addr & 0x7FU) != 0x00U)
 8008734:	7bbb      	ldrb	r3, [r7, #14]
 8008736:	f003 037f 	and.w	r3, r3, #127	@ 0x7f
 800873a:	2b00      	cmp	r3, #0
 800873c:	d004      	beq.n	8008748 <USBD_StdEPReq+0x16c>
                {
                  (void)USBD_LL_ClearStallEP(pdev, ep_addr);
 800873e:	7bbb      	ldrb	r3, [r7, #14]
 8008740:	4619      	mov	r1, r3
 8008742:	6878      	ldr	r0, [r7, #4]
 8008744:	f001 f977 	bl	8009a36 <USBD_LL_ClearStallEP>
                }
                (void)USBD_CtlSendStatus(pdev);
 8008748:	6878      	ldr	r0, [r7, #4]
 800874a:	f000 fd36 	bl	80091ba <USBD_CtlSendStatus>

                /* Get the class index relative to this interface */
                idx = USBD_CoreFindEP(pdev, ep_addr);
 800874e:	7bbb      	ldrb	r3, [r7, #14]
 8008750:	4619      	mov	r1, r3
 8008752:	6878      	ldr	r0, [r7, #4]
 8008754:	f7ff fde3 	bl	800831e <USBD_CoreFindEP>
 8008758:	4603      	mov	r3, r0
 800875a:	737b      	strb	r3, [r7, #13]
                if (((uint8_t)idx != 0xFFU) && (idx < USBD_MAX_SUPPORTED_CLASS))
 800875c:	7b7b      	ldrb	r3, [r7, #13]
 800875e:	2bff      	cmp	r3, #255	@ 0xff
 8008760:	d01f      	beq.n	80087a2 <USBD_StdEPReq+0x1c6>
 8008762:	7b7b      	ldrb	r3, [r7, #13]
 8008764:	2b00      	cmp	r3, #0
 8008766:	d11c      	bne.n	80087a2 <USBD_StdEPReq+0x1c6>
                {
                  pdev->classId = idx;
 8008768:	7b7a      	ldrb	r2, [r7, #13]
 800876a:	687b      	ldr	r3, [r7, #4]
 800876c:	f8c3 22d4 	str.w	r2, [r3, #724]	@ 0x2d4
                  /* Call the class data out function to manage the request */
                  if (pdev->pClass[idx]->Setup != NULL)
 8008770:	7b7a      	ldrb	r2, [r7, #13]
 8008772:	687b      	ldr	r3, [r7, #4]
 8008774:	32ae      	adds	r2, #174	@ 0xae
 8008776:	f853 3022 	ldr.w	r3, [r3, r2, lsl #2]
 800877a:	689b      	ldr	r3, [r3, #8]
 800877c:	2b00      	cmp	r3, #0
 800877e:	d010      	beq.n	80087a2 <USBD_StdEPReq+0x1c6>
                  {
                    ret = (USBD_StatusTypeDef)(pdev->pClass[idx]->Setup(pdev, req));
 8008780:	7b7a      	ldrb	r2, [r7, #13]
 8008782:	687b      	ldr	r3, [r7, #4]
 8008784:	32ae      	adds	r2, #174	@ 0xae
 8008786:	f853 3022 	ldr.w	r3, [r3, r2, lsl #2]
 800878a:	689b      	ldr	r3, [r3, #8]
 800878c:	6839      	ldr	r1, [r7, #0]
 800878e:	6878      	ldr	r0, [r7, #4]
 8008790:	4798      	blx	r3
 8008792:	4603      	mov	r3, r0
 8008794:	73fb      	strb	r3, [r7, #15]
                  }
                }
              }
              break;
 8008796:	e004      	b.n	80087a2 <USBD_StdEPReq+0x1c6>

            default:
              USBD_CtlError(pdev, req);
 8008798:	6839      	ldr	r1, [r7, #0]
 800879a:	6878      	ldr	r0, [r7, #4]
 800879c:	f000 fc2f 	bl	8008ffe <USBD_CtlError>
              break;
 80087a0:	e000      	b.n	80087a4 <USBD_StdEPReq+0x1c8>
              break;
 80087a2:	bf00      	nop
          }
          break;
 80087a4:	e0ad      	b.n	8008902 <USBD_StdEPReq+0x326>

        case USB_REQ_GET_STATUS:
          switch (pdev->dev_state)
 80087a6:	687b      	ldr	r3, [r7, #4]
 80087a8:	f893 329c 	ldrb.w	r3, [r3, #668]	@ 0x29c
 80087ac:	b2db      	uxtb	r3, r3
 80087ae:	2b02      	cmp	r3, #2
 80087b0:	d002      	beq.n	80087b8 <USBD_StdEPReq+0x1dc>
 80087b2:	2b03      	cmp	r3, #3
 80087b4:	d033      	beq.n	800881e <USBD_StdEPReq+0x242>
 80087b6:	e099      	b.n	80088ec <USBD_StdEPReq+0x310>
          {
            case USBD_STATE_ADDRESSED:
              if ((ep_addr != 0x00U) && (ep_addr != 0x80U))
 80087b8:	7bbb      	ldrb	r3, [r7, #14]
 80087ba:	2b00      	cmp	r3, #0
 80087bc:	d007      	beq.n	80087ce <USBD_StdEPReq+0x1f2>
 80087be:	7bbb      	ldrb	r3, [r7, #14]
 80087c0:	2b80      	cmp	r3, #128	@ 0x80
 80087c2:	d004      	beq.n	80087ce <USBD_StdEPReq+0x1f2>
              {
                USBD_CtlError(pdev, req);
 80087c4:	6839      	ldr	r1, [r7, #0]
 80087c6:	6878      	ldr	r0, [r7, #4]
 80087c8:	f000 fc19 	bl	8008ffe <USBD_CtlError>
                break;
 80087cc:	e093      	b.n	80088f6 <USBD_StdEPReq+0x31a>
              }
              pep = ((ep_addr & 0x80U) == 0x80U) ? &pdev->ep_in[ep_addr & 0x7FU] : \
 80087ce:	f997 300e 	ldrsb.w	r3, [r7, #14]
 80087d2:	2b00      	cmp	r3, #0
 80087d4:	da0b      	bge.n	80087ee <USBD_StdEPReq+0x212>
 80087d6:	7bbb      	ldrb	r3, [r7, #14]
 80087d8:	f003 027f 	and.w	r2, r3, #127	@ 0x7f
 80087dc:	4613      	mov	r3, r2
 80087de:	009b      	lsls	r3, r3, #2
 80087e0:	4413      	add	r3, r2
 80087e2:	009b      	lsls	r3, r3, #2
 80087e4:	3310      	adds	r3, #16
 80087e6:	687a      	ldr	r2, [r7, #4]
 80087e8:	4413      	add	r3, r2
 80087ea:	3304      	adds	r3, #4
 80087ec:	e00b      	b.n	8008806 <USBD_StdEPReq+0x22a>
                    &pdev->ep_out[ep_addr & 0x7FU];
 80087ee:	7bbb      	ldrb	r3, [r7, #14]
 80087f0:	f003 027f 	and.w	r2, r3, #127	@ 0x7f
              pep = ((ep_addr & 0x80U) == 0x80U) ? &pdev->ep_in[ep_addr & 0x7FU] : \
 80087f4:	4613      	mov	r3, r2
 80087f6:	009b      	lsls	r3, r3, #2
 80087f8:	4413      	add	r3, r2
 80087fa:	009b      	lsls	r3, r3, #2
 80087fc:	f503 73a8 	add.w	r3, r3, #336	@ 0x150
 8008800:	687a      	ldr	r2, [r7, #4]
 8008802:	4413      	add	r3, r2
 8008804:	3304      	adds	r3, #4
 8008806:	60bb      	str	r3, [r7, #8]

              pep->status = 0x0000U;
 8008808:	68bb      	ldr	r3, [r7, #8]
 800880a:	2200      	movs	r2, #0
 800880c:	739a      	strb	r2, [r3, #14]

              (void)USBD_CtlSendData(pdev, (uint8_t *)&pep->status, 2U);
 800880e:	68bb      	ldr	r3, [r7, #8]
 8008810:	330e      	adds	r3, #14
 8008812:	2202      	movs	r2, #2
 8008814:	4619      	mov	r1, r3
 8008816:	6878      	ldr	r0, [r7, #4]
 8008818:	f000 fc6e 	bl	80090f8 <USBD_CtlSendData>
              break;
 800881c:	e06b      	b.n	80088f6 <USBD_StdEPReq+0x31a>

            case USBD_STATE_CONFIGURED:
              if ((ep_addr & 0x80U) == 0x80U)
 800881e:	f997 300e 	ldrsb.w	r3, [r7, #14]
 8008822:	2b00      	cmp	r3, #0
 8008824:	da11      	bge.n	800884a <USBD_StdEPReq+0x26e>
              {
                if (pdev->ep_in[ep_addr & 0xFU].is_used == 0U)
 8008826:	7bbb      	ldrb	r3, [r7, #14]
 8008828:	f003 020f 	and.w	r2, r3, #15
 800882c:	6879      	ldr	r1, [r7, #4]
 800882e:	4613      	mov	r3, r2
 8008830:	009b      	lsls	r3, r3, #2
 8008832:	4413      	add	r3, r2
 8008834:	009b      	lsls	r3, r3, #2
 8008836:	440b      	add	r3, r1
 8008838:	3323      	adds	r3, #35	@ 0x23
 800883a:	781b      	ldrb	r3, [r3, #0]
 800883c:	2b00      	cmp	r3, #0
 800883e:	d117      	bne.n	8008870 <USBD_StdEPReq+0x294>
                {
                  USBD_CtlError(pdev, req);
 8008840:	6839      	ldr	r1, [r7, #0]
 8008842:	6878      	ldr	r0, [r7, #4]
 8008844:	f000 fbdb 	bl	8008ffe <USBD_CtlError>
                  break;
 8008848:	e055      	b.n	80088f6 <USBD_StdEPReq+0x31a>
                }
              }
              else
              {
                if (pdev->ep_out[ep_addr & 0xFU].is_used == 0U)
 800884a:	7bbb      	ldrb	r3, [r7, #14]
 800884c:	f003 020f 	and.w	r2, r3, #15
 8008850:	6879      	ldr	r1, [r7, #4]
 8008852:	4613      	mov	r3, r2
 8008854:	009b      	lsls	r3, r3, #2
 8008856:	4413      	add	r3, r2
 8008858:	009b      	lsls	r3, r3, #2
 800885a:	440b      	add	r3, r1
 800885c:	f203 1363 	addw	r3, r3, #355	@ 0x163
 8008860:	781b      	ldrb	r3, [r3, #0]
 8008862:	2b00      	cmp	r3, #0
 8008864:	d104      	bne.n	8008870 <USBD_StdEPReq+0x294>
                {
                  USBD_CtlError(pdev, req);
 8008866:	6839      	ldr	r1, [r7, #0]
 8008868:	6878      	ldr	r0, [r7, #4]
 800886a:	f000 fbc8 	bl	8008ffe <USBD_CtlError>
                  break;
 800886e:	e042      	b.n	80088f6 <USBD_StdEPReq+0x31a>
                }
              }

              pep = ((ep_addr & 0x80U) == 0x80U) ? &pdev->ep_in[ep_addr & 0x7FU] : \
 8008870:	f997 300e 	ldrsb.w	r3, [r7, #14]
 8008874:	2b00      	cmp	r3, #0
 8008876:	da0b      	bge.n	8008890 <USBD_StdEPReq+0x2b4>
 8008878:	7bbb      	ldrb	r3, [r7, #14]
 800887a:	f003 027f 	and.w	r2, r3, #127	@ 0x7f
 800887e:	4613      	mov	r3, r2
 8008880:	009b      	lsls	r3, r3, #2
 8008882:	4413      	add	r3, r2
 8008884:	009b      	lsls	r3, r3, #2
 8008886:	3310      	adds	r3, #16
 8008888:	687a      	ldr	r2, [r7, #4]
 800888a:	4413      	add	r3, r2
 800888c:	3304      	adds	r3, #4
 800888e:	e00b      	b.n	80088a8 <USBD_StdEPReq+0x2cc>
                    &pdev->ep_out[ep_addr & 0x7FU];
 8008890:	7bbb      	ldrb	r3, [r7, #14]
 8008892:	f003 027f 	and.w	r2, r3, #127	@ 0x7f
              pep = ((ep_addr & 0x80U) == 0x80U) ? &pdev->ep_in[ep_addr & 0x7FU] : \
 8008896:	4613      	mov	r3, r2
 8008898:	009b      	lsls	r3, r3, #2
 800889a:	4413      	add	r3, r2
 800889c:	009b      	lsls	r3, r3, #2
 800889e:	f503 73a8 	add.w	r3, r3, #336	@ 0x150
 80088a2:	687a      	ldr	r2, [r7, #4]
 80088a4:	4413      	add	r3, r2
 80088a6:	3304      	adds	r3, #4
 80088a8:	60bb      	str	r3, [r7, #8]

              if ((ep_addr == 0x00U) || (ep_addr == 0x80U))
 80088aa:	7bbb      	ldrb	r3, [r7, #14]
 80088ac:	2b00      	cmp	r3, #0
 80088ae:	d002      	beq.n	80088b6 <USBD_StdEPReq+0x2da>
 80088b0:	7bbb      	ldrb	r3, [r7, #14]
 80088b2:	2b80      	cmp	r3, #128	@ 0x80
 80088b4:	d103      	bne.n	80088be <USBD_StdEPReq+0x2e2>
              {
                pep->status = 0x0000U;
 80088b6:	68bb      	ldr	r3, [r7, #8]
 80088b8:	2200      	movs	r2, #0
 80088ba:	739a      	strb	r2, [r3, #14]
 80088bc:	e00e      	b.n	80088dc <USBD_StdEPReq+0x300>
              }
              else if (USBD_LL_IsStallEP(pdev, ep_addr) != 0U)
 80088be:	7bbb      	ldrb	r3, [r7, #14]
 80088c0:	4619      	mov	r1, r3
 80088c2:	6878      	ldr	r0, [r7, #4]
 80088c4:	f001 f8d6 	bl	8009a74 <USBD_LL_IsStallEP>
 80088c8:	4603      	mov	r3, r0
 80088ca:	2b00      	cmp	r3, #0
 80088cc:	d003      	beq.n	80088d6 <USBD_StdEPReq+0x2fa>
              {
                pep->status = 0x0001U;
 80088ce:	68bb      	ldr	r3, [r7, #8]
 80088d0:	2201      	movs	r2, #1
 80088d2:	739a      	strb	r2, [r3, #14]
 80088d4:	e002      	b.n	80088dc <USBD_StdEPReq+0x300>
              }
              else
              {
                pep->status = 0x0000U;
 80088d6:	68bb      	ldr	r3, [r7, #8]
 80088d8:	2200      	movs	r2, #0
 80088da:	739a      	strb	r2, [r3, #14]
              }

              (void)USBD_CtlSendData(pdev, (uint8_t *)&pep->status, 2U);
 80088dc:	68bb      	ldr	r3, [r7, #8]
 80088de:	330e      	adds	r3, #14
 80088e0:	2202      	movs	r2, #2
 80088e2:	4619      	mov	r1, r3
 80088e4:	6878      	ldr	r0, [r7, #4]
 80088e6:	f000 fc07 	bl	80090f8 <USBD_CtlSendData>
              break;
 80088ea:	e004      	b.n	80088f6 <USBD_StdEPReq+0x31a>

            default:
              USBD_CtlError(pdev, req);
 80088ec:	6839      	ldr	r1, [r7, #0]
 80088ee:	6878      	ldr	r0, [r7, #4]
 80088f0:	f000 fb85 	bl	8008ffe <USBD_CtlError>
              break;
 80088f4:	bf00      	nop
          }
          break;
 80088f6:	e004      	b.n	8008902 <USBD_StdEPReq+0x326>

        default:
          USBD_CtlError(pdev, req);
 80088f8:	6839      	ldr	r1, [r7, #0]
 80088fa:	6878      	ldr	r0, [r7, #4]
 80088fc:	f000 fb7f 	bl	8008ffe <USBD_CtlError>
          break;
 8008900:	bf00      	nop
      }
      break;
 8008902:	e005      	b.n	8008910 <USBD_StdEPReq+0x334>

    default:
      USBD_CtlError(pdev, req);
 8008904:	6839      	ldr	r1, [r7, #0]
 8008906:	6878      	ldr	r0, [r7, #4]
 8008908:	f000 fb79 	bl	8008ffe <USBD_CtlError>
      break;
 800890c:	e000      	b.n	8008910 <USBD_StdEPReq+0x334>
      break;
 800890e:	bf00      	nop
  }

  return ret;
 8008910:	7bfb      	ldrb	r3, [r7, #15]
}
 8008912:	4618      	mov	r0, r3
 8008914:	3710      	adds	r7, #16
 8008916:	46bd      	mov	sp, r7
 8008918:	bd80      	pop	{r7, pc}
	...

0800891c <USBD_GetDescriptor>:
  * @param  pdev: device instance
  * @param  req: usb request
  * @retval None
  */
static void USBD_GetDescriptor(USBD_HandleTypeDef *pdev, USBD_SetupReqTypedef *req)
{
 800891c:	b580      	push	{r7, lr}
 800891e:	b084      	sub	sp, #16
 8008920:	af00      	add	r7, sp, #0
 8008922:	6078      	str	r0, [r7, #4]
 8008924:	6039      	str	r1, [r7, #0]
  uint16_t len = 0U;
 8008926:	2300      	movs	r3, #0
 8008928:	813b      	strh	r3, [r7, #8]
  uint8_t *pbuf = NULL;
 800892a:	2300      	movs	r3, #0
 800892c:	60fb      	str	r3, [r7, #12]
  uint8_t err = 0U;
 800892e:	2300      	movs	r3, #0
 8008930:	72fb      	strb	r3, [r7, #11]

  switch (req->wValue >> 8)
 8008932:	683b      	ldr	r3, [r7, #0]
 8008934:	885b      	ldrh	r3, [r3, #2]
 8008936:	0a1b      	lsrs	r3, r3, #8
 8008938:	b29b      	uxth	r3, r3
 800893a:	3b01      	subs	r3, #1
 800893c:	2b0e      	cmp	r3, #14
 800893e:	f200 8152 	bhi.w	8008be6 <USBD_GetDescriptor+0x2ca>
 8008942:	a201      	add	r2, pc, #4	@ (adr r2, 8008948 <USBD_GetDescriptor+0x2c>)
 8008944:	f852 f023 	ldr.w	pc, [r2, r3, lsl #2]
 8008948:	080089b9 	.word	0x080089b9
 800894c:	080089d1 	.word	0x080089d1
 8008950:	08008a11 	.word	0x08008a11
 8008954:	08008be7 	.word	0x08008be7
 8008958:	08008be7 	.word	0x08008be7
 800895c:	08008b87 	.word	0x08008b87
 8008960:	08008bb3 	.word	0x08008bb3
 8008964:	08008be7 	.word	0x08008be7
 8008968:	08008be7 	.word	0x08008be7
 800896c:	08008be7 	.word	0x08008be7
 8008970:	08008be7 	.word	0x08008be7
 8008974:	08008be7 	.word	0x08008be7
 8008978:	08008be7 	.word	0x08008be7
 800897c:	08008be7 	.word	0x08008be7
 8008980:	08008985 	.word	0x08008985
  {
#if ((USBD_LPM_ENABLED == 1U) || (USBD_CLASS_BOS_ENABLED == 1U))
    case USB_DESC_TYPE_BOS:
      if (pdev->pDesc->GetBOSDescriptor != NULL)
 8008984:	687b      	ldr	r3, [r7, #4]
 8008986:	f8d3 32b4 	ldr.w	r3, [r3, #692]	@ 0x2b4
 800898a:	69db      	ldr	r3, [r3, #28]
 800898c:	2b00      	cmp	r3, #0
 800898e:	d00b      	beq.n	80089a8 <USBD_GetDescriptor+0x8c>
      {
        pbuf = pdev->pDesc->GetBOSDescriptor(pdev->dev_speed, &len);
 8008990:	687b      	ldr	r3, [r7, #4]
 8008992:	f8d3 32b4 	ldr.w	r3, [r3, #692]	@ 0x2b4
 8008996:	69db      	ldr	r3, [r3, #28]
 8008998:	687a      	ldr	r2, [r7, #4]
 800899a:	7c12      	ldrb	r2, [r2, #16]
 800899c:	f107 0108 	add.w	r1, r7, #8
 80089a0:	4610      	mov	r0, r2
 80089a2:	4798      	blx	r3
 80089a4:	60f8      	str	r0, [r7, #12]
      else
      {
        USBD_CtlError(pdev, req);
        err++;
      }
      break;
 80089a6:	e126      	b.n	8008bf6 <USBD_GetDescriptor+0x2da>
        USBD_CtlError(pdev, req);
 80089a8:	6839      	ldr	r1, [r7, #0]
 80089aa:	6878      	ldr	r0, [r7, #4]
 80089ac:	f000 fb27 	bl	8008ffe <USBD_CtlError>
        err++;
 80089b0:	7afb      	ldrb	r3, [r7, #11]
 80089b2:	3301      	adds	r3, #1
 80089b4:	72fb      	strb	r3, [r7, #11]
      break;
 80089b6:	e11e      	b.n	8008bf6 <USBD_GetDescriptor+0x2da>
#endif /* (USBD_LPM_ENABLED == 1U) || (USBD_CLASS_BOS_ENABLED == 1U) */
    case USB_DESC_TYPE_DEVICE:
      pbuf = pdev->pDesc->GetDeviceDescriptor(pdev->dev_speed, &len);
 80089b8:	687b      	ldr	r3, [r7, #4]
 80089ba:	f8d3 32b4 	ldr.w	r3, [r3, #692]	@ 0x2b4
 80089be:	681b      	ldr	r3, [r3, #0]
 80089c0:	687a      	ldr	r2, [r7, #4]
 80089c2:	7c12      	ldrb	r2, [r2, #16]
 80089c4:	f107 0108 	add.w	r1, r7, #8
 80089c8:	4610      	mov	r0, r2
 80089ca:	4798      	blx	r3
 80089cc:	60f8      	str	r0, [r7, #12]
      break;
 80089ce:	e112      	b.n	8008bf6 <USBD_GetDescriptor+0x2da>

    case USB_DESC_TYPE_CONFIGURATION:
      if (pdev->dev_speed == USBD_SPEED_HIGH)
 80089d0:	687b      	ldr	r3, [r7, #4]
 80089d2:	7c1b      	ldrb	r3, [r3, #16]
 80089d4:	2b00      	cmp	r3, #0
 80089d6:	d10d      	bne.n	80089f4 <USBD_GetDescriptor+0xd8>
          pbuf = (uint8_t *)USBD_CMPSIT.GetHSConfigDescriptor(&len);
        }
        else
#endif /* USE_USBD_COMPOSITE */
        {
          pbuf = (uint8_t *)pdev->pClass[0]->GetHSConfigDescriptor(&len);
 80089d8:	687b      	ldr	r3, [r7, #4]
 80089da:	f8d3 32b8 	ldr.w	r3, [r3, #696]	@ 0x2b8
 80089de:	6a9b      	ldr	r3, [r3, #40]	@ 0x28
 80089e0:	f107 0208 	add.w	r2, r7, #8
 80089e4:	4610      	mov	r0, r2
 80089e6:	4798      	blx	r3
 80089e8:	60f8      	str	r0, [r7, #12]
        }
        pbuf[1] = USB_DESC_TYPE_CONFIGURATION;
 80089ea:	68fb      	ldr	r3, [r7, #12]
 80089ec:	3301      	adds	r3, #1
 80089ee:	2202      	movs	r2, #2
 80089f0:	701a      	strb	r2, [r3, #0]
        {
          pbuf = (uint8_t *)pdev->pClass[0]->GetFSConfigDescriptor(&len);
        }
        pbuf[1] = USB_DESC_TYPE_CONFIGURATION;
      }
      break;
 80089f2:	e100      	b.n	8008bf6 <USBD_GetDescriptor+0x2da>
          pbuf = (uint8_t *)pdev->pClass[0]->GetFSConfigDescriptor(&len);
 80089f4:	687b      	ldr	r3, [r7, #4]
 80089f6:	f8d3 32b8 	ldr.w	r3, [r3, #696]	@ 0x2b8
 80089fa:	6adb      	ldr	r3, [r3, #44]	@ 0x2c
 80089fc:	f107 0208 	add.w	r2, r7, #8
 8008a00:	4610      	mov	r0, r2
 8008a02:	4798      	blx	r3
 8008a04:	60f8      	str	r0, [r7, #12]
        pbuf[1] = USB_DESC_TYPE_CONFIGURATION;
 8008a06:	68fb      	ldr	r3, [r7, #12]
 8008a08:	3301      	adds	r3, #1
 8008a0a:	2202      	movs	r2, #2
 8008a0c:	701a      	strb	r2, [r3, #0]
      break;
 8008a0e:	e0f2      	b.n	8008bf6 <USBD_GetDescriptor+0x2da>

    case USB_DESC_TYPE_STRING:
      switch ((uint8_t)(req->wValue))
 8008a10:	683b      	ldr	r3, [r7, #0]
 8008a12:	885b      	ldrh	r3, [r3, #2]
 8008a14:	b2db      	uxtb	r3, r3
 8008a16:	2b05      	cmp	r3, #5
 8008a18:	f200 80ac 	bhi.w	8008b74 <USBD_GetDescriptor+0x258>
 8008a1c:	a201      	add	r2, pc, #4	@ (adr r2, 8008a24 <USBD_GetDescriptor+0x108>)
 8008a1e:	f852 f023 	ldr.w	pc, [r2, r3, lsl #2]
 8008a22:	bf00      	nop
 8008a24:	08008a3d 	.word	0x08008a3d
 8008a28:	08008a71 	.word	0x08008a71
 8008a2c:	08008aa5 	.word	0x08008aa5
 8008a30:	08008ad9 	.word	0x08008ad9
 8008a34:	08008b0d 	.word	0x08008b0d
 8008a38:	08008b41 	.word	0x08008b41
      {
        case USBD_IDX_LANGID_STR:
          if (pdev->pDesc->GetLangIDStrDescriptor != NULL)
 8008a3c:	687b      	ldr	r3, [r7, #4]
 8008a3e:	f8d3 32b4 	ldr.w	r3, [r3, #692]	@ 0x2b4
 8008a42:	685b      	ldr	r3, [r3, #4]
 8008a44:	2b00      	cmp	r3, #0
 8008a46:	d00b      	beq.n	8008a60 <USBD_GetDescriptor+0x144>
          {
            pbuf = pdev->pDesc->GetLangIDStrDescriptor(pdev->dev_speed, &len);
 8008a48:	687b      	ldr	r3, [r7, #4]
 8008a4a:	f8d3 32b4 	ldr.w	r3, [r3, #692]	@ 0x2b4
 8008a4e:	685b      	ldr	r3, [r3, #4]
 8008a50:	687a      	ldr	r2, [r7, #4]
 8008a52:	7c12      	ldrb	r2, [r2, #16]
 8008a54:	f107 0108 	add.w	r1, r7, #8
 8008a58:	4610      	mov	r0, r2
 8008a5a:	4798      	blx	r3
 8008a5c:	60f8      	str	r0, [r7, #12]
          else
          {
            USBD_CtlError(pdev, req);
            err++;
          }
          break;
 8008a5e:	e091      	b.n	8008b84 <USBD_GetDescriptor+0x268>
            USBD_CtlError(pdev, req);
 8008a60:	6839      	ldr	r1, [r7, #0]
 8008a62:	6878      	ldr	r0, [r7, #4]
 8008a64:	f000 facb 	bl	8008ffe <USBD_CtlError>
            err++;
 8008a68:	7afb      	ldrb	r3, [r7, #11]
 8008a6a:	3301      	adds	r3, #1
 8008a6c:	72fb      	strb	r3, [r7, #11]
          break;
 8008a6e:	e089      	b.n	8008b84 <USBD_GetDescriptor+0x268>

        case USBD_IDX_MFC_STR:
          if (pdev->pDesc->GetManufacturerStrDescriptor != NULL)
 8008a70:	687b      	ldr	r3, [r7, #4]
 8008a72:	f8d3 32b4 	ldr.w	r3, [r3, #692]	@ 0x2b4
 8008a76:	689b      	ldr	r3, [r3, #8]
 8008a78:	2b00      	cmp	r3, #0
 8008a7a:	d00b      	beq.n	8008a94 <USBD_GetDescriptor+0x178>
          {
            pbuf = pdev->pDesc->GetManufacturerStrDescriptor(pdev->dev_speed, &len);
 8008a7c:	687b      	ldr	r3, [r7, #4]
 8008a7e:	f8d3 32b4 	ldr.w	r3, [r3, #692]	@ 0x2b4
 8008a82:	689b      	ldr	r3, [r3, #8]
 8008a84:	687a      	ldr	r2, [r7, #4]
 8008a86:	7c12      	ldrb	r2, [r2, #16]
 8008a88:	f107 0108 	add.w	r1, r7, #8
 8008a8c:	4610      	mov	r0, r2
 8008a8e:	4798      	blx	r3
 8008a90:	60f8      	str	r0, [r7, #12]
          else
          {
            USBD_CtlError(pdev, req);
            err++;
          }
          break;
 8008a92:	e077      	b.n	8008b84 <USBD_GetDescriptor+0x268>
            USBD_CtlError(pdev, req);
 8008a94:	6839      	ldr	r1, [r7, #0]
 8008a96:	6878      	ldr	r0, [r7, #4]
 8008a98:	f000 fab1 	bl	8008ffe <USBD_CtlError>
            err++;
 8008a9c:	7afb      	ldrb	r3, [r7, #11]
 8008a9e:	3301      	adds	r3, #1
 8008aa0:	72fb      	strb	r3, [r7, #11]
          break;
 8008aa2:	e06f      	b.n	8008b84 <USBD_GetDescriptor+0x268>

        case USBD_IDX_PRODUCT_STR:
          if (pdev->pDesc->GetProductStrDescriptor != NULL)
 8008aa4:	687b      	ldr	r3, [r7, #4]
 8008aa6:	f8d3 32b4 	ldr.w	r3, [r3, #692]	@ 0x2b4
 8008aaa:	68db      	ldr	r3, [r3, #12]
 8008aac:	2b00      	cmp	r3, #0
 8008aae:	d00b      	beq.n	8008ac8 <USBD_GetDescriptor+0x1ac>
          {
            pbuf = pdev->pDesc->GetProductStrDescriptor(pdev->dev_speed, &len);
 8008ab0:	687b      	ldr	r3, [r7, #4]
 8008ab2:	f8d3 32b4 	ldr.w	r3, [r3, #692]	@ 0x2b4
 8008ab6:	68db      	ldr	r3, [r3, #12]
 8008ab8:	687a      	ldr	r2, [r7, #4]
 8008aba:	7c12      	ldrb	r2, [r2, #16]
 8008abc:	f107 0108 	add.w	r1, r7, #8
 8008ac0:	4610      	mov	r0, r2
 8008ac2:	4798      	blx	r3
 8008ac4:	60f8      	str	r0, [r7, #12]
          else
          {
            USBD_CtlError(pdev, req);
            err++;
          }
          break;
 8008ac6:	e05d      	b.n	8008b84 <USBD_GetDescriptor+0x268>
            USBD_CtlError(pdev, req);
 8008ac8:	6839      	ldr	r1, [r7, #0]
 8008aca:	6878      	ldr	r0, [r7, #4]
 8008acc:	f000 fa97 	bl	8008ffe <USBD_CtlError>
            err++;
 8008ad0:	7afb      	ldrb	r3, [r7, #11]
 8008ad2:	3301      	adds	r3, #1
 8008ad4:	72fb      	strb	r3, [r7, #11]
          break;
 8008ad6:	e055      	b.n	8008b84 <USBD_GetDescriptor+0x268>

        case USBD_IDX_SERIAL_STR:
          if (pdev->pDesc->GetSerialStrDescriptor != NULL)
 8008ad8:	687b      	ldr	r3, [r7, #4]
 8008ada:	f8d3 32b4 	ldr.w	r3, [r3, #692]	@ 0x2b4
 8008ade:	691b      	ldr	r3, [r3, #16]
 8008ae0:	2b00      	cmp	r3, #0
 8008ae2:	d00b      	beq.n	8008afc <USBD_GetDescriptor+0x1e0>
          {
            pbuf = pdev->pDesc->GetSerialStrDescriptor(pdev->dev_speed, &len);
 8008ae4:	687b      	ldr	r3, [r7, #4]
 8008ae6:	f8d3 32b4 	ldr.w	r3, [r3, #692]	@ 0x2b4
 8008aea:	691b      	ldr	r3, [r3, #16]
 8008aec:	687a      	ldr	r2, [r7, #4]
 8008aee:	7c12      	ldrb	r2, [r2, #16]
 8008af0:	f107 0108 	add.w	r1, r7, #8
 8008af4:	4610      	mov	r0, r2
 8008af6:	4798      	blx	r3
 8008af8:	60f8      	str	r0, [r7, #12]
          else
          {
            USBD_CtlError(pdev, req);
            err++;
          }
          break;
 8008afa:	e043      	b.n	8008b84 <USBD_GetDescriptor+0x268>
            USBD_CtlError(pdev, req);
 8008afc:	6839      	ldr	r1, [r7, #0]
 8008afe:	6878      	ldr	r0, [r7, #4]
 8008b00:	f000 fa7d 	bl	8008ffe <USBD_CtlError>
            err++;
 8008b04:	7afb      	ldrb	r3, [r7, #11]
 8008b06:	3301      	adds	r3, #1
 8008b08:	72fb      	strb	r3, [r7, #11]
          break;
 8008b0a:	e03b      	b.n	8008b84 <USBD_GetDescriptor+0x268>

        case USBD_IDX_CONFIG_STR:
          if (pdev->pDesc->GetConfigurationStrDescriptor != NULL)
 8008b0c:	687b      	ldr	r3, [r7, #4]
 8008b0e:	f8d3 32b4 	ldr.w	r3, [r3, #692]	@ 0x2b4
 8008b12:	695b      	ldr	r3, [r3, #20]
 8008b14:	2b00      	cmp	r3, #0
 8008b16:	d00b      	beq.n	8008b30 <USBD_GetDescriptor+0x214>
          {
            pbuf = pdev->pDesc->GetConfigurationStrDescriptor(pdev->dev_speed, &len);
 8008b18:	687b      	ldr	r3, [r7, #4]
 8008b1a:	f8d3 32b4 	ldr.w	r3, [r3, #692]	@ 0x2b4
 8008b1e:	695b      	ldr	r3, [r3, #20]
 8008b20:	687a      	ldr	r2, [r7, #4]
 8008b22:	7c12      	ldrb	r2, [r2, #16]
 8008b24:	f107 0108 	add.w	r1, r7, #8
 8008b28:	4610      	mov	r0, r2
 8008b2a:	4798      	blx	r3
 8008b2c:	60f8      	str	r0, [r7, #12]
          else
          {
            USBD_CtlError(pdev, req);
            err++;
          }
          break;
 8008b2e:	e029      	b.n	8008b84 <USBD_GetDescriptor+0x268>
            USBD_CtlError(pdev, req);
 8008b30:	6839      	ldr	r1, [r7, #0]
 8008b32:	6878      	ldr	r0, [r7, #4]
 8008b34:	f000 fa63 	bl	8008ffe <USBD_CtlError>
            err++;
 8008b38:	7afb      	ldrb	r3, [r7, #11]
 8008b3a:	3301      	adds	r3, #1
 8008b3c:	72fb      	strb	r3, [r7, #11]
          break;
 8008b3e:	e021      	b.n	8008b84 <USBD_GetDescriptor+0x268>

        case USBD_IDX_INTERFACE_STR:
          if (pdev->pDesc->GetInterfaceStrDescriptor != NULL)
 8008b40:	687b      	ldr	r3, [r7, #4]
 8008b42:	f8d3 32b4 	ldr.w	r3, [r3, #692]	@ 0x2b4
 8008b46:	699b      	ldr	r3, [r3, #24]
 8008b48:	2b00      	cmp	r3, #0
 8008b4a:	d00b      	beq.n	8008b64 <USBD_GetDescriptor+0x248>
          {
            pbuf = pdev->pDesc->GetInterfaceStrDescriptor(pdev->dev_speed, &len);
 8008b4c:	687b      	ldr	r3, [r7, #4]
 8008b4e:	f8d3 32b4 	ldr.w	r3, [r3, #692]	@ 0x2b4
 8008b52:	699b      	ldr	r3, [r3, #24]
 8008b54:	687a      	ldr	r2, [r7, #4]
 8008b56:	7c12      	ldrb	r2, [r2, #16]
 8008b58:	f107 0108 	add.w	r1, r7, #8
 8008b5c:	4610      	mov	r0, r2
 8008b5e:	4798      	blx	r3
 8008b60:	60f8      	str	r0, [r7, #12]
          else
          {
            USBD_CtlError(pdev, req);
            err++;
          }
          break;
 8008b62:	e00f      	b.n	8008b84 <USBD_GetDescriptor+0x268>
            USBD_CtlError(pdev, req);
 8008b64:	6839      	ldr	r1, [r7, #0]
 8008b66:	6878      	ldr	r0, [r7, #4]
 8008b68:	f000 fa49 	bl	8008ffe <USBD_CtlError>
            err++;
 8008b6c:	7afb      	ldrb	r3, [r7, #11]
 8008b6e:	3301      	adds	r3, #1
 8008b70:	72fb      	strb	r3, [r7, #11]
          break;
 8008b72:	e007      	b.n	8008b84 <USBD_GetDescriptor+0x268>
            err++;
          }
#endif /* USBD_SUPPORT_USER_STRING_DESC  */

#if ((USBD_CLASS_USER_STRING_DESC == 0U) && (USBD_SUPPORT_USER_STRING_DESC == 0U))
          USBD_CtlError(pdev, req);
 8008b74:	6839      	ldr	r1, [r7, #0]
 8008b76:	6878      	ldr	r0, [r7, #4]
 8008b78:	f000 fa41 	bl	8008ffe <USBD_CtlError>
          err++;
 8008b7c:	7afb      	ldrb	r3, [r7, #11]
 8008b7e:	3301      	adds	r3, #1
 8008b80:	72fb      	strb	r3, [r7, #11]
#endif /* (USBD_CLASS_USER_STRING_DESC == 0U) && (USBD_SUPPORT_USER_STRING_DESC == 0U) */
          break;
 8008b82:	bf00      	nop
      }
      break;
 8008b84:	e037      	b.n	8008bf6 <USBD_GetDescriptor+0x2da>

    case USB_DESC_TYPE_DEVICE_QUALIFIER:
      if (pdev->dev_speed == USBD_SPEED_HIGH)
 8008b86:	687b      	ldr	r3, [r7, #4]
 8008b88:	7c1b      	ldrb	r3, [r3, #16]
 8008b8a:	2b00      	cmp	r3, #0
 8008b8c:	d109      	bne.n	8008ba2 <USBD_GetDescriptor+0x286>
          pbuf = (uint8_t *)USBD_CMPSIT.GetDeviceQualifierDescriptor(&len);
        }
        else
#endif /* USE_USBD_COMPOSITE */
        {
          pbuf = (uint8_t *)pdev->pClass[0]->GetDeviceQualifierDescriptor(&len);
 8008b8e:	687b      	ldr	r3, [r7, #4]
 8008b90:	f8d3 32b8 	ldr.w	r3, [r3, #696]	@ 0x2b8
 8008b94:	6b5b      	ldr	r3, [r3, #52]	@ 0x34
 8008b96:	f107 0208 	add.w	r2, r7, #8
 8008b9a:	4610      	mov	r0, r2
 8008b9c:	4798      	blx	r3
 8008b9e:	60f8      	str	r0, [r7, #12]
      else
      {
        USBD_CtlError(pdev, req);
        err++;
      }
      break;
 8008ba0:	e029      	b.n	8008bf6 <USBD_GetDescriptor+0x2da>
        USBD_CtlError(pdev, req);
 8008ba2:	6839      	ldr	r1, [r7, #0]
 8008ba4:	6878      	ldr	r0, [r7, #4]
 8008ba6:	f000 fa2a 	bl	8008ffe <USBD_CtlError>
        err++;
 8008baa:	7afb      	ldrb	r3, [r7, #11]
 8008bac:	3301      	adds	r3, #1
 8008bae:	72fb      	strb	r3, [r7, #11]
      break;
 8008bb0:	e021      	b.n	8008bf6 <USBD_GetDescriptor+0x2da>

    case USB_DESC_TYPE_OTHER_SPEED_CONFIGURATION:
      if (pdev->dev_speed == USBD_SPEED_HIGH)
 8008bb2:	687b      	ldr	r3, [r7, #4]
 8008bb4:	7c1b      	ldrb	r3, [r3, #16]
 8008bb6:	2b00      	cmp	r3, #0
 8008bb8:	d10d      	bne.n	8008bd6 <USBD_GetDescriptor+0x2ba>
          pbuf = (uint8_t *)USBD_CMPSIT.GetOtherSpeedConfigDescriptor(&len);
        }
        else
#endif /* USE_USBD_COMPOSITE */
        {
          pbuf = (uint8_t *)pdev->pClass[0]->GetOtherSpeedConfigDescriptor(&len);
 8008bba:	687b      	ldr	r3, [r7, #4]
 8008bbc:	f8d3 32b8 	ldr.w	r3, [r3, #696]	@ 0x2b8
 8008bc0:	6b1b      	ldr	r3, [r3, #48]	@ 0x30
 8008bc2:	f107 0208 	add.w	r2, r7, #8
 8008bc6:	4610      	mov	r0, r2
 8008bc8:	4798      	blx	r3
 8008bca:	60f8      	str	r0, [r7, #12]
        }
        pbuf[1] = USB_DESC_TYPE_OTHER_SPEED_CONFIGURATION;
 8008bcc:	68fb      	ldr	r3, [r7, #12]
 8008bce:	3301      	adds	r3, #1
 8008bd0:	2207      	movs	r2, #7
 8008bd2:	701a      	strb	r2, [r3, #0]
      else
      {
        USBD_CtlError(pdev, req);
        err++;
      }
      break;
 8008bd4:	e00f      	b.n	8008bf6 <USBD_GetDescriptor+0x2da>
        USBD_CtlError(pdev, req);
 8008bd6:	6839      	ldr	r1, [r7, #0]
 8008bd8:	6878      	ldr	r0, [r7, #4]
 8008bda:	f000 fa10 	bl	8008ffe <USBD_CtlError>
        err++;
 8008bde:	7afb      	ldrb	r3, [r7, #11]
 8008be0:	3301      	adds	r3, #1
 8008be2:	72fb      	strb	r3, [r7, #11]
      break;
 8008be4:	e007      	b.n	8008bf6 <USBD_GetDescriptor+0x2da>

    default:
      USBD_CtlError(pdev, req);
 8008be6:	6839      	ldr	r1, [r7, #0]
 8008be8:	6878      	ldr	r0, [r7, #4]
 8008bea:	f000 fa08 	bl	8008ffe <USBD_CtlError>
      err++;
 8008bee:	7afb      	ldrb	r3, [r7, #11]
 8008bf0:	3301      	adds	r3, #1
 8008bf2:	72fb      	strb	r3, [r7, #11]
      break;
 8008bf4:	bf00      	nop
  }

  if (err != 0U)
 8008bf6:	7afb      	ldrb	r3, [r7, #11]
 8008bf8:	2b00      	cmp	r3, #0
 8008bfa:	d11e      	bne.n	8008c3a <USBD_GetDescriptor+0x31e>
  {
    return;
  }

  if (req->wLength != 0U)
 8008bfc:	683b      	ldr	r3, [r7, #0]
 8008bfe:	88db      	ldrh	r3, [r3, #6]
 8008c00:	2b00      	cmp	r3, #0
 8008c02:	d016      	beq.n	8008c32 <USBD_GetDescriptor+0x316>
  {
    if (len != 0U)
 8008c04:	893b      	ldrh	r3, [r7, #8]
 8008c06:	2b00      	cmp	r3, #0
 8008c08:	d00e      	beq.n	8008c28 <USBD_GetDescriptor+0x30c>
    {
      len = MIN(len, req->wLength);
 8008c0a:	683b      	ldr	r3, [r7, #0]
 8008c0c:	88da      	ldrh	r2, [r3, #6]
 8008c0e:	893b      	ldrh	r3, [r7, #8]
 8008c10:	4293      	cmp	r3, r2
 8008c12:	bf28      	it	cs
 8008c14:	4613      	movcs	r3, r2
 8008c16:	b29b      	uxth	r3, r3
 8008c18:	813b      	strh	r3, [r7, #8]
      (void)USBD_CtlSendData(pdev, pbuf, len);
 8008c1a:	893b      	ldrh	r3, [r7, #8]
 8008c1c:	461a      	mov	r2, r3
 8008c1e:	68f9      	ldr	r1, [r7, #12]
 8008c20:	6878      	ldr	r0, [r7, #4]
 8008c22:	f000 fa69 	bl	80090f8 <USBD_CtlSendData>
 8008c26:	e009      	b.n	8008c3c <USBD_GetDescriptor+0x320>
    }
    else
    {
      USBD_CtlError(pdev, req);
 8008c28:	6839      	ldr	r1, [r7, #0]
 8008c2a:	6878      	ldr	r0, [r7, #4]
 8008c2c:	f000 f9e7 	bl	8008ffe <USBD_CtlError>
 8008c30:	e004      	b.n	8008c3c <USBD_GetDescriptor+0x320>
    }
  }
  else
  {
    (void)USBD_CtlSendStatus(pdev);
 8008c32:	6878      	ldr	r0, [r7, #4]
 8008c34:	f000 fac1 	bl	80091ba <USBD_CtlSendStatus>
 8008c38:	e000      	b.n	8008c3c <USBD_GetDescriptor+0x320>
    return;
 8008c3a:	bf00      	nop
  }
}
 8008c3c:	3710      	adds	r7, #16
 8008c3e:	46bd      	mov	sp, r7
 8008c40:	bd80      	pop	{r7, pc}
 8008c42:	bf00      	nop

08008c44 <USBD_SetAddress>:
  * @param  pdev: device instance
  * @param  req: usb request
  * @retval None
  */
static void USBD_SetAddress(USBD_HandleTypeDef *pdev, USBD_SetupReqTypedef *req)
{
 8008c44:	b580      	push	{r7, lr}
 8008c46:	b084      	sub	sp, #16
 8008c48:	af00      	add	r7, sp, #0
 8008c4a:	6078      	str	r0, [r7, #4]
 8008c4c:	6039      	str	r1, [r7, #0]
  uint8_t  dev_addr;

  if ((req->wIndex == 0U) && (req->wLength == 0U) && (req->wValue < 128U))
 8008c4e:	683b      	ldr	r3, [r7, #0]
 8008c50:	889b      	ldrh	r3, [r3, #4]
 8008c52:	2b00      	cmp	r3, #0
 8008c54:	d131      	bne.n	8008cba <USBD_SetAddress+0x76>
 8008c56:	683b      	ldr	r3, [r7, #0]
 8008c58:	88db      	ldrh	r3, [r3, #6]
 8008c5a:	2b00      	cmp	r3, #0
 8008c5c:	d12d      	bne.n	8008cba <USBD_SetAddress+0x76>
 8008c5e:	683b      	ldr	r3, [r7, #0]
 8008c60:	885b      	ldrh	r3, [r3, #2]
 8008c62:	2b7f      	cmp	r3, #127	@ 0x7f
 8008c64:	d829      	bhi.n	8008cba <USBD_SetAddress+0x76>
  {
    dev_addr = (uint8_t)(req->wValue) & 0x7FU;
 8008c66:	683b      	ldr	r3, [r7, #0]
 8008c68:	885b      	ldrh	r3, [r3, #2]
 8008c6a:	b2db      	uxtb	r3, r3
 8008c6c:	f003 037f 	and.w	r3, r3, #127	@ 0x7f
 8008c70:	73fb      	strb	r3, [r7, #15]

    if (pdev->dev_state == USBD_STATE_CONFIGURED)
 8008c72:	687b      	ldr	r3, [r7, #4]
 8008c74:	f893 329c 	ldrb.w	r3, [r3, #668]	@ 0x29c
 8008c78:	b2db      	uxtb	r3, r3
 8008c7a:	2b03      	cmp	r3, #3
 8008c7c:	d104      	bne.n	8008c88 <USBD_SetAddress+0x44>
    {
      USBD_CtlError(pdev, req);
 8008c7e:	6839      	ldr	r1, [r7, #0]
 8008c80:	6878      	ldr	r0, [r7, #4]
 8008c82:	f000 f9bc 	bl	8008ffe <USBD_CtlError>
    if (pdev->dev_state == USBD_STATE_CONFIGURED)
 8008c86:	e01d      	b.n	8008cc4 <USBD_SetAddress+0x80>
    }
    else
    {
      pdev->dev_address = dev_addr;
 8008c88:	687b      	ldr	r3, [r7, #4]
 8008c8a:	7bfa      	ldrb	r2, [r7, #15]
 8008c8c:	f883 229e 	strb.w	r2, [r3, #670]	@ 0x29e
      (void)USBD_LL_SetUSBAddress(pdev, dev_addr);
 8008c90:	7bfb      	ldrb	r3, [r7, #15]
 8008c92:	4619      	mov	r1, r3
 8008c94:	6878      	ldr	r0, [r7, #4]
 8008c96:	f000 ff19 	bl	8009acc <USBD_LL_SetUSBAddress>
      (void)USBD_CtlSendStatus(pdev);
 8008c9a:	6878      	ldr	r0, [r7, #4]
 8008c9c:	f000 fa8d 	bl	80091ba <USBD_CtlSendStatus>

      if (dev_addr != 0U)
 8008ca0:	7bfb      	ldrb	r3, [r7, #15]
 8008ca2:	2b00      	cmp	r3, #0
 8008ca4:	d004      	beq.n	8008cb0 <USBD_SetAddress+0x6c>
      {
        pdev->dev_state = USBD_STATE_ADDRESSED;
 8008ca6:	687b      	ldr	r3, [r7, #4]
 8008ca8:	2202      	movs	r2, #2
 8008caa:	f883 229c 	strb.w	r2, [r3, #668]	@ 0x29c
    if (pdev->dev_state == USBD_STATE_CONFIGURED)
 8008cae:	e009      	b.n	8008cc4 <USBD_SetAddress+0x80>
      }
      else
      {
        pdev->dev_state = USBD_STATE_DEFAULT;
 8008cb0:	687b      	ldr	r3, [r7, #4]
 8008cb2:	2201      	movs	r2, #1
 8008cb4:	f883 229c 	strb.w	r2, [r3, #668]	@ 0x29c
    if (pdev->dev_state == USBD_STATE_CONFIGURED)
 8008cb8:	e004      	b.n	8008cc4 <USBD_SetAddress+0x80>
      }
    }
  }
  else
  {
    USBD_CtlError(pdev, req);
 8008cba:	6839      	ldr	r1, [r7, #0]
 8008cbc:	6878      	ldr	r0, [r7, #4]
 8008cbe:	f000 f99e 	bl	8008ffe <USBD_CtlError>
  }
}
 8008cc2:	bf00      	nop
 8008cc4:	bf00      	nop
 8008cc6:	3710      	adds	r7, #16
 8008cc8:	46bd      	mov	sp, r7
 8008cca:	bd80      	pop	{r7, pc}

08008ccc <USBD_SetConfig>:
  * @param  pdev: device instance
  * @param  req: usb request
  * @retval status
  */
static USBD_StatusTypeDef USBD_SetConfig(USBD_HandleTypeDef *pdev, USBD_SetupReqTypedef *req)
{
 8008ccc:	b580      	push	{r7, lr}
 8008cce:	b084      	sub	sp, #16
 8008cd0:	af00      	add	r7, sp, #0
 8008cd2:	6078      	str	r0, [r7, #4]
 8008cd4:	6039      	str	r1, [r7, #0]
  USBD_StatusTypeDef ret = USBD_OK;
 8008cd6:	2300      	movs	r3, #0
 8008cd8:	73fb      	strb	r3, [r7, #15]
  static uint8_t cfgidx;

  cfgidx = (uint8_t)(req->wValue);
 8008cda:	683b      	ldr	r3, [r7, #0]
 8008cdc:	885b      	ldrh	r3, [r3, #2]
 8008cde:	b2da      	uxtb	r2, r3
 8008ce0:	4b4e      	ldr	r3, [pc, #312]	@ (8008e1c <USBD_SetConfig+0x150>)
 8008ce2:	701a      	strb	r2, [r3, #0]

  if (cfgidx > USBD_MAX_NUM_CONFIGURATION)
 8008ce4:	4b4d      	ldr	r3, [pc, #308]	@ (8008e1c <USBD_SetConfig+0x150>)
 8008ce6:	781b      	ldrb	r3, [r3, #0]
 8008ce8:	2b01      	cmp	r3, #1
 8008cea:	d905      	bls.n	8008cf8 <USBD_SetConfig+0x2c>
  {
    USBD_CtlError(pdev, req);
 8008cec:	6839      	ldr	r1, [r7, #0]
 8008cee:	6878      	ldr	r0, [r7, #4]
 8008cf0:	f000 f985 	bl	8008ffe <USBD_CtlError>
    return USBD_FAIL;
 8008cf4:	2303      	movs	r3, #3
 8008cf6:	e08c      	b.n	8008e12 <USBD_SetConfig+0x146>
  }

  switch (pdev->dev_state)
 8008cf8:	687b      	ldr	r3, [r7, #4]
 8008cfa:	f893 329c 	ldrb.w	r3, [r3, #668]	@ 0x29c
 8008cfe:	b2db      	uxtb	r3, r3
 8008d00:	2b02      	cmp	r3, #2
 8008d02:	d002      	beq.n	8008d0a <USBD_SetConfig+0x3e>
 8008d04:	2b03      	cmp	r3, #3
 8008d06:	d029      	beq.n	8008d5c <USBD_SetConfig+0x90>
 8008d08:	e075      	b.n	8008df6 <USBD_SetConfig+0x12a>
  {
    case USBD_STATE_ADDRESSED:
      if (cfgidx != 0U)
 8008d0a:	4b44      	ldr	r3, [pc, #272]	@ (8008e1c <USBD_SetConfig+0x150>)
 8008d0c:	781b      	ldrb	r3, [r3, #0]
 8008d0e:	2b00      	cmp	r3, #0
 8008d10:	d020      	beq.n	8008d54 <USBD_SetConfig+0x88>
      {
        pdev->dev_config = cfgidx;
 8008d12:	4b42      	ldr	r3, [pc, #264]	@ (8008e1c <USBD_SetConfig+0x150>)
 8008d14:	781b      	ldrb	r3, [r3, #0]
 8008d16:	461a      	mov	r2, r3
 8008d18:	687b      	ldr	r3, [r7, #4]
 8008d1a:	605a      	str	r2, [r3, #4]

        ret = USBD_SetClassConfig(pdev, cfgidx);
 8008d1c:	4b3f      	ldr	r3, [pc, #252]	@ (8008e1c <USBD_SetConfig+0x150>)
 8008d1e:	781b      	ldrb	r3, [r3, #0]
 8008d20:	4619      	mov	r1, r3
 8008d22:	6878      	ldr	r0, [r7, #4]
 8008d24:	f7fe ffa3 	bl	8007c6e <USBD_SetClassConfig>
 8008d28:	4603      	mov	r3, r0
 8008d2a:	73fb      	strb	r3, [r7, #15]

        if (ret != USBD_OK)
 8008d2c:	7bfb      	ldrb	r3, [r7, #15]
 8008d2e:	2b00      	cmp	r3, #0
 8008d30:	d008      	beq.n	8008d44 <USBD_SetConfig+0x78>
        {
          USBD_CtlError(pdev, req);
 8008d32:	6839      	ldr	r1, [r7, #0]
 8008d34:	6878      	ldr	r0, [r7, #4]
 8008d36:	f000 f962 	bl	8008ffe <USBD_CtlError>
          pdev->dev_state = USBD_STATE_ADDRESSED;
 8008d3a:	687b      	ldr	r3, [r7, #4]
 8008d3c:	2202      	movs	r2, #2
 8008d3e:	f883 229c 	strb.w	r2, [r3, #668]	@ 0x29c
      }
      else
      {
        (void)USBD_CtlSendStatus(pdev);
      }
      break;
 8008d42:	e065      	b.n	8008e10 <USBD_SetConfig+0x144>
          (void)USBD_CtlSendStatus(pdev);
 8008d44:	6878      	ldr	r0, [r7, #4]
 8008d46:	f000 fa38 	bl	80091ba <USBD_CtlSendStatus>
          pdev->dev_state = USBD_STATE_CONFIGURED;
 8008d4a:	687b      	ldr	r3, [r7, #4]
 8008d4c:	2203      	movs	r2, #3
 8008d4e:	f883 229c 	strb.w	r2, [r3, #668]	@ 0x29c
      break;
 8008d52:	e05d      	b.n	8008e10 <USBD_SetConfig+0x144>
        (void)USBD_CtlSendStatus(pdev);
 8008d54:	6878      	ldr	r0, [r7, #4]
 8008d56:	f000 fa30 	bl	80091ba <USBD_CtlSendStatus>
      break;
 8008d5a:	e059      	b.n	8008e10 <USBD_SetConfig+0x144>

    case USBD_STATE_CONFIGURED:
      if (cfgidx == 0U)
 8008d5c:	4b2f      	ldr	r3, [pc, #188]	@ (8008e1c <USBD_SetConfig+0x150>)
 8008d5e:	781b      	ldrb	r3, [r3, #0]
 8008d60:	2b00      	cmp	r3, #0
 8008d62:	d112      	bne.n	8008d8a <USBD_SetConfig+0xbe>
      {
        pdev->dev_state = USBD_STATE_ADDRESSED;
 8008d64:	687b      	ldr	r3, [r7, #4]
 8008d66:	2202      	movs	r2, #2
 8008d68:	f883 229c 	strb.w	r2, [r3, #668]	@ 0x29c
        pdev->dev_config = cfgidx;
 8008d6c:	4b2b      	ldr	r3, [pc, #172]	@ (8008e1c <USBD_SetConfig+0x150>)
 8008d6e:	781b      	ldrb	r3, [r3, #0]
 8008d70:	461a      	mov	r2, r3
 8008d72:	687b      	ldr	r3, [r7, #4]
 8008d74:	605a      	str	r2, [r3, #4]
        (void)USBD_ClrClassConfig(pdev, cfgidx);
 8008d76:	4b29      	ldr	r3, [pc, #164]	@ (8008e1c <USBD_SetConfig+0x150>)
 8008d78:	781b      	ldrb	r3, [r3, #0]
 8008d7a:	4619      	mov	r1, r3
 8008d7c:	6878      	ldr	r0, [r7, #4]
 8008d7e:	f7fe ff92 	bl	8007ca6 <USBD_ClrClassConfig>
        (void)USBD_CtlSendStatus(pdev);
 8008d82:	6878      	ldr	r0, [r7, #4]
 8008d84:	f000 fa19 	bl	80091ba <USBD_CtlSendStatus>
      }
      else
      {
        (void)USBD_CtlSendStatus(pdev);
      }
      break;
 8008d88:	e042      	b.n	8008e10 <USBD_SetConfig+0x144>
      else if (cfgidx != pdev->dev_config)
 8008d8a:	4b24      	ldr	r3, [pc, #144]	@ (8008e1c <USBD_SetConfig+0x150>)
 8008d8c:	781b      	ldrb	r3, [r3, #0]
 8008d8e:	461a      	mov	r2, r3
 8008d90:	687b      	ldr	r3, [r7, #4]
 8008d92:	685b      	ldr	r3, [r3, #4]
 8008d94:	429a      	cmp	r2, r3
 8008d96:	d02a      	beq.n	8008dee <USBD_SetConfig+0x122>
        (void)USBD_ClrClassConfig(pdev, (uint8_t)pdev->dev_config);
 8008d98:	687b      	ldr	r3, [r7, #4]
 8008d9a:	685b      	ldr	r3, [r3, #4]
 8008d9c:	b2db      	uxtb	r3, r3
 8008d9e:	4619      	mov	r1, r3
 8008da0:	6878      	ldr	r0, [r7, #4]
 8008da2:	f7fe ff80 	bl	8007ca6 <USBD_ClrClassConfig>
        pdev->dev_config = cfgidx;
 8008da6:	4b1d      	ldr	r3, [pc, #116]	@ (8008e1c <USBD_SetConfig+0x150>)
 8008da8:	781b      	ldrb	r3, [r3, #0]
 8008daa:	461a      	mov	r2, r3
 8008dac:	687b      	ldr	r3, [r7, #4]
 8008dae:	605a      	str	r2, [r3, #4]
        ret = USBD_SetClassConfig(pdev, cfgidx);
 8008db0:	4b1a      	ldr	r3, [pc, #104]	@ (8008e1c <USBD_SetConfig+0x150>)
 8008db2:	781b      	ldrb	r3, [r3, #0]
 8008db4:	4619      	mov	r1, r3
 8008db6:	6878      	ldr	r0, [r7, #4]
 8008db8:	f7fe ff59 	bl	8007c6e <USBD_SetClassConfig>
 8008dbc:	4603      	mov	r3, r0
 8008dbe:	73fb      	strb	r3, [r7, #15]
        if (ret != USBD_OK)
 8008dc0:	7bfb      	ldrb	r3, [r7, #15]
 8008dc2:	2b00      	cmp	r3, #0
 8008dc4:	d00f      	beq.n	8008de6 <USBD_SetConfig+0x11a>
          USBD_CtlError(pdev, req);
 8008dc6:	6839      	ldr	r1, [r7, #0]
 8008dc8:	6878      	ldr	r0, [r7, #4]
 8008dca:	f000 f918 	bl	8008ffe <USBD_CtlError>
          (void)USBD_ClrClassConfig(pdev, (uint8_t)pdev->dev_config);
 8008dce:	687b      	ldr	r3, [r7, #4]
 8008dd0:	685b      	ldr	r3, [r3, #4]
 8008dd2:	b2db      	uxtb	r3, r3
 8008dd4:	4619      	mov	r1, r3
 8008dd6:	6878      	ldr	r0, [r7, #4]
 8008dd8:	f7fe ff65 	bl	8007ca6 <USBD_ClrClassConfig>
          pdev->dev_state = USBD_STATE_ADDRESSED;
 8008ddc:	687b      	ldr	r3, [r7, #4]
 8008dde:	2202      	movs	r2, #2
 8008de0:	f883 229c 	strb.w	r2, [r3, #668]	@ 0x29c
      break;
 8008de4:	e014      	b.n	8008e10 <USBD_SetConfig+0x144>
          (void)USBD_CtlSendStatus(pdev);
 8008de6:	6878      	ldr	r0, [r7, #4]
 8008de8:	f000 f9e7 	bl	80091ba <USBD_CtlSendStatus>
      break;
 8008dec:	e010      	b.n	8008e10 <USBD_SetConfig+0x144>
        (void)USBD_CtlSendStatus(pdev);
 8008dee:	6878      	ldr	r0, [r7, #4]
 8008df0:	f000 f9e3 	bl	80091ba <USBD_CtlSendStatus>
      break;
 8008df4:	e00c      	b.n	8008e10 <USBD_SetConfig+0x144>

    default:
      USBD_CtlError(pdev, req);
 8008df6:	6839      	ldr	r1, [r7, #0]
 8008df8:	6878      	ldr	r0, [r7, #4]
 8008dfa:	f000 f900 	bl	8008ffe <USBD_CtlError>
      (void)USBD_ClrClassConfig(pdev, cfgidx);
 8008dfe:	4b07      	ldr	r3, [pc, #28]	@ (8008e1c <USBD_SetConfig+0x150>)
 8008e00:	781b      	ldrb	r3, [r3, #0]
 8008e02:	4619      	mov	r1, r3
 8008e04:	6878      	ldr	r0, [r7, #4]
 8008e06:	f7fe ff4e 	bl	8007ca6 <USBD_ClrClassConfig>
      ret = USBD_FAIL;
 8008e0a:	2303      	movs	r3, #3
 8008e0c:	73fb      	strb	r3, [r7, #15]
      break;
 8008e0e:	bf00      	nop
  }

  return ret;
 8008e10:	7bfb      	ldrb	r3, [r7, #15]
}
 8008e12:	4618      	mov	r0, r3
 8008e14:	3710      	adds	r7, #16
 8008e16:	46bd      	mov	sp, r7
 8008e18:	bd80      	pop	{r7, pc}
 8008e1a:	bf00      	nop
 8008e1c:	240004a0 	.word	0x240004a0

08008e20 <USBD_GetConfig>:
  * @param  pdev: device instance
  * @param  req: usb request
  * @retval None
  */
static void USBD_GetConfig(USBD_HandleTypeDef *pdev, USBD_SetupReqTypedef *req)
{
 8008e20:	b580      	push	{r7, lr}
 8008e22:	b082      	sub	sp, #8
 8008e24:	af00      	add	r7, sp, #0
 8008e26:	6078      	str	r0, [r7, #4]
 8008e28:	6039      	str	r1, [r7, #0]
  if (req->wLength != 1U)
 8008e2a:	683b      	ldr	r3, [r7, #0]
 8008e2c:	88db      	ldrh	r3, [r3, #6]
 8008e2e:	2b01      	cmp	r3, #1
 8008e30:	d004      	beq.n	8008e3c <USBD_GetConfig+0x1c>
  {
    USBD_CtlError(pdev, req);
 8008e32:	6839      	ldr	r1, [r7, #0]
 8008e34:	6878      	ldr	r0, [r7, #4]
 8008e36:	f000 f8e2 	bl	8008ffe <USBD_CtlError>
      default:
        USBD_CtlError(pdev, req);
        break;
    }
  }
}
 8008e3a:	e023      	b.n	8008e84 <USBD_GetConfig+0x64>
    switch (pdev->dev_state)
 8008e3c:	687b      	ldr	r3, [r7, #4]
 8008e3e:	f893 329c 	ldrb.w	r3, [r3, #668]	@ 0x29c
 8008e42:	b2db      	uxtb	r3, r3
 8008e44:	2b02      	cmp	r3, #2
 8008e46:	dc02      	bgt.n	8008e4e <USBD_GetConfig+0x2e>
 8008e48:	2b00      	cmp	r3, #0
 8008e4a:	dc03      	bgt.n	8008e54 <USBD_GetConfig+0x34>
 8008e4c:	e015      	b.n	8008e7a <USBD_GetConfig+0x5a>
 8008e4e:	2b03      	cmp	r3, #3
 8008e50:	d00b      	beq.n	8008e6a <USBD_GetConfig+0x4a>
 8008e52:	e012      	b.n	8008e7a <USBD_GetConfig+0x5a>
        pdev->dev_default_config = 0U;
 8008e54:	687b      	ldr	r3, [r7, #4]
 8008e56:	2200      	movs	r2, #0
 8008e58:	609a      	str	r2, [r3, #8]
        (void)USBD_CtlSendData(pdev, (uint8_t *)&pdev->dev_default_config, 1U);
 8008e5a:	687b      	ldr	r3, [r7, #4]
 8008e5c:	3308      	adds	r3, #8
 8008e5e:	2201      	movs	r2, #1
 8008e60:	4619      	mov	r1, r3
 8008e62:	6878      	ldr	r0, [r7, #4]
 8008e64:	f000 f948 	bl	80090f8 <USBD_CtlSendData>
        break;
 8008e68:	e00c      	b.n	8008e84 <USBD_GetConfig+0x64>
        (void)USBD_CtlSendData(pdev, (uint8_t *)&pdev->dev_config, 1U);
 8008e6a:	687b      	ldr	r3, [r7, #4]
 8008e6c:	3304      	adds	r3, #4
 8008e6e:	2201      	movs	r2, #1
 8008e70:	4619      	mov	r1, r3
 8008e72:	6878      	ldr	r0, [r7, #4]
 8008e74:	f000 f940 	bl	80090f8 <USBD_CtlSendData>
        break;
 8008e78:	e004      	b.n	8008e84 <USBD_GetConfig+0x64>
        USBD_CtlError(pdev, req);
 8008e7a:	6839      	ldr	r1, [r7, #0]
 8008e7c:	6878      	ldr	r0, [r7, #4]
 8008e7e:	f000 f8be 	bl	8008ffe <USBD_CtlError>
        break;
 8008e82:	bf00      	nop
}
 8008e84:	bf00      	nop
 8008e86:	3708      	adds	r7, #8
 8008e88:	46bd      	mov	sp, r7
 8008e8a:	bd80      	pop	{r7, pc}

08008e8c <USBD_GetStatus>:
  * @param  pdev: device instance
  * @param  req: usb request
  * @retval None
  */
static void USBD_GetStatus(USBD_HandleTypeDef *pdev, USBD_SetupReqTypedef *req)
{
 8008e8c:	b580      	push	{r7, lr}
 8008e8e:	b082      	sub	sp, #8
 8008e90:	af00      	add	r7, sp, #0
 8008e92:	6078      	str	r0, [r7, #4]
 8008e94:	6039      	str	r1, [r7, #0]
  switch (pdev->dev_state)
 8008e96:	687b      	ldr	r3, [r7, #4]
 8008e98:	f893 329c 	ldrb.w	r3, [r3, #668]	@ 0x29c
 8008e9c:	b2db      	uxtb	r3, r3
 8008e9e:	3b01      	subs	r3, #1
 8008ea0:	2b02      	cmp	r3, #2
 8008ea2:	d81e      	bhi.n	8008ee2 <USBD_GetStatus+0x56>
  {
    case USBD_STATE_DEFAULT:
    case USBD_STATE_ADDRESSED:
    case USBD_STATE_CONFIGURED:
      if (req->wLength != 0x2U)
 8008ea4:	683b      	ldr	r3, [r7, #0]
 8008ea6:	88db      	ldrh	r3, [r3, #6]
 8008ea8:	2b02      	cmp	r3, #2
 8008eaa:	d004      	beq.n	8008eb6 <USBD_GetStatus+0x2a>
      {
        USBD_CtlError(pdev, req);
 8008eac:	6839      	ldr	r1, [r7, #0]
 8008eae:	6878      	ldr	r0, [r7, #4]
 8008eb0:	f000 f8a5 	bl	8008ffe <USBD_CtlError>
        break;
 8008eb4:	e01a      	b.n	8008eec <USBD_GetStatus+0x60>
      }

#if (USBD_SELF_POWERED == 1U)
      pdev->dev_config_status = USB_CONFIG_SELF_POWERED;
 8008eb6:	687b      	ldr	r3, [r7, #4]
 8008eb8:	2201      	movs	r2, #1
 8008eba:	60da      	str	r2, [r3, #12]
#else
      pdev->dev_config_status = 0U;
#endif /* USBD_SELF_POWERED */

      if (pdev->dev_remote_wakeup != 0U)
 8008ebc:	687b      	ldr	r3, [r7, #4]
 8008ebe:	f8d3 32a4 	ldr.w	r3, [r3, #676]	@ 0x2a4
 8008ec2:	2b00      	cmp	r3, #0
 8008ec4:	d005      	beq.n	8008ed2 <USBD_GetStatus+0x46>
      {
        pdev->dev_config_status |= USB_CONFIG_REMOTE_WAKEUP;
 8008ec6:	687b      	ldr	r3, [r7, #4]
 8008ec8:	68db      	ldr	r3, [r3, #12]
 8008eca:	f043 0202 	orr.w	r2, r3, #2
 8008ece:	687b      	ldr	r3, [r7, #4]
 8008ed0:	60da      	str	r2, [r3, #12]
      }

      (void)USBD_CtlSendData(pdev, (uint8_t *)&pdev->dev_config_status, 2U);
 8008ed2:	687b      	ldr	r3, [r7, #4]
 8008ed4:	330c      	adds	r3, #12
 8008ed6:	2202      	movs	r2, #2
 8008ed8:	4619      	mov	r1, r3
 8008eda:	6878      	ldr	r0, [r7, #4]
 8008edc:	f000 f90c 	bl	80090f8 <USBD_CtlSendData>
      break;
 8008ee0:	e004      	b.n	8008eec <USBD_GetStatus+0x60>

    default:
      USBD_CtlError(pdev, req);
 8008ee2:	6839      	ldr	r1, [r7, #0]
 8008ee4:	6878      	ldr	r0, [r7, #4]
 8008ee6:	f000 f88a 	bl	8008ffe <USBD_CtlError>
      break;
 8008eea:	bf00      	nop
  }
}
 8008eec:	bf00      	nop
 8008eee:	3708      	adds	r7, #8
 8008ef0:	46bd      	mov	sp, r7
 8008ef2:	bd80      	pop	{r7, pc}

08008ef4 <USBD_SetFeature>:
  * @param  pdev: device instance
  * @param  req: usb request
  * @retval None
  */
static void USBD_SetFeature(USBD_HandleTypeDef *pdev, USBD_SetupReqTypedef *req)
{
 8008ef4:	b580      	push	{r7, lr}
 8008ef6:	b082      	sub	sp, #8
 8008ef8:	af00      	add	r7, sp, #0
 8008efa:	6078      	str	r0, [r7, #4]
 8008efc:	6039      	str	r1, [r7, #0]
  if (req->wValue == USB_FEATURE_REMOTE_WAKEUP)
 8008efe:	683b      	ldr	r3, [r7, #0]
 8008f00:	885b      	ldrh	r3, [r3, #2]
 8008f02:	2b01      	cmp	r3, #1
 8008f04:	d107      	bne.n	8008f16 <USBD_SetFeature+0x22>
  {
    pdev->dev_remote_wakeup = 1U;
 8008f06:	687b      	ldr	r3, [r7, #4]
 8008f08:	2201      	movs	r2, #1
 8008f0a:	f8c3 22a4 	str.w	r2, [r3, #676]	@ 0x2a4
    (void)USBD_CtlSendStatus(pdev);
 8008f0e:	6878      	ldr	r0, [r7, #4]
 8008f10:	f000 f953 	bl	80091ba <USBD_CtlSendStatus>
  }
  else
  {
    USBD_CtlError(pdev, req);
  }
}
 8008f14:	e013      	b.n	8008f3e <USBD_SetFeature+0x4a>
  else if (req->wValue == USB_FEATURE_TEST_MODE)
 8008f16:	683b      	ldr	r3, [r7, #0]
 8008f18:	885b      	ldrh	r3, [r3, #2]
 8008f1a:	2b02      	cmp	r3, #2
 8008f1c:	d10b      	bne.n	8008f36 <USBD_SetFeature+0x42>
    pdev->dev_test_mode = (uint8_t)(req->wIndex >> 8);
 8008f1e:	683b      	ldr	r3, [r7, #0]
 8008f20:	889b      	ldrh	r3, [r3, #4]
 8008f22:	0a1b      	lsrs	r3, r3, #8
 8008f24:	b29b      	uxth	r3, r3
 8008f26:	b2da      	uxtb	r2, r3
 8008f28:	687b      	ldr	r3, [r7, #4]
 8008f2a:	f883 22a0 	strb.w	r2, [r3, #672]	@ 0x2a0
    (void)USBD_CtlSendStatus(pdev);
 8008f2e:	6878      	ldr	r0, [r7, #4]
 8008f30:	f000 f943 	bl	80091ba <USBD_CtlSendStatus>
}
 8008f34:	e003      	b.n	8008f3e <USBD_SetFeature+0x4a>
    USBD_CtlError(pdev, req);
 8008f36:	6839      	ldr	r1, [r7, #0]
 8008f38:	6878      	ldr	r0, [r7, #4]
 8008f3a:	f000 f860 	bl	8008ffe <USBD_CtlError>
}
 8008f3e:	bf00      	nop
 8008f40:	3708      	adds	r7, #8
 8008f42:	46bd      	mov	sp, r7
 8008f44:	bd80      	pop	{r7, pc}

08008f46 <USBD_ClrFeature>:
  * @param  pdev: device instance
  * @param  req: usb request
  * @retval None
  */
static void USBD_ClrFeature(USBD_HandleTypeDef *pdev, USBD_SetupReqTypedef *req)
{
 8008f46:	b580      	push	{r7, lr}
 8008f48:	b082      	sub	sp, #8
 8008f4a:	af00      	add	r7, sp, #0
 8008f4c:	6078      	str	r0, [r7, #4]
 8008f4e:	6039      	str	r1, [r7, #0]
  switch (pdev->dev_state)
 8008f50:	687b      	ldr	r3, [r7, #4]
 8008f52:	f893 329c 	ldrb.w	r3, [r3, #668]	@ 0x29c
 8008f56:	b2db      	uxtb	r3, r3
 8008f58:	3b01      	subs	r3, #1
 8008f5a:	2b02      	cmp	r3, #2
 8008f5c:	d80b      	bhi.n	8008f76 <USBD_ClrFeature+0x30>
  {
    case USBD_STATE_DEFAULT:
    case USBD_STATE_ADDRESSED:
    case USBD_STATE_CONFIGURED:
      if (req->wValue == USB_FEATURE_REMOTE_WAKEUP)
 8008f5e:	683b      	ldr	r3, [r7, #0]
 8008f60:	885b      	ldrh	r3, [r3, #2]
 8008f62:	2b01      	cmp	r3, #1
 8008f64:	d10c      	bne.n	8008f80 <USBD_ClrFeature+0x3a>
      {
        pdev->dev_remote_wakeup = 0U;
 8008f66:	687b      	ldr	r3, [r7, #4]
 8008f68:	2200      	movs	r2, #0
 8008f6a:	f8c3 22a4 	str.w	r2, [r3, #676]	@ 0x2a4
        (void)USBD_CtlSendStatus(pdev);
 8008f6e:	6878      	ldr	r0, [r7, #4]
 8008f70:	f000 f923 	bl	80091ba <USBD_CtlSendStatus>
      }
      break;
 8008f74:	e004      	b.n	8008f80 <USBD_ClrFeature+0x3a>

    default:
      USBD_CtlError(pdev, req);
 8008f76:	6839      	ldr	r1, [r7, #0]
 8008f78:	6878      	ldr	r0, [r7, #4]
 8008f7a:	f000 f840 	bl	8008ffe <USBD_CtlError>
      break;
 8008f7e:	e000      	b.n	8008f82 <USBD_ClrFeature+0x3c>
      break;
 8008f80:	bf00      	nop
  }
}
 8008f82:	bf00      	nop
 8008f84:	3708      	adds	r7, #8
 8008f86:	46bd      	mov	sp, r7
 8008f88:	bd80      	pop	{r7, pc}

08008f8a <USBD_ParseSetupRequest>:
  * @param  req: usb request
  * @param  pdata: setup data pointer
  * @retval None
  */
void USBD_ParseSetupRequest(USBD_SetupReqTypedef *req, uint8_t *pdata)
{
 8008f8a:	b580      	push	{r7, lr}
 8008f8c:	b084      	sub	sp, #16
 8008f8e:	af00      	add	r7, sp, #0
 8008f90:	6078      	str	r0, [r7, #4]
 8008f92:	6039      	str	r1, [r7, #0]
  uint8_t *pbuff = pdata;
 8008f94:	683b      	ldr	r3, [r7, #0]
 8008f96:	60fb      	str	r3, [r7, #12]

  req->bmRequest = *(uint8_t *)(pbuff);
 8008f98:	68fb      	ldr	r3, [r7, #12]
 8008f9a:	781a      	ldrb	r2, [r3, #0]
 8008f9c:	687b      	ldr	r3, [r7, #4]
 8008f9e:	701a      	strb	r2, [r3, #0]

  pbuff++;
 8008fa0:	68fb      	ldr	r3, [r7, #12]
 8008fa2:	3301      	adds	r3, #1
 8008fa4:	60fb      	str	r3, [r7, #12]
  req->bRequest = *(uint8_t *)(pbuff);
 8008fa6:	68fb      	ldr	r3, [r7, #12]
 8008fa8:	781a      	ldrb	r2, [r3, #0]
 8008faa:	687b      	ldr	r3, [r7, #4]
 8008fac:	705a      	strb	r2, [r3, #1]

  pbuff++;
 8008fae:	68fb      	ldr	r3, [r7, #12]
 8008fb0:	3301      	adds	r3, #1
 8008fb2:	60fb      	str	r3, [r7, #12]
  req->wValue = SWAPBYTE(pbuff);
 8008fb4:	68f8      	ldr	r0, [r7, #12]
 8008fb6:	f7ff fa13 	bl	80083e0 <SWAPBYTE>
 8008fba:	4603      	mov	r3, r0
 8008fbc:	461a      	mov	r2, r3
 8008fbe:	687b      	ldr	r3, [r7, #4]
 8008fc0:	805a      	strh	r2, [r3, #2]

  pbuff++;
 8008fc2:	68fb      	ldr	r3, [r7, #12]
 8008fc4:	3301      	adds	r3, #1
 8008fc6:	60fb      	str	r3, [r7, #12]
  pbuff++;
 8008fc8:	68fb      	ldr	r3, [r7, #12]
 8008fca:	3301      	adds	r3, #1
 8008fcc:	60fb      	str	r3, [r7, #12]
  req->wIndex = SWAPBYTE(pbuff);
 8008fce:	68f8      	ldr	r0, [r7, #12]
 8008fd0:	f7ff fa06 	bl	80083e0 <SWAPBYTE>
 8008fd4:	4603      	mov	r3, r0
 8008fd6:	461a      	mov	r2, r3
 8008fd8:	687b      	ldr	r3, [r7, #4]
 8008fda:	809a      	strh	r2, [r3, #4]

  pbuff++;
 8008fdc:	68fb      	ldr	r3, [r7, #12]
 8008fde:	3301      	adds	r3, #1
 8008fe0:	60fb      	str	r3, [r7, #12]
  pbuff++;
 8008fe2:	68fb      	ldr	r3, [r7, #12]
 8008fe4:	3301      	adds	r3, #1
 8008fe6:	60fb      	str	r3, [r7, #12]
  req->wLength = SWAPBYTE(pbuff);
 8008fe8:	68f8      	ldr	r0, [r7, #12]
 8008fea:	f7ff f9f9 	bl	80083e0 <SWAPBYTE>
 8008fee:	4603      	mov	r3, r0
 8008ff0:	461a      	mov	r2, r3
 8008ff2:	687b      	ldr	r3, [r7, #4]
 8008ff4:	80da      	strh	r2, [r3, #6]
}
 8008ff6:	bf00      	nop
 8008ff8:	3710      	adds	r7, #16
 8008ffa:	46bd      	mov	sp, r7
 8008ffc:	bd80      	pop	{r7, pc}

08008ffe <USBD_CtlError>:
  * @param  pdev: device instance
  * @param  req: usb request
  * @retval None
  */
void USBD_CtlError(USBD_HandleTypeDef *pdev, USBD_SetupReqTypedef *req)
{
 8008ffe:	b580      	push	{r7, lr}
 8009000:	b082      	sub	sp, #8
 8009002:	af00      	add	r7, sp, #0
 8009004:	6078      	str	r0, [r7, #4]
 8009006:	6039      	str	r1, [r7, #0]
  UNUSED(req);

  (void)USBD_LL_StallEP(pdev, 0x80U);
 8009008:	2180      	movs	r1, #128	@ 0x80
 800900a:	6878      	ldr	r0, [r7, #4]
 800900c:	f000 fcf4 	bl	80099f8 <USBD_LL_StallEP>
  (void)USBD_LL_StallEP(pdev, 0U);
 8009010:	2100      	movs	r1, #0
 8009012:	6878      	ldr	r0, [r7, #4]
 8009014:	f000 fcf0 	bl	80099f8 <USBD_LL_StallEP>
}
 8009018:	bf00      	nop
 800901a:	3708      	adds	r7, #8
 800901c:	46bd      	mov	sp, r7
 800901e:	bd80      	pop	{r7, pc}

08009020 <USBD_GetString>:
  * @param  unicode : Formatted string buffer (unicode)
  * @param  len : descriptor length
  * @retval None
  */
void USBD_GetString(uint8_t *desc, uint8_t *unicode, uint16_t *len)
{
 8009020:	b580      	push	{r7, lr}
 8009022:	b086      	sub	sp, #24
 8009024:	af00      	add	r7, sp, #0
 8009026:	60f8      	str	r0, [r7, #12]
 8009028:	60b9      	str	r1, [r7, #8]
 800902a:	607a      	str	r2, [r7, #4]
  uint8_t idx = 0U;
 800902c:	2300      	movs	r3, #0
 800902e:	75fb      	strb	r3, [r7, #23]
  uint8_t *pdesc;

  if (desc == NULL)
 8009030:	68fb      	ldr	r3, [r7, #12]
 8009032:	2b00      	cmp	r3, #0
 8009034:	d042      	beq.n	80090bc <USBD_GetString+0x9c>
  {
    return;
  }

  pdesc = desc;
 8009036:	68fb      	ldr	r3, [r7, #12]
 8009038:	613b      	str	r3, [r7, #16]
  *len = MIN(USBD_MAX_STR_DESC_SIZ, ((uint16_t)USBD_GetLen(pdesc) * 2U) + 2U);
 800903a:	6938      	ldr	r0, [r7, #16]
 800903c:	f000 f842 	bl	80090c4 <USBD_GetLen>
 8009040:	4603      	mov	r3, r0
 8009042:	3301      	adds	r3, #1
 8009044:	005b      	lsls	r3, r3, #1
 8009046:	f5b3 7f00 	cmp.w	r3, #512	@ 0x200
 800904a:	d808      	bhi.n	800905e <USBD_GetString+0x3e>
 800904c:	6938      	ldr	r0, [r7, #16]
 800904e:	f000 f839 	bl	80090c4 <USBD_GetLen>
 8009052:	4603      	mov	r3, r0
 8009054:	3301      	adds	r3, #1
 8009056:	b29b      	uxth	r3, r3
 8009058:	005b      	lsls	r3, r3, #1
 800905a:	b29a      	uxth	r2, r3
 800905c:	e001      	b.n	8009062 <USBD_GetString+0x42>
 800905e:	f44f 7200 	mov.w	r2, #512	@ 0x200
 8009062:	687b      	ldr	r3, [r7, #4]
 8009064:	801a      	strh	r2, [r3, #0]

  unicode[idx] = *(uint8_t *)len;
 8009066:	7dfb      	ldrb	r3, [r7, #23]
 8009068:	68ba      	ldr	r2, [r7, #8]
 800906a:	4413      	add	r3, r2
 800906c:	687a      	ldr	r2, [r7, #4]
 800906e:	7812      	ldrb	r2, [r2, #0]
 8009070:	701a      	strb	r2, [r3, #0]
  idx++;
 8009072:	7dfb      	ldrb	r3, [r7, #23]
 8009074:	3301      	adds	r3, #1
 8009076:	75fb      	strb	r3, [r7, #23]
  unicode[idx] = USB_DESC_TYPE_STRING;
 8009078:	7dfb      	ldrb	r3, [r7, #23]
 800907a:	68ba      	ldr	r2, [r7, #8]
 800907c:	4413      	add	r3, r2
 800907e:	2203      	movs	r2, #3
 8009080:	701a      	strb	r2, [r3, #0]
  idx++;
 8009082:	7dfb      	ldrb	r3, [r7, #23]
 8009084:	3301      	adds	r3, #1
 8009086:	75fb      	strb	r3, [r7, #23]

  while (*pdesc != (uint8_t)'\0')
 8009088:	e013      	b.n	80090b2 <USBD_GetString+0x92>
  {
    unicode[idx] = *pdesc;
 800908a:	7dfb      	ldrb	r3, [r7, #23]
 800908c:	68ba      	ldr	r2, [r7, #8]
 800908e:	4413      	add	r3, r2
 8009090:	693a      	ldr	r2, [r7, #16]
 8009092:	7812      	ldrb	r2, [r2, #0]
 8009094:	701a      	strb	r2, [r3, #0]
    pdesc++;
 8009096:	693b      	ldr	r3, [r7, #16]
 8009098:	3301      	adds	r3, #1
 800909a:	613b      	str	r3, [r7, #16]
    idx++;
 800909c:	7dfb      	ldrb	r3, [r7, #23]
 800909e:	3301      	adds	r3, #1
 80090a0:	75fb      	strb	r3, [r7, #23]

    unicode[idx] = 0U;
 80090a2:	7dfb      	ldrb	r3, [r7, #23]
 80090a4:	68ba      	ldr	r2, [r7, #8]
 80090a6:	4413      	add	r3, r2
 80090a8:	2200      	movs	r2, #0
 80090aa:	701a      	strb	r2, [r3, #0]
    idx++;
 80090ac:	7dfb      	ldrb	r3, [r7, #23]
 80090ae:	3301      	adds	r3, #1
 80090b0:	75fb      	strb	r3, [r7, #23]
  while (*pdesc != (uint8_t)'\0')
 80090b2:	693b      	ldr	r3, [r7, #16]
 80090b4:	781b      	ldrb	r3, [r3, #0]
 80090b6:	2b00      	cmp	r3, #0
 80090b8:	d1e7      	bne.n	800908a <USBD_GetString+0x6a>
 80090ba:	e000      	b.n	80090be <USBD_GetString+0x9e>
    return;
 80090bc:	bf00      	nop
  }
}
 80090be:	3718      	adds	r7, #24
 80090c0:	46bd      	mov	sp, r7
 80090c2:	bd80      	pop	{r7, pc}

080090c4 <USBD_GetLen>:
  *         return the string length
   * @param  buf : pointer to the ascii string buffer
  * @retval string length
  */
static uint8_t USBD_GetLen(uint8_t *buf)
{
 80090c4:	b480      	push	{r7}
 80090c6:	b085      	sub	sp, #20
 80090c8:	af00      	add	r7, sp, #0
 80090ca:	6078      	str	r0, [r7, #4]
  uint8_t  len = 0U;
 80090cc:	2300      	movs	r3, #0
 80090ce:	73fb      	strb	r3, [r7, #15]
  uint8_t *pbuff = buf;
 80090d0:	687b      	ldr	r3, [r7, #4]
 80090d2:	60bb      	str	r3, [r7, #8]

  while (*pbuff != (uint8_t)'\0')
 80090d4:	e005      	b.n	80090e2 <USBD_GetLen+0x1e>
  {
    len++;
 80090d6:	7bfb      	ldrb	r3, [r7, #15]
 80090d8:	3301      	adds	r3, #1
 80090da:	73fb      	strb	r3, [r7, #15]
    pbuff++;
 80090dc:	68bb      	ldr	r3, [r7, #8]
 80090de:	3301      	adds	r3, #1
 80090e0:	60bb      	str	r3, [r7, #8]
  while (*pbuff != (uint8_t)'\0')
 80090e2:	68bb      	ldr	r3, [r7, #8]
 80090e4:	781b      	ldrb	r3, [r3, #0]
 80090e6:	2b00      	cmp	r3, #0
 80090e8:	d1f5      	bne.n	80090d6 <USBD_GetLen+0x12>
  }

  return len;
 80090ea:	7bfb      	ldrb	r3, [r7, #15]
}
 80090ec:	4618      	mov	r0, r3
 80090ee:	3714      	adds	r7, #20
 80090f0:	46bd      	mov	sp, r7
 80090f2:	f85d 7b04 	ldr.w	r7, [sp], #4
 80090f6:	4770      	bx	lr

080090f8 <USBD_CtlSendData>:
  * @param  len: length of data to be sent
  * @retval status
  */
USBD_StatusTypeDef USBD_CtlSendData(USBD_HandleTypeDef *pdev,
                                    uint8_t *pbuf, uint32_t len)
{
 80090f8:	b580      	push	{r7, lr}
 80090fa:	b084      	sub	sp, #16
 80090fc:	af00      	add	r7, sp, #0
 80090fe:	60f8      	str	r0, [r7, #12]
 8009100:	60b9      	str	r1, [r7, #8]
 8009102:	607a      	str	r2, [r7, #4]
  /* Set EP0 State */
  pdev->ep0_state = USBD_EP0_DATA_IN;
 8009104:	68fb      	ldr	r3, [r7, #12]
 8009106:	2202      	movs	r2, #2
 8009108:	f8c3 2294 	str.w	r2, [r3, #660]	@ 0x294
  pdev->ep_in[0].total_length = len;
 800910c:	68fb      	ldr	r3, [r7, #12]
 800910e:	687a      	ldr	r2, [r7, #4]
 8009110:	615a      	str	r2, [r3, #20]
  pdev->ep_in[0].pbuffer = pbuf;
 8009112:	68fb      	ldr	r3, [r7, #12]
 8009114:	68ba      	ldr	r2, [r7, #8]
 8009116:	625a      	str	r2, [r3, #36]	@ 0x24

#ifdef USBD_AVOID_PACKET_SPLIT_MPS
  pdev->ep_in[0].rem_length = 0U;
#else
  pdev->ep_in[0].rem_length = len;
 8009118:	68fb      	ldr	r3, [r7, #12]
 800911a:	687a      	ldr	r2, [r7, #4]
 800911c:	619a      	str	r2, [r3, #24]
#endif /* USBD_AVOID_PACKET_SPLIT_MPS */

  /* Start the transfer */
  (void)USBD_LL_Transmit(pdev, 0x00U, pbuf, len);
 800911e:	687b      	ldr	r3, [r7, #4]
 8009120:	68ba      	ldr	r2, [r7, #8]
 8009122:	2100      	movs	r1, #0
 8009124:	68f8      	ldr	r0, [r7, #12]
 8009126:	f000 fcf0 	bl	8009b0a <USBD_LL_Transmit>

  return USBD_OK;
 800912a:	2300      	movs	r3, #0
}
 800912c:	4618      	mov	r0, r3
 800912e:	3710      	adds	r7, #16
 8009130:	46bd      	mov	sp, r7
 8009132:	bd80      	pop	{r7, pc}

08009134 <USBD_CtlContinueSendData>:
  * @param  len: length of data to be sent
  * @retval status
  */
USBD_StatusTypeDef USBD_CtlContinueSendData(USBD_HandleTypeDef *pdev,
                                            uint8_t *pbuf, uint32_t len)
{
 8009134:	b580      	push	{r7, lr}
 8009136:	b084      	sub	sp, #16
 8009138:	af00      	add	r7, sp, #0
 800913a:	60f8      	str	r0, [r7, #12]
 800913c:	60b9      	str	r1, [r7, #8]
 800913e:	607a      	str	r2, [r7, #4]
  /* Start the next transfer */
  (void)USBD_LL_Transmit(pdev, 0x00U, pbuf, len);
 8009140:	687b      	ldr	r3, [r7, #4]
 8009142:	68ba      	ldr	r2, [r7, #8]
 8009144:	2100      	movs	r1, #0
 8009146:	68f8      	ldr	r0, [r7, #12]
 8009148:	f000 fcdf 	bl	8009b0a <USBD_LL_Transmit>

  return USBD_OK;
 800914c:	2300      	movs	r3, #0
}
 800914e:	4618      	mov	r0, r3
 8009150:	3710      	adds	r7, #16
 8009152:	46bd      	mov	sp, r7
 8009154:	bd80      	pop	{r7, pc}

08009156 <USBD_CtlPrepareRx>:
  * @param  len: length of data to be received
  * @retval status
  */
USBD_StatusTypeDef USBD_CtlPrepareRx(USBD_HandleTypeDef *pdev,
                                     uint8_t *pbuf, uint32_t len)
{
 8009156:	b580      	push	{r7, lr}
 8009158:	b084      	sub	sp, #16
 800915a:	af00      	add	r7, sp, #0
 800915c:	60f8      	str	r0, [r7, #12]
 800915e:	60b9      	str	r1, [r7, #8]
 8009160:	607a      	str	r2, [r7, #4]
  /* Set EP0 State */
  pdev->ep0_state = USBD_EP0_DATA_OUT;
 8009162:	68fb      	ldr	r3, [r7, #12]
 8009164:	2203      	movs	r2, #3
 8009166:	f8c3 2294 	str.w	r2, [r3, #660]	@ 0x294
  pdev->ep_out[0].total_length = len;
 800916a:	68fb      	ldr	r3, [r7, #12]
 800916c:	687a      	ldr	r2, [r7, #4]
 800916e:	f8c3 2154 	str.w	r2, [r3, #340]	@ 0x154
  pdev->ep_out[0].pbuffer = pbuf;
 8009172:	68fb      	ldr	r3, [r7, #12]
 8009174:	68ba      	ldr	r2, [r7, #8]
 8009176:	f8c3 2164 	str.w	r2, [r3, #356]	@ 0x164

#ifdef USBD_AVOID_PACKET_SPLIT_MPS
  pdev->ep_out[0].rem_length = 0U;
#else
  pdev->ep_out[0].rem_length = len;
 800917a:	68fb      	ldr	r3, [r7, #12]
 800917c:	687a      	ldr	r2, [r7, #4]
 800917e:	f8c3 2158 	str.w	r2, [r3, #344]	@ 0x158
#endif /* USBD_AVOID_PACKET_SPLIT_MPS */

  /* Start the transfer */
  (void)USBD_LL_PrepareReceive(pdev, 0U, pbuf, len);
 8009182:	687b      	ldr	r3, [r7, #4]
 8009184:	68ba      	ldr	r2, [r7, #8]
 8009186:	2100      	movs	r1, #0
 8009188:	68f8      	ldr	r0, [r7, #12]
 800918a:	f000 fcdf 	bl	8009b4c <USBD_LL_PrepareReceive>

  return USBD_OK;
 800918e:	2300      	movs	r3, #0
}
 8009190:	4618      	mov	r0, r3
 8009192:	3710      	adds	r7, #16
 8009194:	46bd      	mov	sp, r7
 8009196:	bd80      	pop	{r7, pc}

08009198 <USBD_CtlContinueRx>:
  * @param  len: length of data to be received
  * @retval status
  */
USBD_StatusTypeDef USBD_CtlContinueRx(USBD_HandleTypeDef *pdev,
                                      uint8_t *pbuf, uint32_t len)
{
 8009198:	b580      	push	{r7, lr}
 800919a:	b084      	sub	sp, #16
 800919c:	af00      	add	r7, sp, #0
 800919e:	60f8      	str	r0, [r7, #12]
 80091a0:	60b9      	str	r1, [r7, #8]
 80091a2:	607a      	str	r2, [r7, #4]
  (void)USBD_LL_PrepareReceive(pdev, 0U, pbuf, len);
 80091a4:	687b      	ldr	r3, [r7, #4]
 80091a6:	68ba      	ldr	r2, [r7, #8]
 80091a8:	2100      	movs	r1, #0
 80091aa:	68f8      	ldr	r0, [r7, #12]
 80091ac:	f000 fcce 	bl	8009b4c <USBD_LL_PrepareReceive>

  return USBD_OK;
 80091b0:	2300      	movs	r3, #0
}
 80091b2:	4618      	mov	r0, r3
 80091b4:	3710      	adds	r7, #16
 80091b6:	46bd      	mov	sp, r7
 80091b8:	bd80      	pop	{r7, pc}

080091ba <USBD_CtlSendStatus>:
  *         send zero lzngth packet on the ctl pipe
  * @param  pdev: device instance
  * @retval status
  */
USBD_StatusTypeDef USBD_CtlSendStatus(USBD_HandleTypeDef *pdev)
{
 80091ba:	b580      	push	{r7, lr}
 80091bc:	b082      	sub	sp, #8
 80091be:	af00      	add	r7, sp, #0
 80091c0:	6078      	str	r0, [r7, #4]
  /* Set EP0 State */
  pdev->ep0_state = USBD_EP0_STATUS_IN;
 80091c2:	687b      	ldr	r3, [r7, #4]
 80091c4:	2204      	movs	r2, #4
 80091c6:	f8c3 2294 	str.w	r2, [r3, #660]	@ 0x294

  /* Start the transfer */
  (void)USBD_LL_Transmit(pdev, 0x00U, NULL, 0U);
 80091ca:	2300      	movs	r3, #0
 80091cc:	2200      	movs	r2, #0
 80091ce:	2100      	movs	r1, #0
 80091d0:	6878      	ldr	r0, [r7, #4]
 80091d2:	f000 fc9a 	bl	8009b0a <USBD_LL_Transmit>

  return USBD_OK;
 80091d6:	2300      	movs	r3, #0
}
 80091d8:	4618      	mov	r0, r3
 80091da:	3708      	adds	r7, #8
 80091dc:	46bd      	mov	sp, r7
 80091de:	bd80      	pop	{r7, pc}

080091e0 <USBD_CtlReceiveStatus>:
  *         receive zero lzngth packet on the ctl pipe
  * @param  pdev: device instance
  * @retval status
  */
USBD_StatusTypeDef USBD_CtlReceiveStatus(USBD_HandleTypeDef *pdev)
{
 80091e0:	b580      	push	{r7, lr}
 80091e2:	b082      	sub	sp, #8
 80091e4:	af00      	add	r7, sp, #0
 80091e6:	6078      	str	r0, [r7, #4]
  /* Set EP0 State */
  pdev->ep0_state = USBD_EP0_STATUS_OUT;
 80091e8:	687b      	ldr	r3, [r7, #4]
 80091ea:	2205      	movs	r2, #5
 80091ec:	f8c3 2294 	str.w	r2, [r3, #660]	@ 0x294

  /* Start the transfer */
  (void)USBD_LL_PrepareReceive(pdev, 0U, NULL, 0U);
 80091f0:	2300      	movs	r3, #0
 80091f2:	2200      	movs	r2, #0
 80091f4:	2100      	movs	r1, #0
 80091f6:	6878      	ldr	r0, [r7, #4]
 80091f8:	f000 fca8 	bl	8009b4c <USBD_LL_PrepareReceive>

  return USBD_OK;
 80091fc:	2300      	movs	r3, #0
}
 80091fe:	4618      	mov	r0, r3
 8009200:	3708      	adds	r7, #8
 8009202:	46bd      	mov	sp, r7
 8009204:	bd80      	pop	{r7, pc}
	...

08009208 <MX_USB_DEVICE_Init>:
/**
  * Init USB device Library, add supported class and start the library
  * @retval None
  */
void MX_USB_DEVICE_Init(void)
{
 8009208:	b580      	push	{r7, lr}
 800920a:	af00      	add	r7, sp, #0
  /* USER CODE BEGIN USB_DEVICE_Init_PreTreatment */

  /* USER CODE END USB_DEVICE_Init_PreTreatment */

  /* Init Device Library, add supported class and start the library. */
  if (USBD_Init(&hUsbDeviceHS, &HS_Desc, DEVICE_HS) != USBD_OK)
 800920c:	2201      	movs	r2, #1
 800920e:	4913      	ldr	r1, [pc, #76]	@ (800925c <MX_USB_DEVICE_Init+0x54>)
 8009210:	4813      	ldr	r0, [pc, #76]	@ (8009260 <MX_USB_DEVICE_Init+0x58>)
 8009212:	f7fe fcaf 	bl	8007b74 <USBD_Init>
 8009216:	4603      	mov	r3, r0
 8009218:	2b00      	cmp	r3, #0
 800921a:	d001      	beq.n	8009220 <MX_USB_DEVICE_Init+0x18>
  {
    Error_Handler();
 800921c:	f7f7 fdda 	bl	8000dd4 <Error_Handler>
  }
  if (USBD_RegisterClass(&hUsbDeviceHS, &USBD_CDC) != USBD_OK)
 8009220:	4910      	ldr	r1, [pc, #64]	@ (8009264 <MX_USB_DEVICE_Init+0x5c>)
 8009222:	480f      	ldr	r0, [pc, #60]	@ (8009260 <MX_USB_DEVICE_Init+0x58>)
 8009224:	f7fe fcd6 	bl	8007bd4 <USBD_RegisterClass>
 8009228:	4603      	mov	r3, r0
 800922a:	2b00      	cmp	r3, #0
 800922c:	d001      	beq.n	8009232 <MX_USB_DEVICE_Init+0x2a>
  {
    Error_Handler();
 800922e:	f7f7 fdd1 	bl	8000dd4 <Error_Handler>
  }
  if (USBD_CDC_RegisterInterface(&hUsbDeviceHS, &USBD_Interface_fops_HS) != USBD_OK)
 8009232:	490d      	ldr	r1, [pc, #52]	@ (8009268 <MX_USB_DEVICE_Init+0x60>)
 8009234:	480a      	ldr	r0, [pc, #40]	@ (8009260 <MX_USB_DEVICE_Init+0x58>)
 8009236:	f7fe fbcd 	bl	80079d4 <USBD_CDC_RegisterInterface>
 800923a:	4603      	mov	r3, r0
 800923c:	2b00      	cmp	r3, #0
 800923e:	d001      	beq.n	8009244 <MX_USB_DEVICE_Init+0x3c>
  {
    Error_Handler();
 8009240:	f7f7 fdc8 	bl	8000dd4 <Error_Handler>
  }
  if (USBD_Start(&hUsbDeviceHS) != USBD_OK)
 8009244:	4806      	ldr	r0, [pc, #24]	@ (8009260 <MX_USB_DEVICE_Init+0x58>)
 8009246:	f7fe fcfb 	bl	8007c40 <USBD_Start>
 800924a:	4603      	mov	r3, r0
 800924c:	2b00      	cmp	r3, #0
 800924e:	d001      	beq.n	8009254 <MX_USB_DEVICE_Init+0x4c>
  {
    Error_Handler();
 8009250:	f7f7 fdc0 	bl	8000dd4 <Error_Handler>
  }

  /* USER CODE BEGIN USB_DEVICE_Init_PostTreatment */
  HAL_PWREx_EnableUSBVoltageDetector();
 8009254:	f7f9 fe46 	bl	8002ee4 <HAL_PWREx_EnableUSBVoltageDetector>

  /* USER CODE END USB_DEVICE_Init_PostTreatment */
}
 8009258:	bf00      	nop
 800925a:	bd80      	pop	{r7, pc}
 800925c:	240000b0 	.word	0x240000b0
 8009260:	240004a4 	.word	0x240004a4
 8009264:	2400001c 	.word	0x2400001c
 8009268:	2400009c 	.word	0x2400009c

0800926c <CDC_Init_HS>:
/**
  * @brief  Initializes the CDC media low layer over the USB HS IP
  * @retval USBD_OK if all operations are OK else USBD_FAIL
  */
static int8_t CDC_Init_HS(void)
{
 800926c:	b580      	push	{r7, lr}
 800926e:	af00      	add	r7, sp, #0
  /* USER CODE BEGIN 8 */
  /* Set Application Buffers */
  USBD_CDC_SetTxBuffer(&hUsbDeviceHS, UserTxBufferHS, 0);
 8009270:	2200      	movs	r2, #0
 8009272:	4905      	ldr	r1, [pc, #20]	@ (8009288 <CDC_Init_HS+0x1c>)
 8009274:	4805      	ldr	r0, [pc, #20]	@ (800928c <CDC_Init_HS+0x20>)
 8009276:	f7fe fbc7 	bl	8007a08 <USBD_CDC_SetTxBuffer>
  USBD_CDC_SetRxBuffer(&hUsbDeviceHS, UserRxBufferHS);
 800927a:	4905      	ldr	r1, [pc, #20]	@ (8009290 <CDC_Init_HS+0x24>)
 800927c:	4803      	ldr	r0, [pc, #12]	@ (800928c <CDC_Init_HS+0x20>)
 800927e:	f7fe fbe5 	bl	8007a4c <USBD_CDC_SetRxBuffer>
  return (USBD_OK);
 8009282:	2300      	movs	r3, #0
  /* USER CODE END 8 */
}
 8009284:	4618      	mov	r0, r3
 8009286:	bd80      	pop	{r7, pc}
 8009288:	24000f80 	.word	0x24000f80
 800928c:	240004a4 	.word	0x240004a4
 8009290:	24000780 	.word	0x24000780

08009294 <CDC_DeInit_HS>:
  * @brief  DeInitializes the CDC media low layer
  * @param  None
  * @retval USBD_OK if all operations are OK else USBD_FAIL
  */
static int8_t CDC_DeInit_HS(void)
{
 8009294:	b480      	push	{r7}
 8009296:	af00      	add	r7, sp, #0
  /* USER CODE BEGIN 9 */
  return (USBD_OK);
 8009298:	2300      	movs	r3, #0
  /* USER CODE END 9 */
}
 800929a:	4618      	mov	r0, r3
 800929c:	46bd      	mov	sp, r7
 800929e:	f85d 7b04 	ldr.w	r7, [sp], #4
 80092a2:	4770      	bx	lr

080092a4 <CDC_Control_HS>:
  * @param  pbuf: Buffer containing command data (request parameters)
  * @param  length: Number of data to be sent (in bytes)
  * @retval Result of the operation: USBD_OK if all operations are OK else USBD_FAIL
  */
static int8_t CDC_Control_HS(uint8_t cmd, uint8_t* pbuf, uint16_t length)
{
 80092a4:	b480      	push	{r7}
 80092a6:	b083      	sub	sp, #12
 80092a8:	af00      	add	r7, sp, #0
 80092aa:	4603      	mov	r3, r0
 80092ac:	6039      	str	r1, [r7, #0]
 80092ae:	71fb      	strb	r3, [r7, #7]
 80092b0:	4613      	mov	r3, r2
 80092b2:	80bb      	strh	r3, [r7, #4]
  /* USER CODE BEGIN 10 */
  switch(cmd)
 80092b4:	79fb      	ldrb	r3, [r7, #7]
 80092b6:	2b23      	cmp	r3, #35	@ 0x23
 80092b8:	d84a      	bhi.n	8009350 <CDC_Control_HS+0xac>
 80092ba:	a201      	add	r2, pc, #4	@ (adr r2, 80092c0 <CDC_Control_HS+0x1c>)
 80092bc:	f852 f023 	ldr.w	pc, [r2, r3, lsl #2]
 80092c0:	08009351 	.word	0x08009351
 80092c4:	08009351 	.word	0x08009351
 80092c8:	08009351 	.word	0x08009351
 80092cc:	08009351 	.word	0x08009351
 80092d0:	08009351 	.word	0x08009351
 80092d4:	08009351 	.word	0x08009351
 80092d8:	08009351 	.word	0x08009351
 80092dc:	08009351 	.word	0x08009351
 80092e0:	08009351 	.word	0x08009351
 80092e4:	08009351 	.word	0x08009351
 80092e8:	08009351 	.word	0x08009351
 80092ec:	08009351 	.word	0x08009351
 80092f0:	08009351 	.word	0x08009351
 80092f4:	08009351 	.word	0x08009351
 80092f8:	08009351 	.word	0x08009351
 80092fc:	08009351 	.word	0x08009351
 8009300:	08009351 	.word	0x08009351
 8009304:	08009351 	.word	0x08009351
 8009308:	08009351 	.word	0x08009351
 800930c:	08009351 	.word	0x08009351
 8009310:	08009351 	.word	0x08009351
 8009314:	08009351 	.word	0x08009351
 8009318:	08009351 	.word	0x08009351
 800931c:	08009351 	.word	0x08009351
 8009320:	08009351 	.word	0x08009351
 8009324:	08009351 	.word	0x08009351
 8009328:	08009351 	.word	0x08009351
 800932c:	08009351 	.word	0x08009351
 8009330:	08009351 	.word	0x08009351
 8009334:	08009351 	.word	0x08009351
 8009338:	08009351 	.word	0x08009351
 800933c:	08009351 	.word	0x08009351
 8009340:	08009351 	.word	0x08009351
 8009344:	08009351 	.word	0x08009351
 8009348:	08009351 	.word	0x08009351
 800934c:	08009351 	.word	0x08009351
  case CDC_SEND_BREAK:

    break;

  default:
    break;
 8009350:	bf00      	nop
  }

  return (USBD_OK);
 8009352:	2300      	movs	r3, #0
  /* USER CODE END 10 */
}
 8009354:	4618      	mov	r0, r3
 8009356:	370c      	adds	r7, #12
 8009358:	46bd      	mov	sp, r7
 800935a:	f85d 7b04 	ldr.w	r7, [sp], #4
 800935e:	4770      	bx	lr

08009360 <CDC_Receive_HS>:
  * @param  Buf: Buffer of data to be received
  * @param  Len: Number of data received (in bytes)
  * @retval Result of the operation: USBD_OK if all operations are OK else USBD_FAILL
  */
static int8_t CDC_Receive_HS(uint8_t* Buf, uint32_t *Len)
{
 8009360:	b580      	push	{r7, lr}
 8009362:	b082      	sub	sp, #8
 8009364:	af00      	add	r7, sp, #0
 8009366:	6078      	str	r0, [r7, #4]
 8009368:	6039      	str	r1, [r7, #0]
  /* USER CODE BEGIN 11 */
	RobotApp_OnUsbReceive(Buf, *Len);
 800936a:	683b      	ldr	r3, [r7, #0]
 800936c:	681b      	ldr	r3, [r3, #0]
 800936e:	4619      	mov	r1, r3
 8009370:	6878      	ldr	r0, [r7, #4]
 8009372:	f7f7 f953 	bl	800061c <RobotApp_OnUsbReceive>
  USBD_CDC_SetRxBuffer(&hUsbDeviceHS, &Buf[0]);
 8009376:	6879      	ldr	r1, [r7, #4]
 8009378:	4805      	ldr	r0, [pc, #20]	@ (8009390 <CDC_Receive_HS+0x30>)
 800937a:	f7fe fb67 	bl	8007a4c <USBD_CDC_SetRxBuffer>
  USBD_CDC_ReceivePacket(&hUsbDeviceHS);
 800937e:	4804      	ldr	r0, [pc, #16]	@ (8009390 <CDC_Receive_HS+0x30>)
 8009380:	f7fe fbc2 	bl	8007b08 <USBD_CDC_ReceivePacket>
  return (USBD_OK);
 8009384:	2300      	movs	r3, #0
  /* USER CODE END 11 */
}
 8009386:	4618      	mov	r0, r3
 8009388:	3708      	adds	r7, #8
 800938a:	46bd      	mov	sp, r7
 800938c:	bd80      	pop	{r7, pc}
 800938e:	bf00      	nop
 8009390:	240004a4 	.word	0x240004a4

08009394 <CDC_Transmit_HS>:
  * @param  Buf: Buffer of data to be sent
  * @param  Len: Number of data to be sent (in bytes)
  * @retval Result of the operation: USBD_OK if all operations are OK else USBD_FAIL or USBD_BUSY
  */
uint8_t CDC_Transmit_HS(uint8_t* Buf, uint16_t Len)
{
 8009394:	b580      	push	{r7, lr}
 8009396:	b084      	sub	sp, #16
 8009398:	af00      	add	r7, sp, #0
 800939a:	6078      	str	r0, [r7, #4]
 800939c:	460b      	mov	r3, r1
 800939e:	807b      	strh	r3, [r7, #2]
  uint8_t result = USBD_OK;
 80093a0:	2300      	movs	r3, #0
 80093a2:	73fb      	strb	r3, [r7, #15]
  /* USER CODE BEGIN 12 */
  USBD_CDC_HandleTypeDef *hcdc = (USBD_CDC_HandleTypeDef*)hUsbDeviceHS.pClassData;
 80093a4:	4b0d      	ldr	r3, [pc, #52]	@ (80093dc <CDC_Transmit_HS+0x48>)
 80093a6:	f8d3 32bc 	ldr.w	r3, [r3, #700]	@ 0x2bc
 80093aa:	60bb      	str	r3, [r7, #8]
  if (hcdc->TxState != 0){
 80093ac:	68bb      	ldr	r3, [r7, #8]
 80093ae:	f8d3 3214 	ldr.w	r3, [r3, #532]	@ 0x214
 80093b2:	2b00      	cmp	r3, #0
 80093b4:	d001      	beq.n	80093ba <CDC_Transmit_HS+0x26>
    return USBD_BUSY;
 80093b6:	2301      	movs	r3, #1
 80093b8:	e00b      	b.n	80093d2 <CDC_Transmit_HS+0x3e>
  }
  USBD_CDC_SetTxBuffer(&hUsbDeviceHS, Buf, Len);
 80093ba:	887b      	ldrh	r3, [r7, #2]
 80093bc:	461a      	mov	r2, r3
 80093be:	6879      	ldr	r1, [r7, #4]
 80093c0:	4806      	ldr	r0, [pc, #24]	@ (80093dc <CDC_Transmit_HS+0x48>)
 80093c2:	f7fe fb21 	bl	8007a08 <USBD_CDC_SetTxBuffer>
  result = USBD_CDC_TransmitPacket(&hUsbDeviceHS);
 80093c6:	4805      	ldr	r0, [pc, #20]	@ (80093dc <CDC_Transmit_HS+0x48>)
 80093c8:	f7fe fb5e 	bl	8007a88 <USBD_CDC_TransmitPacket>
 80093cc:	4603      	mov	r3, r0
 80093ce:	73fb      	strb	r3, [r7, #15]
  /* USER CODE END 12 */
  return result;
 80093d0:	7bfb      	ldrb	r3, [r7, #15]
}
 80093d2:	4618      	mov	r0, r3
 80093d4:	3710      	adds	r7, #16
 80093d6:	46bd      	mov	sp, r7
 80093d8:	bd80      	pop	{r7, pc}
 80093da:	bf00      	nop
 80093dc:	240004a4 	.word	0x240004a4

080093e0 <CDC_TransmitCplt_HS>:
  * @param  Buf: Buffer of data to be received
  * @param  Len: Number of data received (in bytes)
  * @retval Result of the operation: USBD_OK if all operations are OK else USBD_FAIL
  */
static int8_t CDC_TransmitCplt_HS(uint8_t *Buf, uint32_t *Len, uint8_t epnum)
{
 80093e0:	b480      	push	{r7}
 80093e2:	b087      	sub	sp, #28
 80093e4:	af00      	add	r7, sp, #0
 80093e6:	60f8      	str	r0, [r7, #12]
 80093e8:	60b9      	str	r1, [r7, #8]
 80093ea:	4613      	mov	r3, r2
 80093ec:	71fb      	strb	r3, [r7, #7]
  uint8_t result = USBD_OK;
 80093ee:	2300      	movs	r3, #0
 80093f0:	75fb      	strb	r3, [r7, #23]
  /* USER CODE BEGIN 14 */
  UNUSED(Buf);
  UNUSED(Len);
  UNUSED(epnum);
  /* USER CODE END 14 */
  return result;
 80093f2:	f997 3017 	ldrsb.w	r3, [r7, #23]
}
 80093f6:	4618      	mov	r0, r3
 80093f8:	371c      	adds	r7, #28
 80093fa:	46bd      	mov	sp, r7
 80093fc:	f85d 7b04 	ldr.w	r7, [sp], #4
 8009400:	4770      	bx	lr
	...

08009404 <USBD_HS_DeviceDescriptor>:
  * @param  speed : Current device speed
  * @param  length : Pointer to data length variable
  * @retval Pointer to descriptor buffer
  */
uint8_t * USBD_HS_DeviceDescriptor(USBD_SpeedTypeDef speed, uint16_t *length)
{
 8009404:	b480      	push	{r7}
 8009406:	b083      	sub	sp, #12
 8009408:	af00      	add	r7, sp, #0
 800940a:	4603      	mov	r3, r0
 800940c:	6039      	str	r1, [r7, #0]
 800940e:	71fb      	strb	r3, [r7, #7]
  UNUSED(speed);
  *length = sizeof(USBD_HS_DeviceDesc);
 8009410:	683b      	ldr	r3, [r7, #0]
 8009412:	2212      	movs	r2, #18
 8009414:	801a      	strh	r2, [r3, #0]
  return USBD_HS_DeviceDesc;
 8009416:	4b03      	ldr	r3, [pc, #12]	@ (8009424 <USBD_HS_DeviceDescriptor+0x20>)
}
 8009418:	4618      	mov	r0, r3
 800941a:	370c      	adds	r7, #12
 800941c:	46bd      	mov	sp, r7
 800941e:	f85d 7b04 	ldr.w	r7, [sp], #4
 8009422:	4770      	bx	lr
 8009424:	240000d0 	.word	0x240000d0

08009428 <USBD_HS_LangIDStrDescriptor>:
  * @param  speed : Current device speed
  * @param  length : Pointer to data length variable
  * @retval Pointer to descriptor buffer
  */
uint8_t * USBD_HS_LangIDStrDescriptor(USBD_SpeedTypeDef speed, uint16_t *length)
{
 8009428:	b480      	push	{r7}
 800942a:	b083      	sub	sp, #12
 800942c:	af00      	add	r7, sp, #0
 800942e:	4603      	mov	r3, r0
 8009430:	6039      	str	r1, [r7, #0]
 8009432:	71fb      	strb	r3, [r7, #7]
  UNUSED(speed);
  *length = sizeof(USBD_LangIDDesc);
 8009434:	683b      	ldr	r3, [r7, #0]
 8009436:	2204      	movs	r2, #4
 8009438:	801a      	strh	r2, [r3, #0]
  return USBD_LangIDDesc;
 800943a:	4b03      	ldr	r3, [pc, #12]	@ (8009448 <USBD_HS_LangIDStrDescriptor+0x20>)
}
 800943c:	4618      	mov	r0, r3
 800943e:	370c      	adds	r7, #12
 8009440:	46bd      	mov	sp, r7
 8009442:	f85d 7b04 	ldr.w	r7, [sp], #4
 8009446:	4770      	bx	lr
 8009448:	240000e4 	.word	0x240000e4

0800944c <USBD_HS_ProductStrDescriptor>:
  * @param  speed : current device speed
  * @param  length : pointer to data length variable
  * @retval pointer to descriptor buffer
  */
uint8_t * USBD_HS_ProductStrDescriptor(USBD_SpeedTypeDef speed, uint16_t *length)
{
 800944c:	b580      	push	{r7, lr}
 800944e:	b082      	sub	sp, #8
 8009450:	af00      	add	r7, sp, #0
 8009452:	4603      	mov	r3, r0
 8009454:	6039      	str	r1, [r7, #0]
 8009456:	71fb      	strb	r3, [r7, #7]
  if(speed == 0)
 8009458:	79fb      	ldrb	r3, [r7, #7]
 800945a:	2b00      	cmp	r3, #0
 800945c:	d105      	bne.n	800946a <USBD_HS_ProductStrDescriptor+0x1e>
  {
    USBD_GetString((uint8_t *)USBD_PRODUCT_STRING_HS, USBD_StrDesc, length);
 800945e:	683a      	ldr	r2, [r7, #0]
 8009460:	4907      	ldr	r1, [pc, #28]	@ (8009480 <USBD_HS_ProductStrDescriptor+0x34>)
 8009462:	4808      	ldr	r0, [pc, #32]	@ (8009484 <USBD_HS_ProductStrDescriptor+0x38>)
 8009464:	f7ff fddc 	bl	8009020 <USBD_GetString>
 8009468:	e004      	b.n	8009474 <USBD_HS_ProductStrDescriptor+0x28>
  }
  else
  {
    USBD_GetString((uint8_t *)USBD_PRODUCT_STRING_HS, USBD_StrDesc, length);
 800946a:	683a      	ldr	r2, [r7, #0]
 800946c:	4904      	ldr	r1, [pc, #16]	@ (8009480 <USBD_HS_ProductStrDescriptor+0x34>)
 800946e:	4805      	ldr	r0, [pc, #20]	@ (8009484 <USBD_HS_ProductStrDescriptor+0x38>)
 8009470:	f7ff fdd6 	bl	8009020 <USBD_GetString>
  }
  return USBD_StrDesc;
 8009474:	4b02      	ldr	r3, [pc, #8]	@ (8009480 <USBD_HS_ProductStrDescriptor+0x34>)
}
 8009476:	4618      	mov	r0, r3
 8009478:	3708      	adds	r7, #8
 800947a:	46bd      	mov	sp, r7
 800947c:	bd80      	pop	{r7, pc}
 800947e:	bf00      	nop
 8009480:	24001780 	.word	0x24001780
 8009484:	08009d08 	.word	0x08009d08

08009488 <USBD_HS_ManufacturerStrDescriptor>:
  * @param  speed : Current device speed
  * @param  length : Pointer to data length variable
  * @retval Pointer to descriptor buffer
  */
uint8_t * USBD_HS_ManufacturerStrDescriptor(USBD_SpeedTypeDef speed, uint16_t *length)
{
 8009488:	b580      	push	{r7, lr}
 800948a:	b082      	sub	sp, #8
 800948c:	af00      	add	r7, sp, #0
 800948e:	4603      	mov	r3, r0
 8009490:	6039      	str	r1, [r7, #0]
 8009492:	71fb      	strb	r3, [r7, #7]
  UNUSED(speed);
  USBD_GetString((uint8_t *)USBD_MANUFACTURER_STRING, USBD_StrDesc, length);
 8009494:	683a      	ldr	r2, [r7, #0]
 8009496:	4904      	ldr	r1, [pc, #16]	@ (80094a8 <USBD_HS_ManufacturerStrDescriptor+0x20>)
 8009498:	4804      	ldr	r0, [pc, #16]	@ (80094ac <USBD_HS_ManufacturerStrDescriptor+0x24>)
 800949a:	f7ff fdc1 	bl	8009020 <USBD_GetString>
  return USBD_StrDesc;
 800949e:	4b02      	ldr	r3, [pc, #8]	@ (80094a8 <USBD_HS_ManufacturerStrDescriptor+0x20>)
}
 80094a0:	4618      	mov	r0, r3
 80094a2:	3708      	adds	r7, #8
 80094a4:	46bd      	mov	sp, r7
 80094a6:	bd80      	pop	{r7, pc}
 80094a8:	24001780 	.word	0x24001780
 80094ac:	08009d20 	.word	0x08009d20

080094b0 <USBD_HS_SerialStrDescriptor>:
  * @param  speed : Current device speed
  * @param  length : Pointer to data length variable
  * @retval Pointer to descriptor buffer
  */
uint8_t * USBD_HS_SerialStrDescriptor(USBD_SpeedTypeDef speed, uint16_t *length)
{
 80094b0:	b580      	push	{r7, lr}
 80094b2:	b082      	sub	sp, #8
 80094b4:	af00      	add	r7, sp, #0
 80094b6:	4603      	mov	r3, r0
 80094b8:	6039      	str	r1, [r7, #0]
 80094ba:	71fb      	strb	r3, [r7, #7]
  UNUSED(speed);
  *length = USB_SIZ_STRING_SERIAL;
 80094bc:	683b      	ldr	r3, [r7, #0]
 80094be:	221a      	movs	r2, #26
 80094c0:	801a      	strh	r2, [r3, #0]

  /* Update the serial number string descriptor with the data from the unique
   * ID */
  Get_SerialNum();
 80094c2:	f000 f843 	bl	800954c <Get_SerialNum>
  /* USER CODE BEGIN USBD_HS_SerialStrDescriptor */

  /* USER CODE END USBD_HS_SerialStrDescriptor */

  return (uint8_t *) USBD_StringSerial;
 80094c6:	4b02      	ldr	r3, [pc, #8]	@ (80094d0 <USBD_HS_SerialStrDescriptor+0x20>)
}
 80094c8:	4618      	mov	r0, r3
 80094ca:	3708      	adds	r7, #8
 80094cc:	46bd      	mov	sp, r7
 80094ce:	bd80      	pop	{r7, pc}
 80094d0:	240000e8 	.word	0x240000e8

080094d4 <USBD_HS_ConfigStrDescriptor>:
  * @param  speed : Current device speed
  * @param  length : Pointer to data length variable
  * @retval Pointer to descriptor buffer
  */
uint8_t * USBD_HS_ConfigStrDescriptor(USBD_SpeedTypeDef speed, uint16_t *length)
{
 80094d4:	b580      	push	{r7, lr}
 80094d6:	b082      	sub	sp, #8
 80094d8:	af00      	add	r7, sp, #0
 80094da:	4603      	mov	r3, r0
 80094dc:	6039      	str	r1, [r7, #0]
 80094de:	71fb      	strb	r3, [r7, #7]
  if(speed == USBD_SPEED_HIGH)
 80094e0:	79fb      	ldrb	r3, [r7, #7]
 80094e2:	2b00      	cmp	r3, #0
 80094e4:	d105      	bne.n	80094f2 <USBD_HS_ConfigStrDescriptor+0x1e>
  {
    USBD_GetString((uint8_t *)USBD_CONFIGURATION_STRING_HS, USBD_StrDesc, length);
 80094e6:	683a      	ldr	r2, [r7, #0]
 80094e8:	4907      	ldr	r1, [pc, #28]	@ (8009508 <USBD_HS_ConfigStrDescriptor+0x34>)
 80094ea:	4808      	ldr	r0, [pc, #32]	@ (800950c <USBD_HS_ConfigStrDescriptor+0x38>)
 80094ec:	f7ff fd98 	bl	8009020 <USBD_GetString>
 80094f0:	e004      	b.n	80094fc <USBD_HS_ConfigStrDescriptor+0x28>
  }
  else
  {
    USBD_GetString((uint8_t *)USBD_CONFIGURATION_STRING_HS, USBD_StrDesc, length);
 80094f2:	683a      	ldr	r2, [r7, #0]
 80094f4:	4904      	ldr	r1, [pc, #16]	@ (8009508 <USBD_HS_ConfigStrDescriptor+0x34>)
 80094f6:	4805      	ldr	r0, [pc, #20]	@ (800950c <USBD_HS_ConfigStrDescriptor+0x38>)
 80094f8:	f7ff fd92 	bl	8009020 <USBD_GetString>
  }
  return USBD_StrDesc;
 80094fc:	4b02      	ldr	r3, [pc, #8]	@ (8009508 <USBD_HS_ConfigStrDescriptor+0x34>)
}
 80094fe:	4618      	mov	r0, r3
 8009500:	3708      	adds	r7, #8
 8009502:	46bd      	mov	sp, r7
 8009504:	bd80      	pop	{r7, pc}
 8009506:	bf00      	nop
 8009508:	24001780 	.word	0x24001780
 800950c:	08009d34 	.word	0x08009d34

08009510 <USBD_HS_InterfaceStrDescriptor>:
  * @param  speed : Current device speed
  * @param  length : Pointer to data length variable
  * @retval Pointer to descriptor buffer
  */
uint8_t * USBD_HS_InterfaceStrDescriptor(USBD_SpeedTypeDef speed, uint16_t *length)
{
 8009510:	b580      	push	{r7, lr}
 8009512:	b082      	sub	sp, #8
 8009514:	af00      	add	r7, sp, #0
 8009516:	4603      	mov	r3, r0
 8009518:	6039      	str	r1, [r7, #0]
 800951a:	71fb      	strb	r3, [r7, #7]
  if(speed == 0)
 800951c:	79fb      	ldrb	r3, [r7, #7]
 800951e:	2b00      	cmp	r3, #0
 8009520:	d105      	bne.n	800952e <USBD_HS_InterfaceStrDescriptor+0x1e>
  {
    USBD_GetString((uint8_t *)USBD_INTERFACE_STRING_HS, USBD_StrDesc, length);
 8009522:	683a      	ldr	r2, [r7, #0]
 8009524:	4907      	ldr	r1, [pc, #28]	@ (8009544 <USBD_HS_InterfaceStrDescriptor+0x34>)
 8009526:	4808      	ldr	r0, [pc, #32]	@ (8009548 <USBD_HS_InterfaceStrDescriptor+0x38>)
 8009528:	f7ff fd7a 	bl	8009020 <USBD_GetString>
 800952c:	e004      	b.n	8009538 <USBD_HS_InterfaceStrDescriptor+0x28>
  }
  else
  {
    USBD_GetString((uint8_t *)USBD_INTERFACE_STRING_HS, USBD_StrDesc, length);
 800952e:	683a      	ldr	r2, [r7, #0]
 8009530:	4904      	ldr	r1, [pc, #16]	@ (8009544 <USBD_HS_InterfaceStrDescriptor+0x34>)
 8009532:	4805      	ldr	r0, [pc, #20]	@ (8009548 <USBD_HS_InterfaceStrDescriptor+0x38>)
 8009534:	f7ff fd74 	bl	8009020 <USBD_GetString>
  }
  return USBD_StrDesc;
 8009538:	4b02      	ldr	r3, [pc, #8]	@ (8009544 <USBD_HS_InterfaceStrDescriptor+0x34>)
}
 800953a:	4618      	mov	r0, r3
 800953c:	3708      	adds	r7, #8
 800953e:	46bd      	mov	sp, r7
 8009540:	bd80      	pop	{r7, pc}
 8009542:	bf00      	nop
 8009544:	24001780 	.word	0x24001780
 8009548:	08009d40 	.word	0x08009d40

0800954c <Get_SerialNum>:
  * @brief  Create the serial number string descriptor
  * @param  None
  * @retval None
  */
static void Get_SerialNum(void)
{
 800954c:	b580      	push	{r7, lr}
 800954e:	b084      	sub	sp, #16
 8009550:	af00      	add	r7, sp, #0
  uint32_t deviceserial0;
  uint32_t deviceserial1;
  uint32_t deviceserial2;

  deviceserial0 = *(uint32_t *) DEVICE_ID1;
 8009552:	4b0f      	ldr	r3, [pc, #60]	@ (8009590 <Get_SerialNum+0x44>)
 8009554:	681b      	ldr	r3, [r3, #0]
 8009556:	60fb      	str	r3, [r7, #12]
  deviceserial1 = *(uint32_t *) DEVICE_ID2;
 8009558:	4b0e      	ldr	r3, [pc, #56]	@ (8009594 <Get_SerialNum+0x48>)
 800955a:	681b      	ldr	r3, [r3, #0]
 800955c:	60bb      	str	r3, [r7, #8]
  deviceserial2 = *(uint32_t *) DEVICE_ID3;
 800955e:	4b0e      	ldr	r3, [pc, #56]	@ (8009598 <Get_SerialNum+0x4c>)
 8009560:	681b      	ldr	r3, [r3, #0]
 8009562:	607b      	str	r3, [r7, #4]

  deviceserial0 += deviceserial2;
 8009564:	68fa      	ldr	r2, [r7, #12]
 8009566:	687b      	ldr	r3, [r7, #4]
 8009568:	4413      	add	r3, r2
 800956a:	60fb      	str	r3, [r7, #12]

  if (deviceserial0 != 0)
 800956c:	68fb      	ldr	r3, [r7, #12]
 800956e:	2b00      	cmp	r3, #0
 8009570:	d009      	beq.n	8009586 <Get_SerialNum+0x3a>
  {
    IntToUnicode(deviceserial0, &USBD_StringSerial[2], 8);
 8009572:	2208      	movs	r2, #8
 8009574:	4909      	ldr	r1, [pc, #36]	@ (800959c <Get_SerialNum+0x50>)
 8009576:	68f8      	ldr	r0, [r7, #12]
 8009578:	f000 f814 	bl	80095a4 <IntToUnicode>
    IntToUnicode(deviceserial1, &USBD_StringSerial[18], 4);
 800957c:	2204      	movs	r2, #4
 800957e:	4908      	ldr	r1, [pc, #32]	@ (80095a0 <Get_SerialNum+0x54>)
 8009580:	68b8      	ldr	r0, [r7, #8]
 8009582:	f000 f80f 	bl	80095a4 <IntToUnicode>
  }
}
 8009586:	bf00      	nop
 8009588:	3710      	adds	r7, #16
 800958a:	46bd      	mov	sp, r7
 800958c:	bd80      	pop	{r7, pc}
 800958e:	bf00      	nop
 8009590:	1ff1e800 	.word	0x1ff1e800
 8009594:	1ff1e804 	.word	0x1ff1e804
 8009598:	1ff1e808 	.word	0x1ff1e808
 800959c:	240000ea 	.word	0x240000ea
 80095a0:	240000fa 	.word	0x240000fa

080095a4 <IntToUnicode>:
  * @param  pbuf: pointer to the buffer
  * @param  len: buffer length
  * @retval None
  */
static void IntToUnicode(uint32_t value, uint8_t * pbuf, uint8_t len)
{
 80095a4:	b480      	push	{r7}
 80095a6:	b087      	sub	sp, #28
 80095a8:	af00      	add	r7, sp, #0
 80095aa:	60f8      	str	r0, [r7, #12]
 80095ac:	60b9      	str	r1, [r7, #8]
 80095ae:	4613      	mov	r3, r2
 80095b0:	71fb      	strb	r3, [r7, #7]
  uint8_t idx = 0;
 80095b2:	2300      	movs	r3, #0
 80095b4:	75fb      	strb	r3, [r7, #23]

  for (idx = 0; idx < len; idx++)
 80095b6:	2300      	movs	r3, #0
 80095b8:	75fb      	strb	r3, [r7, #23]
 80095ba:	e027      	b.n	800960c <IntToUnicode+0x68>
  {
    if (((value >> 28)) < 0xA)
 80095bc:	68fb      	ldr	r3, [r7, #12]
 80095be:	0f1b      	lsrs	r3, r3, #28
 80095c0:	2b09      	cmp	r3, #9
 80095c2:	d80b      	bhi.n	80095dc <IntToUnicode+0x38>
    {
      pbuf[2 * idx] = (value >> 28) + '0';
 80095c4:	68fb      	ldr	r3, [r7, #12]
 80095c6:	0f1b      	lsrs	r3, r3, #28
 80095c8:	b2da      	uxtb	r2, r3
 80095ca:	7dfb      	ldrb	r3, [r7, #23]
 80095cc:	005b      	lsls	r3, r3, #1
 80095ce:	4619      	mov	r1, r3
 80095d0:	68bb      	ldr	r3, [r7, #8]
 80095d2:	440b      	add	r3, r1
 80095d4:	3230      	adds	r2, #48	@ 0x30
 80095d6:	b2d2      	uxtb	r2, r2
 80095d8:	701a      	strb	r2, [r3, #0]
 80095da:	e00a      	b.n	80095f2 <IntToUnicode+0x4e>
    }
    else
    {
      pbuf[2 * idx] = (value >> 28) + 'A' - 10;
 80095dc:	68fb      	ldr	r3, [r7, #12]
 80095de:	0f1b      	lsrs	r3, r3, #28
 80095e0:	b2da      	uxtb	r2, r3
 80095e2:	7dfb      	ldrb	r3, [r7, #23]
 80095e4:	005b      	lsls	r3, r3, #1
 80095e6:	4619      	mov	r1, r3
 80095e8:	68bb      	ldr	r3, [r7, #8]
 80095ea:	440b      	add	r3, r1
 80095ec:	3237      	adds	r2, #55	@ 0x37
 80095ee:	b2d2      	uxtb	r2, r2
 80095f0:	701a      	strb	r2, [r3, #0]
    }

    value = value << 4;
 80095f2:	68fb      	ldr	r3, [r7, #12]
 80095f4:	011b      	lsls	r3, r3, #4
 80095f6:	60fb      	str	r3, [r7, #12]

    pbuf[2 * idx + 1] = 0;
 80095f8:	7dfb      	ldrb	r3, [r7, #23]
 80095fa:	005b      	lsls	r3, r3, #1
 80095fc:	3301      	adds	r3, #1
 80095fe:	68ba      	ldr	r2, [r7, #8]
 8009600:	4413      	add	r3, r2
 8009602:	2200      	movs	r2, #0
 8009604:	701a      	strb	r2, [r3, #0]
  for (idx = 0; idx < len; idx++)
 8009606:	7dfb      	ldrb	r3, [r7, #23]
 8009608:	3301      	adds	r3, #1
 800960a:	75fb      	strb	r3, [r7, #23]
 800960c:	7dfa      	ldrb	r2, [r7, #23]
 800960e:	79fb      	ldrb	r3, [r7, #7]
 8009610:	429a      	cmp	r2, r3
 8009612:	d3d3      	bcc.n	80095bc <IntToUnicode+0x18>
  }
}
 8009614:	bf00      	nop
 8009616:	bf00      	nop
 8009618:	371c      	adds	r7, #28
 800961a:	46bd      	mov	sp, r7
 800961c:	f85d 7b04 	ldr.w	r7, [sp], #4
 8009620:	4770      	bx	lr
	...

08009624 <HAL_PCD_MspInit>:
                       LL Driver Callbacks (PCD -> USB Device Library)
*******************************************************************************/
/* MSP Init */

void HAL_PCD_MspInit(PCD_HandleTypeDef* pcdHandle)
{
 8009624:	b580      	push	{r7, lr}
 8009626:	b0b2      	sub	sp, #200	@ 0xc8
 8009628:	af00      	add	r7, sp, #0
 800962a:	6078      	str	r0, [r7, #4]
  RCC_PeriphCLKInitTypeDef PeriphClkInitStruct = {0};
 800962c:	f107 0310 	add.w	r3, r7, #16
 8009630:	22b8      	movs	r2, #184	@ 0xb8
 8009632:	2100      	movs	r1, #0
 8009634:	4618      	mov	r0, r3
 8009636:	f000 fb01 	bl	8009c3c <memset>
  if(pcdHandle->Instance==USB_OTG_HS)
 800963a:	687b      	ldr	r3, [r7, #4]
 800963c:	681b      	ldr	r3, [r3, #0]
 800963e:	4a1a      	ldr	r2, [pc, #104]	@ (80096a8 <HAL_PCD_MspInit+0x84>)
 8009640:	4293      	cmp	r3, r2
 8009642:	d12c      	bne.n	800969e <HAL_PCD_MspInit+0x7a>

  /* USER CODE END USB_OTG_HS_MspInit 0 */

  /** Initializes the peripherals clock
  */
    PeriphClkInitStruct.PeriphClockSelection = RCC_PERIPHCLK_USB;
 8009644:	f44f 2280 	mov.w	r2, #262144	@ 0x40000
 8009648:	f04f 0300 	mov.w	r3, #0
 800964c:	e9c7 2304 	strd	r2, r3, [r7, #16]
    PeriphClkInitStruct.UsbClockSelection = RCC_USBCLKSOURCE_PLL;
 8009650:	f44f 1380 	mov.w	r3, #1048576	@ 0x100000
 8009654:	f8c7 3094 	str.w	r3, [r7, #148]	@ 0x94
    if (HAL_RCCEx_PeriphCLKConfig(&PeriphClkInitStruct) != HAL_OK)
 8009658:	f107 0310 	add.w	r3, r7, #16
 800965c:	4618      	mov	r0, r3
 800965e:	f7fa fb8b 	bl	8003d78 <HAL_RCCEx_PeriphCLKConfig>
 8009662:	4603      	mov	r3, r0
 8009664:	2b00      	cmp	r3, #0
 8009666:	d001      	beq.n	800966c <HAL_PCD_MspInit+0x48>
    {
      Error_Handler();
 8009668:	f7f7 fbb4 	bl	8000dd4 <Error_Handler>
    }

  /** Enable USB Voltage detector
  */
    HAL_PWREx_EnableUSBVoltageDetector();
 800966c:	f7f9 fc3a 	bl	8002ee4 <HAL_PWREx_EnableUSBVoltageDetector>

    /* Peripheral clock enable */
    __HAL_RCC_USB_OTG_HS_CLK_ENABLE();
 8009670:	4b0e      	ldr	r3, [pc, #56]	@ (80096ac <HAL_PCD_MspInit+0x88>)
 8009672:	f8d3 30d8 	ldr.w	r3, [r3, #216]	@ 0xd8
 8009676:	4a0d      	ldr	r2, [pc, #52]	@ (80096ac <HAL_PCD_MspInit+0x88>)
 8009678:	f043 7300 	orr.w	r3, r3, #33554432	@ 0x2000000
 800967c:	f8c2 30d8 	str.w	r3, [r2, #216]	@ 0xd8
 8009680:	4b0a      	ldr	r3, [pc, #40]	@ (80096ac <HAL_PCD_MspInit+0x88>)
 8009682:	f8d3 30d8 	ldr.w	r3, [r3, #216]	@ 0xd8
 8009686:	f003 7300 	and.w	r3, r3, #33554432	@ 0x2000000
 800968a:	60fb      	str	r3, [r7, #12]
 800968c:	68fb      	ldr	r3, [r7, #12]

    /* Peripheral interrupt init */
    HAL_NVIC_SetPriority(OTG_HS_IRQn, 0, 0);
 800968e:	2200      	movs	r2, #0
 8009690:	2100      	movs	r1, #0
 8009692:	204d      	movs	r0, #77	@ 0x4d
 8009694:	f7f7 feb9 	bl	800140a <HAL_NVIC_SetPriority>
    HAL_NVIC_EnableIRQ(OTG_HS_IRQn);
 8009698:	204d      	movs	r0, #77	@ 0x4d
 800969a:	f7f7 fed0 	bl	800143e <HAL_NVIC_EnableIRQ>
  /* USER CODE BEGIN USB_OTG_HS_MspInit 1 */

  /* USER CODE END USB_OTG_HS_MspInit 1 */
  }
}
 800969e:	bf00      	nop
 80096a0:	37c8      	adds	r7, #200	@ 0xc8
 80096a2:	46bd      	mov	sp, r7
 80096a4:	bd80      	pop	{r7, pc}
 80096a6:	bf00      	nop
 80096a8:	40040000 	.word	0x40040000
 80096ac:	58024400 	.word	0x58024400

080096b0 <HAL_PCD_SetupStageCallback>:
#if (USE_HAL_PCD_REGISTER_CALLBACKS == 1U)
static void PCD_SetupStageCallback(PCD_HandleTypeDef *hpcd)
#else
void HAL_PCD_SetupStageCallback(PCD_HandleTypeDef *hpcd)
#endif /* USE_HAL_PCD_REGISTER_CALLBACKS */
{
 80096b0:	b580      	push	{r7, lr}
 80096b2:	b082      	sub	sp, #8
 80096b4:	af00      	add	r7, sp, #0
 80096b6:	6078      	str	r0, [r7, #4]
  USBD_LL_SetupStage((USBD_HandleTypeDef*)hpcd->pData, (uint8_t *)hpcd->Setup);
 80096b8:	687b      	ldr	r3, [r7, #4]
 80096ba:	f8d3 24e0 	ldr.w	r2, [r3, #1248]	@ 0x4e0
 80096be:	687b      	ldr	r3, [r7, #4]
 80096c0:	f203 439c 	addw	r3, r3, #1180	@ 0x49c
 80096c4:	4619      	mov	r1, r3
 80096c6:	4610      	mov	r0, r2
 80096c8:	f7fe fb07 	bl	8007cda <USBD_LL_SetupStage>
}
 80096cc:	bf00      	nop
 80096ce:	3708      	adds	r7, #8
 80096d0:	46bd      	mov	sp, r7
 80096d2:	bd80      	pop	{r7, pc}

080096d4 <HAL_PCD_DataOutStageCallback>:
#if (USE_HAL_PCD_REGISTER_CALLBACKS == 1U)
static void PCD_DataOutStageCallback(PCD_HandleTypeDef *hpcd, uint8_t epnum)
#else
void HAL_PCD_DataOutStageCallback(PCD_HandleTypeDef *hpcd, uint8_t epnum)
#endif /* USE_HAL_PCD_REGISTER_CALLBACKS */
{
 80096d4:	b580      	push	{r7, lr}
 80096d6:	b082      	sub	sp, #8
 80096d8:	af00      	add	r7, sp, #0
 80096da:	6078      	str	r0, [r7, #4]
 80096dc:	460b      	mov	r3, r1
 80096de:	70fb      	strb	r3, [r7, #3]
  USBD_LL_DataOutStage((USBD_HandleTypeDef*)hpcd->pData, epnum, hpcd->OUT_ep[epnum].xfer_buff);
 80096e0:	687b      	ldr	r3, [r7, #4]
 80096e2:	f8d3 04e0 	ldr.w	r0, [r3, #1248]	@ 0x4e0
 80096e6:	78fa      	ldrb	r2, [r7, #3]
 80096e8:	6879      	ldr	r1, [r7, #4]
 80096ea:	4613      	mov	r3, r2
 80096ec:	00db      	lsls	r3, r3, #3
 80096ee:	4413      	add	r3, r2
 80096f0:	009b      	lsls	r3, r3, #2
 80096f2:	440b      	add	r3, r1
 80096f4:	f503 7318 	add.w	r3, r3, #608	@ 0x260
 80096f8:	681a      	ldr	r2, [r3, #0]
 80096fa:	78fb      	ldrb	r3, [r7, #3]
 80096fc:	4619      	mov	r1, r3
 80096fe:	f7fe fb41 	bl	8007d84 <USBD_LL_DataOutStage>
}
 8009702:	bf00      	nop
 8009704:	3708      	adds	r7, #8
 8009706:	46bd      	mov	sp, r7
 8009708:	bd80      	pop	{r7, pc}

0800970a <HAL_PCD_DataInStageCallback>:
#if (USE_HAL_PCD_REGISTER_CALLBACKS == 1U)
static void PCD_DataInStageCallback(PCD_HandleTypeDef *hpcd, uint8_t epnum)
#else
void HAL_PCD_DataInStageCallback(PCD_HandleTypeDef *hpcd, uint8_t epnum)
#endif /* USE_HAL_PCD_REGISTER_CALLBACKS */
{
 800970a:	b580      	push	{r7, lr}
 800970c:	b082      	sub	sp, #8
 800970e:	af00      	add	r7, sp, #0
 8009710:	6078      	str	r0, [r7, #4]
 8009712:	460b      	mov	r3, r1
 8009714:	70fb      	strb	r3, [r7, #3]
  USBD_LL_DataInStage((USBD_HandleTypeDef*)hpcd->pData, epnum, hpcd->IN_ep[epnum].xfer_buff);
 8009716:	687b      	ldr	r3, [r7, #4]
 8009718:	f8d3 04e0 	ldr.w	r0, [r3, #1248]	@ 0x4e0
 800971c:	78fa      	ldrb	r2, [r7, #3]
 800971e:	6879      	ldr	r1, [r7, #4]
 8009720:	4613      	mov	r3, r2
 8009722:	00db      	lsls	r3, r3, #3
 8009724:	4413      	add	r3, r2
 8009726:	009b      	lsls	r3, r3, #2
 8009728:	440b      	add	r3, r1
 800972a:	3320      	adds	r3, #32
 800972c:	681a      	ldr	r2, [r3, #0]
 800972e:	78fb      	ldrb	r3, [r7, #3]
 8009730:	4619      	mov	r1, r3
 8009732:	f7fe fbe3 	bl	8007efc <USBD_LL_DataInStage>
}
 8009736:	bf00      	nop
 8009738:	3708      	adds	r7, #8
 800973a:	46bd      	mov	sp, r7
 800973c:	bd80      	pop	{r7, pc}

0800973e <HAL_PCD_SOFCallback>:
#if (USE_HAL_PCD_REGISTER_CALLBACKS == 1U)
static void PCD_SOFCallback(PCD_HandleTypeDef *hpcd)
#else
void HAL_PCD_SOFCallback(PCD_HandleTypeDef *hpcd)
#endif /* USE_HAL_PCD_REGISTER_CALLBACKS */
{
 800973e:	b580      	push	{r7, lr}
 8009740:	b082      	sub	sp, #8
 8009742:	af00      	add	r7, sp, #0
 8009744:	6078      	str	r0, [r7, #4]
  USBD_LL_SOF((USBD_HandleTypeDef*)hpcd->pData);
 8009746:	687b      	ldr	r3, [r7, #4]
 8009748:	f8d3 34e0 	ldr.w	r3, [r3, #1248]	@ 0x4e0
 800974c:	4618      	mov	r0, r3
 800974e:	f7fe fd27 	bl	80081a0 <USBD_LL_SOF>
}
 8009752:	bf00      	nop
 8009754:	3708      	adds	r7, #8
 8009756:	46bd      	mov	sp, r7
 8009758:	bd80      	pop	{r7, pc}

0800975a <HAL_PCD_ResetCallback>:
#if (USE_HAL_PCD_REGISTER_CALLBACKS == 1U)
static void PCD_ResetCallback(PCD_HandleTypeDef *hpcd)
#else
void HAL_PCD_ResetCallback(PCD_HandleTypeDef *hpcd)
#endif /* USE_HAL_PCD_REGISTER_CALLBACKS */
{
 800975a:	b580      	push	{r7, lr}
 800975c:	b084      	sub	sp, #16
 800975e:	af00      	add	r7, sp, #0
 8009760:	6078      	str	r0, [r7, #4]
  USBD_SpeedTypeDef speed = USBD_SPEED_FULL;
 8009762:	2301      	movs	r3, #1
 8009764:	73fb      	strb	r3, [r7, #15]

  if ( hpcd->Init.speed == PCD_SPEED_HIGH)
 8009766:	687b      	ldr	r3, [r7, #4]
 8009768:	79db      	ldrb	r3, [r3, #7]
 800976a:	2b00      	cmp	r3, #0
 800976c:	d102      	bne.n	8009774 <HAL_PCD_ResetCallback+0x1a>
  {
    speed = USBD_SPEED_HIGH;
 800976e:	2300      	movs	r3, #0
 8009770:	73fb      	strb	r3, [r7, #15]
 8009772:	e008      	b.n	8009786 <HAL_PCD_ResetCallback+0x2c>
  }
  else if ( hpcd->Init.speed == PCD_SPEED_FULL)
 8009774:	687b      	ldr	r3, [r7, #4]
 8009776:	79db      	ldrb	r3, [r3, #7]
 8009778:	2b02      	cmp	r3, #2
 800977a:	d102      	bne.n	8009782 <HAL_PCD_ResetCallback+0x28>
  {
    speed = USBD_SPEED_FULL;
 800977c:	2301      	movs	r3, #1
 800977e:	73fb      	strb	r3, [r7, #15]
 8009780:	e001      	b.n	8009786 <HAL_PCD_ResetCallback+0x2c>
  }
  else
  {
    Error_Handler();
 8009782:	f7f7 fb27 	bl	8000dd4 <Error_Handler>
  }
    /* Set Speed. */
  USBD_LL_SetSpeed((USBD_HandleTypeDef*)hpcd->pData, speed);
 8009786:	687b      	ldr	r3, [r7, #4]
 8009788:	f8d3 34e0 	ldr.w	r3, [r3, #1248]	@ 0x4e0
 800978c:	7bfa      	ldrb	r2, [r7, #15]
 800978e:	4611      	mov	r1, r2
 8009790:	4618      	mov	r0, r3
 8009792:	f7fe fcc1 	bl	8008118 <USBD_LL_SetSpeed>

  /* Reset Device. */
  USBD_LL_Reset((USBD_HandleTypeDef*)hpcd->pData);
 8009796:	687b      	ldr	r3, [r7, #4]
 8009798:	f8d3 34e0 	ldr.w	r3, [r3, #1248]	@ 0x4e0
 800979c:	4618      	mov	r0, r3
 800979e:	f7fe fc68 	bl	8008072 <USBD_LL_Reset>
}
 80097a2:	bf00      	nop
 80097a4:	3710      	adds	r7, #16
 80097a6:	46bd      	mov	sp, r7
 80097a8:	bd80      	pop	{r7, pc}
	...

080097ac <HAL_PCD_SuspendCallback>:
#if (USE_HAL_PCD_REGISTER_CALLBACKS == 1U)
static void PCD_SuspendCallback(PCD_HandleTypeDef *hpcd)
#else
void HAL_PCD_SuspendCallback(PCD_HandleTypeDef *hpcd)
#endif /* USE_HAL_PCD_REGISTER_CALLBACKS */
{
 80097ac:	b580      	push	{r7, lr}
 80097ae:	b082      	sub	sp, #8
 80097b0:	af00      	add	r7, sp, #0
 80097b2:	6078      	str	r0, [r7, #4]
  /* Inform USB library that core enters in suspend Mode. */
  USBD_LL_Suspend((USBD_HandleTypeDef*)hpcd->pData);
 80097b4:	687b      	ldr	r3, [r7, #4]
 80097b6:	f8d3 34e0 	ldr.w	r3, [r3, #1248]	@ 0x4e0
 80097ba:	4618      	mov	r0, r3
 80097bc:	f7fe fcbc 	bl	8008138 <USBD_LL_Suspend>
  __HAL_PCD_GATE_PHYCLOCK(hpcd);
 80097c0:	687b      	ldr	r3, [r7, #4]
 80097c2:	681b      	ldr	r3, [r3, #0]
 80097c4:	f503 6360 	add.w	r3, r3, #3584	@ 0xe00
 80097c8:	681b      	ldr	r3, [r3, #0]
 80097ca:	687a      	ldr	r2, [r7, #4]
 80097cc:	6812      	ldr	r2, [r2, #0]
 80097ce:	f502 6260 	add.w	r2, r2, #3584	@ 0xe00
 80097d2:	f043 0301 	orr.w	r3, r3, #1
 80097d6:	6013      	str	r3, [r2, #0]
  /* Enter in STOP mode. */
  /* USER CODE BEGIN 2 */
  if (hpcd->Init.low_power_enable)
 80097d8:	687b      	ldr	r3, [r7, #4]
 80097da:	7adb      	ldrb	r3, [r3, #11]
 80097dc:	2b00      	cmp	r3, #0
 80097de:	d005      	beq.n	80097ec <HAL_PCD_SuspendCallback+0x40>
  {
    /* Set SLEEPDEEP bit and SleepOnExit of Cortex System Control Register. */
    SCB->SCR |= (uint32_t)((uint32_t)(SCB_SCR_SLEEPDEEP_Msk | SCB_SCR_SLEEPONEXIT_Msk));
 80097e0:	4b04      	ldr	r3, [pc, #16]	@ (80097f4 <HAL_PCD_SuspendCallback+0x48>)
 80097e2:	691b      	ldr	r3, [r3, #16]
 80097e4:	4a03      	ldr	r2, [pc, #12]	@ (80097f4 <HAL_PCD_SuspendCallback+0x48>)
 80097e6:	f043 0306 	orr.w	r3, r3, #6
 80097ea:	6113      	str	r3, [r2, #16]
  }
  /* USER CODE END 2 */
}
 80097ec:	bf00      	nop
 80097ee:	3708      	adds	r7, #8
 80097f0:	46bd      	mov	sp, r7
 80097f2:	bd80      	pop	{r7, pc}
 80097f4:	e000ed00 	.word	0xe000ed00

080097f8 <HAL_PCD_ResumeCallback>:
#if (USE_HAL_PCD_REGISTER_CALLBACKS == 1U)
static void PCD_ResumeCallback(PCD_HandleTypeDef *hpcd)
#else
void HAL_PCD_ResumeCallback(PCD_HandleTypeDef *hpcd)
#endif /* USE_HAL_PCD_REGISTER_CALLBACKS */
{
 80097f8:	b580      	push	{r7, lr}
 80097fa:	b082      	sub	sp, #8
 80097fc:	af00      	add	r7, sp, #0
 80097fe:	6078      	str	r0, [r7, #4]
  /* USER CODE BEGIN 3 */

  /* USER CODE END 3 */
  USBD_LL_Resume((USBD_HandleTypeDef*)hpcd->pData);
 8009800:	687b      	ldr	r3, [r7, #4]
 8009802:	f8d3 34e0 	ldr.w	r3, [r3, #1248]	@ 0x4e0
 8009806:	4618      	mov	r0, r3
 8009808:	f7fe fcb2 	bl	8008170 <USBD_LL_Resume>
}
 800980c:	bf00      	nop
 800980e:	3708      	adds	r7, #8
 8009810:	46bd      	mov	sp, r7
 8009812:	bd80      	pop	{r7, pc}

08009814 <HAL_PCD_ISOOUTIncompleteCallback>:
#if (USE_HAL_PCD_REGISTER_CALLBACKS == 1U)
static void PCD_ISOOUTIncompleteCallback(PCD_HandleTypeDef *hpcd, uint8_t epnum)
#else
void HAL_PCD_ISOOUTIncompleteCallback(PCD_HandleTypeDef *hpcd, uint8_t epnum)
#endif /* USE_HAL_PCD_REGISTER_CALLBACKS */
{
 8009814:	b580      	push	{r7, lr}
 8009816:	b082      	sub	sp, #8
 8009818:	af00      	add	r7, sp, #0
 800981a:	6078      	str	r0, [r7, #4]
 800981c:	460b      	mov	r3, r1
 800981e:	70fb      	strb	r3, [r7, #3]
  USBD_LL_IsoOUTIncomplete((USBD_HandleTypeDef*)hpcd->pData, epnum);
 8009820:	687b      	ldr	r3, [r7, #4]
 8009822:	f8d3 34e0 	ldr.w	r3, [r3, #1248]	@ 0x4e0
 8009826:	78fa      	ldrb	r2, [r7, #3]
 8009828:	4611      	mov	r1, r2
 800982a:	4618      	mov	r0, r3
 800982c:	f7fe fd0a 	bl	8008244 <USBD_LL_IsoOUTIncomplete>
}
 8009830:	bf00      	nop
 8009832:	3708      	adds	r7, #8
 8009834:	46bd      	mov	sp, r7
 8009836:	bd80      	pop	{r7, pc}

08009838 <HAL_PCD_ISOINIncompleteCallback>:
#if (USE_HAL_PCD_REGISTER_CALLBACKS == 1U)
static void PCD_ISOINIncompleteCallback(PCD_HandleTypeDef *hpcd, uint8_t epnum)
#else
void HAL_PCD_ISOINIncompleteCallback(PCD_HandleTypeDef *hpcd, uint8_t epnum)
#endif /* USE_HAL_PCD_REGISTER_CALLBACKS */
{
 8009838:	b580      	push	{r7, lr}
 800983a:	b082      	sub	sp, #8
 800983c:	af00      	add	r7, sp, #0
 800983e:	6078      	str	r0, [r7, #4]
 8009840:	460b      	mov	r3, r1
 8009842:	70fb      	strb	r3, [r7, #3]
  USBD_LL_IsoINIncomplete((USBD_HandleTypeDef*)hpcd->pData, epnum);
 8009844:	687b      	ldr	r3, [r7, #4]
 8009846:	f8d3 34e0 	ldr.w	r3, [r3, #1248]	@ 0x4e0
 800984a:	78fa      	ldrb	r2, [r7, #3]
 800984c:	4611      	mov	r1, r2
 800984e:	4618      	mov	r0, r3
 8009850:	f7fe fcc6 	bl	80081e0 <USBD_LL_IsoINIncomplete>
}
 8009854:	bf00      	nop
 8009856:	3708      	adds	r7, #8
 8009858:	46bd      	mov	sp, r7
 800985a:	bd80      	pop	{r7, pc}

0800985c <HAL_PCD_ConnectCallback>:
#if (USE_HAL_PCD_REGISTER_CALLBACKS == 1U)
static void PCD_ConnectCallback(PCD_HandleTypeDef *hpcd)
#else
void HAL_PCD_ConnectCallback(PCD_HandleTypeDef *hpcd)
#endif /* USE_HAL_PCD_REGISTER_CALLBACKS */
{
 800985c:	b580      	push	{r7, lr}
 800985e:	b082      	sub	sp, #8
 8009860:	af00      	add	r7, sp, #0
 8009862:	6078      	str	r0, [r7, #4]
  USBD_LL_DevConnected((USBD_HandleTypeDef*)hpcd->pData);
 8009864:	687b      	ldr	r3, [r7, #4]
 8009866:	f8d3 34e0 	ldr.w	r3, [r3, #1248]	@ 0x4e0
 800986a:	4618      	mov	r0, r3
 800986c:	f7fe fd1c 	bl	80082a8 <USBD_LL_DevConnected>
}
 8009870:	bf00      	nop
 8009872:	3708      	adds	r7, #8
 8009874:	46bd      	mov	sp, r7
 8009876:	bd80      	pop	{r7, pc}

08009878 <HAL_PCD_DisconnectCallback>:
#if (USE_HAL_PCD_REGISTER_CALLBACKS == 1U)
static void PCD_DisconnectCallback(PCD_HandleTypeDef *hpcd)
#else
void HAL_PCD_DisconnectCallback(PCD_HandleTypeDef *hpcd)
#endif /* USE_HAL_PCD_REGISTER_CALLBACKS */
{
 8009878:	b580      	push	{r7, lr}
 800987a:	b082      	sub	sp, #8
 800987c:	af00      	add	r7, sp, #0
 800987e:	6078      	str	r0, [r7, #4]
  USBD_LL_DevDisconnected((USBD_HandleTypeDef*)hpcd->pData);
 8009880:	687b      	ldr	r3, [r7, #4]
 8009882:	f8d3 34e0 	ldr.w	r3, [r3, #1248]	@ 0x4e0
 8009886:	4618      	mov	r0, r3
 8009888:	f7fe fd19 	bl	80082be <USBD_LL_DevDisconnected>
}
 800988c:	bf00      	nop
 800988e:	3708      	adds	r7, #8
 8009890:	46bd      	mov	sp, r7
 8009892:	bd80      	pop	{r7, pc}

08009894 <USBD_LL_Init>:
  * @brief  Initializes the low level portion of the device driver.
  * @param  pdev: Device handle
  * @retval USBD status
  */
USBD_StatusTypeDef USBD_LL_Init(USBD_HandleTypeDef *pdev)
{
 8009894:	b580      	push	{r7, lr}
 8009896:	b082      	sub	sp, #8
 8009898:	af00      	add	r7, sp, #0
 800989a:	6078      	str	r0, [r7, #4]
  /* Init USB Ip. */
  if (pdev->id == DEVICE_HS) {
 800989c:	687b      	ldr	r3, [r7, #4]
 800989e:	781b      	ldrb	r3, [r3, #0]
 80098a0:	2b01      	cmp	r3, #1
 80098a2:	d140      	bne.n	8009926 <USBD_LL_Init+0x92>
  /* Link the driver to the stack. */
  hpcd_USB_OTG_HS.pData = pdev;
 80098a4:	4a22      	ldr	r2, [pc, #136]	@ (8009930 <USBD_LL_Init+0x9c>)
 80098a6:	687b      	ldr	r3, [r7, #4]
 80098a8:	f8c2 34e0 	str.w	r3, [r2, #1248]	@ 0x4e0
  pdev->pData = &hpcd_USB_OTG_HS;
 80098ac:	687b      	ldr	r3, [r7, #4]
 80098ae:	4a20      	ldr	r2, [pc, #128]	@ (8009930 <USBD_LL_Init+0x9c>)
 80098b0:	f8c3 22c8 	str.w	r2, [r3, #712]	@ 0x2c8

  hpcd_USB_OTG_HS.Instance = USB_OTG_HS;
 80098b4:	4b1e      	ldr	r3, [pc, #120]	@ (8009930 <USBD_LL_Init+0x9c>)
 80098b6:	4a1f      	ldr	r2, [pc, #124]	@ (8009934 <USBD_LL_Init+0xa0>)
 80098b8:	601a      	str	r2, [r3, #0]
  hpcd_USB_OTG_HS.Init.dev_endpoints = 9;
 80098ba:	4b1d      	ldr	r3, [pc, #116]	@ (8009930 <USBD_LL_Init+0x9c>)
 80098bc:	2209      	movs	r2, #9
 80098be:	711a      	strb	r2, [r3, #4]
  hpcd_USB_OTG_HS.Init.speed = PCD_SPEED_FULL;
 80098c0:	4b1b      	ldr	r3, [pc, #108]	@ (8009930 <USBD_LL_Init+0x9c>)
 80098c2:	2202      	movs	r2, #2
 80098c4:	71da      	strb	r2, [r3, #7]
  hpcd_USB_OTG_HS.Init.dma_enable = DISABLE;
 80098c6:	4b1a      	ldr	r3, [pc, #104]	@ (8009930 <USBD_LL_Init+0x9c>)
 80098c8:	2200      	movs	r2, #0
 80098ca:	719a      	strb	r2, [r3, #6]
  hpcd_USB_OTG_HS.Init.phy_itface = USB_OTG_EMBEDDED_PHY;
 80098cc:	4b18      	ldr	r3, [pc, #96]	@ (8009930 <USBD_LL_Init+0x9c>)
 80098ce:	2202      	movs	r2, #2
 80098d0:	725a      	strb	r2, [r3, #9]
  hpcd_USB_OTG_HS.Init.Sof_enable = DISABLE;
 80098d2:	4b17      	ldr	r3, [pc, #92]	@ (8009930 <USBD_LL_Init+0x9c>)
 80098d4:	2200      	movs	r2, #0
 80098d6:	729a      	strb	r2, [r3, #10]
  hpcd_USB_OTG_HS.Init.low_power_enable = DISABLE;
 80098d8:	4b15      	ldr	r3, [pc, #84]	@ (8009930 <USBD_LL_Init+0x9c>)
 80098da:	2200      	movs	r2, #0
 80098dc:	72da      	strb	r2, [r3, #11]
  hpcd_USB_OTG_HS.Init.lpm_enable = DISABLE;
 80098de:	4b14      	ldr	r3, [pc, #80]	@ (8009930 <USBD_LL_Init+0x9c>)
 80098e0:	2200      	movs	r2, #0
 80098e2:	731a      	strb	r2, [r3, #12]
  hpcd_USB_OTG_HS.Init.vbus_sensing_enable = DISABLE;
 80098e4:	4b12      	ldr	r3, [pc, #72]	@ (8009930 <USBD_LL_Init+0x9c>)
 80098e6:	2200      	movs	r2, #0
 80098e8:	739a      	strb	r2, [r3, #14]
  hpcd_USB_OTG_HS.Init.use_dedicated_ep1 = DISABLE;
 80098ea:	4b11      	ldr	r3, [pc, #68]	@ (8009930 <USBD_LL_Init+0x9c>)
 80098ec:	2200      	movs	r2, #0
 80098ee:	73da      	strb	r2, [r3, #15]
  hpcd_USB_OTG_HS.Init.use_external_vbus = DISABLE;
 80098f0:	4b0f      	ldr	r3, [pc, #60]	@ (8009930 <USBD_LL_Init+0x9c>)
 80098f2:	2200      	movs	r2, #0
 80098f4:	741a      	strb	r2, [r3, #16]
  if (HAL_PCD_Init(&hpcd_USB_OTG_HS) != HAL_OK)
 80098f6:	480e      	ldr	r0, [pc, #56]	@ (8009930 <USBD_LL_Init+0x9c>)
 80098f8:	f7f7 ffff 	bl	80018fa <HAL_PCD_Init>
 80098fc:	4603      	mov	r3, r0
 80098fe:	2b00      	cmp	r3, #0
 8009900:	d001      	beq.n	8009906 <USBD_LL_Init+0x72>
  {
    Error_Handler( );
 8009902:	f7f7 fa67 	bl	8000dd4 <Error_Handler>
  HAL_PCD_RegisterDataInStageCallback(&hpcd_USB_OTG_HS, PCD_DataInStageCallback);
  HAL_PCD_RegisterIsoOutIncpltCallback(&hpcd_USB_OTG_HS, PCD_ISOOUTIncompleteCallback);
  HAL_PCD_RegisterIsoInIncpltCallback(&hpcd_USB_OTG_HS, PCD_ISOINIncompleteCallback);
#endif /* USE_HAL_PCD_REGISTER_CALLBACKS */
  /* USER CODE BEGIN TxRx_HS_Configuration */
  HAL_PCDEx_SetRxFiFo(&hpcd_USB_OTG_HS, 0x200);
 8009906:	f44f 7100 	mov.w	r1, #512	@ 0x200
 800990a:	4809      	ldr	r0, [pc, #36]	@ (8009930 <USBD_LL_Init+0x9c>)
 800990c:	f7f9 fa6f 	bl	8002dee <HAL_PCDEx_SetRxFiFo>
  HAL_PCDEx_SetTxFiFo(&hpcd_USB_OTG_HS, 0, 0x80);
 8009910:	2280      	movs	r2, #128	@ 0x80
 8009912:	2100      	movs	r1, #0
 8009914:	4806      	ldr	r0, [pc, #24]	@ (8009930 <USBD_LL_Init+0x9c>)
 8009916:	f7f9 fa23 	bl	8002d60 <HAL_PCDEx_SetTxFiFo>
  HAL_PCDEx_SetTxFiFo(&hpcd_USB_OTG_HS, 1, 0x174);
 800991a:	f44f 72ba 	mov.w	r2, #372	@ 0x174
 800991e:	2101      	movs	r1, #1
 8009920:	4803      	ldr	r0, [pc, #12]	@ (8009930 <USBD_LL_Init+0x9c>)
 8009922:	f7f9 fa1d 	bl	8002d60 <HAL_PCDEx_SetTxFiFo>
  /* USER CODE END TxRx_HS_Configuration */
  }
  return USBD_OK;
 8009926:	2300      	movs	r3, #0
}
 8009928:	4618      	mov	r0, r3
 800992a:	3708      	adds	r7, #8
 800992c:	46bd      	mov	sp, r7
 800992e:	bd80      	pop	{r7, pc}
 8009930:	24001980 	.word	0x24001980
 8009934:	40040000 	.word	0x40040000

08009938 <USBD_LL_Start>:
  * @brief  Starts the low level portion of the device driver.
  * @param  pdev: Device handle
  * @retval USBD status
  */
USBD_StatusTypeDef USBD_LL_Start(USBD_HandleTypeDef *pdev)
{
 8009938:	b580      	push	{r7, lr}
 800993a:	b084      	sub	sp, #16
 800993c:	af00      	add	r7, sp, #0
 800993e:	6078      	str	r0, [r7, #4]
  HAL_StatusTypeDef hal_status = HAL_OK;
 8009940:	2300      	movs	r3, #0
 8009942:	73fb      	strb	r3, [r7, #15]
  USBD_StatusTypeDef usb_status = USBD_OK;
 8009944:	2300      	movs	r3, #0
 8009946:	73bb      	strb	r3, [r7, #14]

  hal_status = HAL_PCD_Start(pdev->pData);
 8009948:	687b      	ldr	r3, [r7, #4]
 800994a:	f8d3 32c8 	ldr.w	r3, [r3, #712]	@ 0x2c8
 800994e:	4618      	mov	r0, r3
 8009950:	f7f8 f8df 	bl	8001b12 <HAL_PCD_Start>
 8009954:	4603      	mov	r3, r0
 8009956:	73fb      	strb	r3, [r7, #15]

  usb_status =  USBD_Get_USB_Status(hal_status);
 8009958:	7bfb      	ldrb	r3, [r7, #15]
 800995a:	4618      	mov	r0, r3
 800995c:	f000 f942 	bl	8009be4 <USBD_Get_USB_Status>
 8009960:	4603      	mov	r3, r0
 8009962:	73bb      	strb	r3, [r7, #14]

  return usb_status;
 8009964:	7bbb      	ldrb	r3, [r7, #14]
}
 8009966:	4618      	mov	r0, r3
 8009968:	3710      	adds	r7, #16
 800996a:	46bd      	mov	sp, r7
 800996c:	bd80      	pop	{r7, pc}

0800996e <USBD_LL_OpenEP>:
  * @param  ep_type: Endpoint type
  * @param  ep_mps: Endpoint max packet size
  * @retval USBD status
  */
USBD_StatusTypeDef USBD_LL_OpenEP(USBD_HandleTypeDef *pdev, uint8_t ep_addr, uint8_t ep_type, uint16_t ep_mps)
{
 800996e:	b580      	push	{r7, lr}
 8009970:	b084      	sub	sp, #16
 8009972:	af00      	add	r7, sp, #0
 8009974:	6078      	str	r0, [r7, #4]
 8009976:	4608      	mov	r0, r1
 8009978:	4611      	mov	r1, r2
 800997a:	461a      	mov	r2, r3
 800997c:	4603      	mov	r3, r0
 800997e:	70fb      	strb	r3, [r7, #3]
 8009980:	460b      	mov	r3, r1
 8009982:	70bb      	strb	r3, [r7, #2]
 8009984:	4613      	mov	r3, r2
 8009986:	803b      	strh	r3, [r7, #0]
  HAL_StatusTypeDef hal_status = HAL_OK;
 8009988:	2300      	movs	r3, #0
 800998a:	73fb      	strb	r3, [r7, #15]
  USBD_StatusTypeDef usb_status = USBD_OK;
 800998c:	2300      	movs	r3, #0
 800998e:	73bb      	strb	r3, [r7, #14]

  hal_status = HAL_PCD_EP_Open(pdev->pData, ep_addr, ep_mps, ep_type);
 8009990:	687b      	ldr	r3, [r7, #4]
 8009992:	f8d3 02c8 	ldr.w	r0, [r3, #712]	@ 0x2c8
 8009996:	78bb      	ldrb	r3, [r7, #2]
 8009998:	883a      	ldrh	r2, [r7, #0]
 800999a:	78f9      	ldrb	r1, [r7, #3]
 800999c:	f7f8 fdfa 	bl	8002594 <HAL_PCD_EP_Open>
 80099a0:	4603      	mov	r3, r0
 80099a2:	73fb      	strb	r3, [r7, #15]

  usb_status =  USBD_Get_USB_Status(hal_status);
 80099a4:	7bfb      	ldrb	r3, [r7, #15]
 80099a6:	4618      	mov	r0, r3
 80099a8:	f000 f91c 	bl	8009be4 <USBD_Get_USB_Status>
 80099ac:	4603      	mov	r3, r0
 80099ae:	73bb      	strb	r3, [r7, #14]

  return usb_status;
 80099b0:	7bbb      	ldrb	r3, [r7, #14]
}
 80099b2:	4618      	mov	r0, r3
 80099b4:	3710      	adds	r7, #16
 80099b6:	46bd      	mov	sp, r7
 80099b8:	bd80      	pop	{r7, pc}

080099ba <USBD_LL_CloseEP>:
  * @param  pdev: Device handle
  * @param  ep_addr: Endpoint number
  * @retval USBD status
  */
USBD_StatusTypeDef USBD_LL_CloseEP(USBD_HandleTypeDef *pdev, uint8_t ep_addr)
{
 80099ba:	b580      	push	{r7, lr}
 80099bc:	b084      	sub	sp, #16
 80099be:	af00      	add	r7, sp, #0
 80099c0:	6078      	str	r0, [r7, #4]
 80099c2:	460b      	mov	r3, r1
 80099c4:	70fb      	strb	r3, [r7, #3]
  HAL_StatusTypeDef hal_status = HAL_OK;
 80099c6:	2300      	movs	r3, #0
 80099c8:	73fb      	strb	r3, [r7, #15]
  USBD_StatusTypeDef usb_status = USBD_OK;
 80099ca:	2300      	movs	r3, #0
 80099cc:	73bb      	strb	r3, [r7, #14]

  hal_status = HAL_PCD_EP_Close(pdev->pData, ep_addr);
 80099ce:	687b      	ldr	r3, [r7, #4]
 80099d0:	f8d3 32c8 	ldr.w	r3, [r3, #712]	@ 0x2c8
 80099d4:	78fa      	ldrb	r2, [r7, #3]
 80099d6:	4611      	mov	r1, r2
 80099d8:	4618      	mov	r0, r3
 80099da:	f7f8 fe45 	bl	8002668 <HAL_PCD_EP_Close>
 80099de:	4603      	mov	r3, r0
 80099e0:	73fb      	strb	r3, [r7, #15]

  usb_status =  USBD_Get_USB_Status(hal_status);
 80099e2:	7bfb      	ldrb	r3, [r7, #15]
 80099e4:	4618      	mov	r0, r3
 80099e6:	f000 f8fd 	bl	8009be4 <USBD_Get_USB_Status>
 80099ea:	4603      	mov	r3, r0
 80099ec:	73bb      	strb	r3, [r7, #14]

  return usb_status;
 80099ee:	7bbb      	ldrb	r3, [r7, #14]
}
 80099f0:	4618      	mov	r0, r3
 80099f2:	3710      	adds	r7, #16
 80099f4:	46bd      	mov	sp, r7
 80099f6:	bd80      	pop	{r7, pc}

080099f8 <USBD_LL_StallEP>:
  * @param  pdev: Device handle
  * @param  ep_addr: Endpoint number
  * @retval USBD status
  */
USBD_StatusTypeDef USBD_LL_StallEP(USBD_HandleTypeDef *pdev, uint8_t ep_addr)
{
 80099f8:	b580      	push	{r7, lr}
 80099fa:	b084      	sub	sp, #16
 80099fc:	af00      	add	r7, sp, #0
 80099fe:	6078      	str	r0, [r7, #4]
 8009a00:	460b      	mov	r3, r1
 8009a02:	70fb      	strb	r3, [r7, #3]
  HAL_StatusTypeDef hal_status = HAL_OK;
 8009a04:	2300      	movs	r3, #0
 8009a06:	73fb      	strb	r3, [r7, #15]
  USBD_StatusTypeDef usb_status = USBD_OK;
 8009a08:	2300      	movs	r3, #0
 8009a0a:	73bb      	strb	r3, [r7, #14]

  hal_status = HAL_PCD_EP_SetStall(pdev->pData, ep_addr);
 8009a0c:	687b      	ldr	r3, [r7, #4]
 8009a0e:	f8d3 32c8 	ldr.w	r3, [r3, #712]	@ 0x2c8
 8009a12:	78fa      	ldrb	r2, [r7, #3]
 8009a14:	4611      	mov	r1, r2
 8009a16:	4618      	mov	r0, r3
 8009a18:	f7f8 fefd 	bl	8002816 <HAL_PCD_EP_SetStall>
 8009a1c:	4603      	mov	r3, r0
 8009a1e:	73fb      	strb	r3, [r7, #15]

  usb_status =  USBD_Get_USB_Status(hal_status);
 8009a20:	7bfb      	ldrb	r3, [r7, #15]
 8009a22:	4618      	mov	r0, r3
 8009a24:	f000 f8de 	bl	8009be4 <USBD_Get_USB_Status>
 8009a28:	4603      	mov	r3, r0
 8009a2a:	73bb      	strb	r3, [r7, #14]

  return usb_status;
 8009a2c:	7bbb      	ldrb	r3, [r7, #14]
}
 8009a2e:	4618      	mov	r0, r3
 8009a30:	3710      	adds	r7, #16
 8009a32:	46bd      	mov	sp, r7
 8009a34:	bd80      	pop	{r7, pc}

08009a36 <USBD_LL_ClearStallEP>:
  * @param  pdev: Device handle
  * @param  ep_addr: Endpoint number
  * @retval USBD status
  */
USBD_StatusTypeDef USBD_LL_ClearStallEP(USBD_HandleTypeDef *pdev, uint8_t ep_addr)
{
 8009a36:	b580      	push	{r7, lr}
 8009a38:	b084      	sub	sp, #16
 8009a3a:	af00      	add	r7, sp, #0
 8009a3c:	6078      	str	r0, [r7, #4]
 8009a3e:	460b      	mov	r3, r1
 8009a40:	70fb      	strb	r3, [r7, #3]
  HAL_StatusTypeDef hal_status = HAL_OK;
 8009a42:	2300      	movs	r3, #0
 8009a44:	73fb      	strb	r3, [r7, #15]
  USBD_StatusTypeDef usb_status = USBD_OK;
 8009a46:	2300      	movs	r3, #0
 8009a48:	73bb      	strb	r3, [r7, #14]

  hal_status = HAL_PCD_EP_ClrStall(pdev->pData, ep_addr);
 8009a4a:	687b      	ldr	r3, [r7, #4]
 8009a4c:	f8d3 32c8 	ldr.w	r3, [r3, #712]	@ 0x2c8
 8009a50:	78fa      	ldrb	r2, [r7, #3]
 8009a52:	4611      	mov	r1, r2
 8009a54:	4618      	mov	r0, r3
 8009a56:	f7f8 ff41 	bl	80028dc <HAL_PCD_EP_ClrStall>
 8009a5a:	4603      	mov	r3, r0
 8009a5c:	73fb      	strb	r3, [r7, #15]

  usb_status =  USBD_Get_USB_Status(hal_status);
 8009a5e:	7bfb      	ldrb	r3, [r7, #15]
 8009a60:	4618      	mov	r0, r3
 8009a62:	f000 f8bf 	bl	8009be4 <USBD_Get_USB_Status>
 8009a66:	4603      	mov	r3, r0
 8009a68:	73bb      	strb	r3, [r7, #14]

  return usb_status;
 8009a6a:	7bbb      	ldrb	r3, [r7, #14]
}
 8009a6c:	4618      	mov	r0, r3
 8009a6e:	3710      	adds	r7, #16
 8009a70:	46bd      	mov	sp, r7
 8009a72:	bd80      	pop	{r7, pc}

08009a74 <USBD_LL_IsStallEP>:
  * @param  pdev: Device handle
  * @param  ep_addr: Endpoint number
  * @retval Stall (1: Yes, 0: No)
  */
uint8_t USBD_LL_IsStallEP(USBD_HandleTypeDef *pdev, uint8_t ep_addr)
{
 8009a74:	b480      	push	{r7}
 8009a76:	b085      	sub	sp, #20
 8009a78:	af00      	add	r7, sp, #0
 8009a7a:	6078      	str	r0, [r7, #4]
 8009a7c:	460b      	mov	r3, r1
 8009a7e:	70fb      	strb	r3, [r7, #3]
  PCD_HandleTypeDef *hpcd = (PCD_HandleTypeDef*) pdev->pData;
 8009a80:	687b      	ldr	r3, [r7, #4]
 8009a82:	f8d3 32c8 	ldr.w	r3, [r3, #712]	@ 0x2c8
 8009a86:	60fb      	str	r3, [r7, #12]

  if((ep_addr & 0x80) == 0x80)
 8009a88:	f997 3003 	ldrsb.w	r3, [r7, #3]
 8009a8c:	2b00      	cmp	r3, #0
 8009a8e:	da0b      	bge.n	8009aa8 <USBD_LL_IsStallEP+0x34>
  {
    return hpcd->IN_ep[ep_addr & 0x7F].is_stall;
 8009a90:	78fb      	ldrb	r3, [r7, #3]
 8009a92:	f003 027f 	and.w	r2, r3, #127	@ 0x7f
 8009a96:	68f9      	ldr	r1, [r7, #12]
 8009a98:	4613      	mov	r3, r2
 8009a9a:	00db      	lsls	r3, r3, #3
 8009a9c:	4413      	add	r3, r2
 8009a9e:	009b      	lsls	r3, r3, #2
 8009aa0:	440b      	add	r3, r1
 8009aa2:	3316      	adds	r3, #22
 8009aa4:	781b      	ldrb	r3, [r3, #0]
 8009aa6:	e00b      	b.n	8009ac0 <USBD_LL_IsStallEP+0x4c>
  }
  else
  {
    return hpcd->OUT_ep[ep_addr & 0x7F].is_stall;
 8009aa8:	78fb      	ldrb	r3, [r7, #3]
 8009aaa:	f003 027f 	and.w	r2, r3, #127	@ 0x7f
 8009aae:	68f9      	ldr	r1, [r7, #12]
 8009ab0:	4613      	mov	r3, r2
 8009ab2:	00db      	lsls	r3, r3, #3
 8009ab4:	4413      	add	r3, r2
 8009ab6:	009b      	lsls	r3, r3, #2
 8009ab8:	440b      	add	r3, r1
 8009aba:	f203 2356 	addw	r3, r3, #598	@ 0x256
 8009abe:	781b      	ldrb	r3, [r3, #0]
  }
}
 8009ac0:	4618      	mov	r0, r3
 8009ac2:	3714      	adds	r7, #20
 8009ac4:	46bd      	mov	sp, r7
 8009ac6:	f85d 7b04 	ldr.w	r7, [sp], #4
 8009aca:	4770      	bx	lr

08009acc <USBD_LL_SetUSBAddress>:
  * @param  pdev: Device handle
  * @param  dev_addr: Device address
  * @retval USBD status
  */
USBD_StatusTypeDef USBD_LL_SetUSBAddress(USBD_HandleTypeDef *pdev, uint8_t dev_addr)
{
 8009acc:	b580      	push	{r7, lr}
 8009ace:	b084      	sub	sp, #16
 8009ad0:	af00      	add	r7, sp, #0
 8009ad2:	6078      	str	r0, [r7, #4]
 8009ad4:	460b      	mov	r3, r1
 8009ad6:	70fb      	strb	r3, [r7, #3]
  HAL_StatusTypeDef hal_status = HAL_OK;
 8009ad8:	2300      	movs	r3, #0
 8009ada:	73fb      	strb	r3, [r7, #15]
  USBD_StatusTypeDef usb_status = USBD_OK;
 8009adc:	2300      	movs	r3, #0
 8009ade:	73bb      	strb	r3, [r7, #14]

  hal_status = HAL_PCD_SetAddress(pdev->pData, dev_addr);
 8009ae0:	687b      	ldr	r3, [r7, #4]
 8009ae2:	f8d3 32c8 	ldr.w	r3, [r3, #712]	@ 0x2c8
 8009ae6:	78fa      	ldrb	r2, [r7, #3]
 8009ae8:	4611      	mov	r1, r2
 8009aea:	4618      	mov	r0, r3
 8009aec:	f7f8 fd2e 	bl	800254c <HAL_PCD_SetAddress>
 8009af0:	4603      	mov	r3, r0
 8009af2:	73fb      	strb	r3, [r7, #15]

  usb_status =  USBD_Get_USB_Status(hal_status);
 8009af4:	7bfb      	ldrb	r3, [r7, #15]
 8009af6:	4618      	mov	r0, r3
 8009af8:	f000 f874 	bl	8009be4 <USBD_Get_USB_Status>
 8009afc:	4603      	mov	r3, r0
 8009afe:	73bb      	strb	r3, [r7, #14]

  return usb_status;
 8009b00:	7bbb      	ldrb	r3, [r7, #14]
}
 8009b02:	4618      	mov	r0, r3
 8009b04:	3710      	adds	r7, #16
 8009b06:	46bd      	mov	sp, r7
 8009b08:	bd80      	pop	{r7, pc}

08009b0a <USBD_LL_Transmit>:
  * @param  pbuf: Pointer to data to be sent
  * @param  size: Data size
  * @retval USBD status
  */
USBD_StatusTypeDef USBD_LL_Transmit(USBD_HandleTypeDef *pdev, uint8_t ep_addr, uint8_t *pbuf, uint32_t size)
{
 8009b0a:	b580      	push	{r7, lr}
 8009b0c:	b086      	sub	sp, #24
 8009b0e:	af00      	add	r7, sp, #0
 8009b10:	60f8      	str	r0, [r7, #12]
 8009b12:	607a      	str	r2, [r7, #4]
 8009b14:	603b      	str	r3, [r7, #0]
 8009b16:	460b      	mov	r3, r1
 8009b18:	72fb      	strb	r3, [r7, #11]
  HAL_StatusTypeDef hal_status = HAL_OK;
 8009b1a:	2300      	movs	r3, #0
 8009b1c:	75fb      	strb	r3, [r7, #23]
  USBD_StatusTypeDef usb_status = USBD_OK;
 8009b1e:	2300      	movs	r3, #0
 8009b20:	75bb      	strb	r3, [r7, #22]

  hal_status = HAL_PCD_EP_Transmit(pdev->pData, ep_addr, pbuf, size);
 8009b22:	68fb      	ldr	r3, [r7, #12]
 8009b24:	f8d3 02c8 	ldr.w	r0, [r3, #712]	@ 0x2c8
 8009b28:	7af9      	ldrb	r1, [r7, #11]
 8009b2a:	683b      	ldr	r3, [r7, #0]
 8009b2c:	687a      	ldr	r2, [r7, #4]
 8009b2e:	f7f8 fe38 	bl	80027a2 <HAL_PCD_EP_Transmit>
 8009b32:	4603      	mov	r3, r0
 8009b34:	75fb      	strb	r3, [r7, #23]

  usb_status =  USBD_Get_USB_Status(hal_status);
 8009b36:	7dfb      	ldrb	r3, [r7, #23]
 8009b38:	4618      	mov	r0, r3
 8009b3a:	f000 f853 	bl	8009be4 <USBD_Get_USB_Status>
 8009b3e:	4603      	mov	r3, r0
 8009b40:	75bb      	strb	r3, [r7, #22]

  return usb_status;
 8009b42:	7dbb      	ldrb	r3, [r7, #22]
}
 8009b44:	4618      	mov	r0, r3
 8009b46:	3718      	adds	r7, #24
 8009b48:	46bd      	mov	sp, r7
 8009b4a:	bd80      	pop	{r7, pc}

08009b4c <USBD_LL_PrepareReceive>:
  * @param  pbuf: Pointer to data to be received
  * @param  size: Data size
  * @retval USBD status
  */
USBD_StatusTypeDef USBD_LL_PrepareReceive(USBD_HandleTypeDef *pdev, uint8_t ep_addr, uint8_t *pbuf, uint32_t size)
{
 8009b4c:	b580      	push	{r7, lr}
 8009b4e:	b086      	sub	sp, #24
 8009b50:	af00      	add	r7, sp, #0
 8009b52:	60f8      	str	r0, [r7, #12]
 8009b54:	607a      	str	r2, [r7, #4]
 8009b56:	603b      	str	r3, [r7, #0]
 8009b58:	460b      	mov	r3, r1
 8009b5a:	72fb      	strb	r3, [r7, #11]
  HAL_StatusTypeDef hal_status = HAL_OK;
 8009b5c:	2300      	movs	r3, #0
 8009b5e:	75fb      	strb	r3, [r7, #23]
  USBD_StatusTypeDef usb_status = USBD_OK;
 8009b60:	2300      	movs	r3, #0
 8009b62:	75bb      	strb	r3, [r7, #22]

  hal_status = HAL_PCD_EP_Receive(pdev->pData, ep_addr, pbuf, size);
 8009b64:	68fb      	ldr	r3, [r7, #12]
 8009b66:	f8d3 02c8 	ldr.w	r0, [r3, #712]	@ 0x2c8
 8009b6a:	7af9      	ldrb	r1, [r7, #11]
 8009b6c:	683b      	ldr	r3, [r7, #0]
 8009b6e:	687a      	ldr	r2, [r7, #4]
 8009b70:	f7f8 fdc4 	bl	80026fc <HAL_PCD_EP_Receive>
 8009b74:	4603      	mov	r3, r0
 8009b76:	75fb      	strb	r3, [r7, #23]

  usb_status =  USBD_Get_USB_Status(hal_status);
 8009b78:	7dfb      	ldrb	r3, [r7, #23]
 8009b7a:	4618      	mov	r0, r3
 8009b7c:	f000 f832 	bl	8009be4 <USBD_Get_USB_Status>
 8009b80:	4603      	mov	r3, r0
 8009b82:	75bb      	strb	r3, [r7, #22]

  return usb_status;
 8009b84:	7dbb      	ldrb	r3, [r7, #22]
}
 8009b86:	4618      	mov	r0, r3
 8009b88:	3718      	adds	r7, #24
 8009b8a:	46bd      	mov	sp, r7
 8009b8c:	bd80      	pop	{r7, pc}

08009b8e <USBD_LL_GetRxDataSize>:
  * @param  pdev: Device handle
  * @param  ep_addr: Endpoint number
  * @retval Received Data Size
  */
uint32_t USBD_LL_GetRxDataSize(USBD_HandleTypeDef *pdev, uint8_t ep_addr)
{
 8009b8e:	b580      	push	{r7, lr}
 8009b90:	b082      	sub	sp, #8
 8009b92:	af00      	add	r7, sp, #0
 8009b94:	6078      	str	r0, [r7, #4]
 8009b96:	460b      	mov	r3, r1
 8009b98:	70fb      	strb	r3, [r7, #3]
  return HAL_PCD_EP_GetRxCount((PCD_HandleTypeDef*) pdev->pData, ep_addr);
 8009b9a:	687b      	ldr	r3, [r7, #4]
 8009b9c:	f8d3 32c8 	ldr.w	r3, [r3, #712]	@ 0x2c8
 8009ba0:	78fa      	ldrb	r2, [r7, #3]
 8009ba2:	4611      	mov	r1, r2
 8009ba4:	4618      	mov	r0, r3
 8009ba6:	f7f8 fde4 	bl	8002772 <HAL_PCD_EP_GetRxCount>
 8009baa:	4603      	mov	r3, r0
}
 8009bac:	4618      	mov	r0, r3
 8009bae:	3708      	adds	r7, #8
 8009bb0:	46bd      	mov	sp, r7
 8009bb2:	bd80      	pop	{r7, pc}

08009bb4 <USBD_static_malloc>:
  * @brief  Static single allocation.
  * @param  size: Size of allocated memory
  * @retval None
  */
void *USBD_static_malloc(uint32_t size)
{
 8009bb4:	b480      	push	{r7}
 8009bb6:	b083      	sub	sp, #12
 8009bb8:	af00      	add	r7, sp, #0
 8009bba:	6078      	str	r0, [r7, #4]
  UNUSED(size);
  static uint32_t mem[(sizeof(USBD_CDC_HandleTypeDef)/4)+1];/* On 32-bit boundary */
  return mem;
 8009bbc:	4b03      	ldr	r3, [pc, #12]	@ (8009bcc <USBD_static_malloc+0x18>)
}
 8009bbe:	4618      	mov	r0, r3
 8009bc0:	370c      	adds	r7, #12
 8009bc2:	46bd      	mov	sp, r7
 8009bc4:	f85d 7b04 	ldr.w	r7, [sp], #4
 8009bc8:	4770      	bx	lr
 8009bca:	bf00      	nop
 8009bcc:	24001e64 	.word	0x24001e64

08009bd0 <USBD_static_free>:
  * @brief  Dummy memory free
  * @param  p: Pointer to allocated  memory address
  * @retval None
  */
void USBD_static_free(void *p)
{
 8009bd0:	b480      	push	{r7}
 8009bd2:	b083      	sub	sp, #12
 8009bd4:	af00      	add	r7, sp, #0
 8009bd6:	6078      	str	r0, [r7, #4]
  UNUSED(p);
}
 8009bd8:	bf00      	nop
 8009bda:	370c      	adds	r7, #12
 8009bdc:	46bd      	mov	sp, r7
 8009bde:	f85d 7b04 	ldr.w	r7, [sp], #4
 8009be2:	4770      	bx	lr

08009be4 <USBD_Get_USB_Status>:
  * @brief  Returns the USB status depending on the HAL status:
  * @param  hal_status: HAL status
  * @retval USB status
  */
USBD_StatusTypeDef USBD_Get_USB_Status(HAL_StatusTypeDef hal_status)
{
 8009be4:	b480      	push	{r7}
 8009be6:	b085      	sub	sp, #20
 8009be8:	af00      	add	r7, sp, #0
 8009bea:	4603      	mov	r3, r0
 8009bec:	71fb      	strb	r3, [r7, #7]
  USBD_StatusTypeDef usb_status = USBD_OK;
 8009bee:	2300      	movs	r3, #0
 8009bf0:	73fb      	strb	r3, [r7, #15]

  switch (hal_status)
 8009bf2:	79fb      	ldrb	r3, [r7, #7]
 8009bf4:	2b03      	cmp	r3, #3
 8009bf6:	d817      	bhi.n	8009c28 <USBD_Get_USB_Status+0x44>
 8009bf8:	a201      	add	r2, pc, #4	@ (adr r2, 8009c00 <USBD_Get_USB_Status+0x1c>)
 8009bfa:	f852 f023 	ldr.w	pc, [r2, r3, lsl #2]
 8009bfe:	bf00      	nop
 8009c00:	08009c11 	.word	0x08009c11
 8009c04:	08009c17 	.word	0x08009c17
 8009c08:	08009c1d 	.word	0x08009c1d
 8009c0c:	08009c23 	.word	0x08009c23
  {
    case HAL_OK :
      usb_status = USBD_OK;
 8009c10:	2300      	movs	r3, #0
 8009c12:	73fb      	strb	r3, [r7, #15]
    break;
 8009c14:	e00b      	b.n	8009c2e <USBD_Get_USB_Status+0x4a>
    case HAL_ERROR :
      usb_status = USBD_FAIL;
 8009c16:	2303      	movs	r3, #3
 8009c18:	73fb      	strb	r3, [r7, #15]
    break;
 8009c1a:	e008      	b.n	8009c2e <USBD_Get_USB_Status+0x4a>
    case HAL_BUSY :
      usb_status = USBD_BUSY;
 8009c1c:	2301      	movs	r3, #1
 8009c1e:	73fb      	strb	r3, [r7, #15]
    break;
 8009c20:	e005      	b.n	8009c2e <USBD_Get_USB_Status+0x4a>
    case HAL_TIMEOUT :
      usb_status = USBD_FAIL;
 8009c22:	2303      	movs	r3, #3
 8009c24:	73fb      	strb	r3, [r7, #15]
    break;
 8009c26:	e002      	b.n	8009c2e <USBD_Get_USB_Status+0x4a>
    default :
      usb_status = USBD_FAIL;
 8009c28:	2303      	movs	r3, #3
 8009c2a:	73fb      	strb	r3, [r7, #15]
    break;
 8009c2c:	bf00      	nop
  }
  return usb_status;
 8009c2e:	7bfb      	ldrb	r3, [r7, #15]
}
 8009c30:	4618      	mov	r0, r3
 8009c32:	3714      	adds	r7, #20
 8009c34:	46bd      	mov	sp, r7
 8009c36:	f85d 7b04 	ldr.w	r7, [sp], #4
 8009c3a:	4770      	bx	lr

08009c3c <memset>:
 8009c3c:	4402      	add	r2, r0
 8009c3e:	4603      	mov	r3, r0
 8009c40:	4293      	cmp	r3, r2
 8009c42:	d100      	bne.n	8009c46 <memset+0xa>
 8009c44:	4770      	bx	lr
 8009c46:	f803 1b01 	strb.w	r1, [r3], #1
 8009c4a:	e7f9      	b.n	8009c40 <memset+0x4>

08009c4c <__libc_init_array>:
 8009c4c:	b570      	push	{r4, r5, r6, lr}
 8009c4e:	4b0d      	ldr	r3, [pc, #52]	@ (8009c84 <__libc_init_array+0x38>)
 8009c50:	4d0d      	ldr	r5, [pc, #52]	@ (8009c88 <__libc_init_array+0x3c>)
 8009c52:	1b5b      	subs	r3, r3, r5
 8009c54:	109c      	asrs	r4, r3, #2
 8009c56:	2600      	movs	r6, #0
 8009c58:	42a6      	cmp	r6, r4
 8009c5a:	d109      	bne.n	8009c70 <__libc_init_array+0x24>
 8009c5c:	f000 f828 	bl	8009cb0 <_init>
 8009c60:	4d0a      	ldr	r5, [pc, #40]	@ (8009c8c <__libc_init_array+0x40>)
 8009c62:	4b0b      	ldr	r3, [pc, #44]	@ (8009c90 <__libc_init_array+0x44>)
 8009c64:	1b5b      	subs	r3, r3, r5
 8009c66:	109c      	asrs	r4, r3, #2
 8009c68:	2600      	movs	r6, #0
 8009c6a:	42a6      	cmp	r6, r4
 8009c6c:	d105      	bne.n	8009c7a <__libc_init_array+0x2e>
 8009c6e:	bd70      	pop	{r4, r5, r6, pc}
 8009c70:	f855 3b04 	ldr.w	r3, [r5], #4
 8009c74:	4798      	blx	r3
 8009c76:	3601      	adds	r6, #1
 8009c78:	e7ee      	b.n	8009c58 <__libc_init_array+0xc>
 8009c7a:	f855 3b04 	ldr.w	r3, [r5], #4
 8009c7e:	4798      	blx	r3
 8009c80:	3601      	adds	r6, #1
 8009c82:	e7f2      	b.n	8009c6a <__libc_init_array+0x1e>
 8009c84:	08009d50 	.word	0x08009d50
 8009c88:	08009d50 	.word	0x08009d50
 8009c8c:	08009d50 	.word	0x08009d50
 8009c90:	08009d54 	.word	0x08009d54

08009c94 <memcpy>:
 8009c94:	440a      	add	r2, r1
 8009c96:	4291      	cmp	r1, r2
 8009c98:	f100 33ff 	add.w	r3, r0, #4294967295
 8009c9c:	d100      	bne.n	8009ca0 <memcpy+0xc>
 8009c9e:	4770      	bx	lr
 8009ca0:	b510      	push	{r4, lr}
 8009ca2:	f811 4b01 	ldrb.w	r4, [r1], #1
 8009ca6:	f803 4f01 	strb.w	r4, [r3, #1]!
 8009caa:	4291      	cmp	r1, r2
 8009cac:	d1f9      	bne.n	8009ca2 <memcpy+0xe>
 8009cae:	bd10      	pop	{r4, pc}

08009cb0 <_init>:
 8009cb0:	b5f8      	push	{r3, r4, r5, r6, r7, lr}
 8009cb2:	bf00      	nop
 8009cb4:	bcf8      	pop	{r3, r4, r5, r6, r7}
 8009cb6:	bc08      	pop	{r3}
 8009cb8:	469e      	mov	lr, r3
 8009cba:	4770      	bx	lr

08009cbc <_fini>:
 8009cbc:	b5f8      	push	{r3, r4, r5, r6, r7, lr}
 8009cbe:	bf00      	nop
 8009cc0:	bcf8      	pop	{r3, r4, r5, r6, r7}
 8009cc2:	bc08      	pop	{r3}
 8009cc4:	469e      	mov	lr, r3
 8009cc6:	4770      	bx	lr
